	.file	"foo.cc"
# GNU C++20 (Ubuntu 11.4.0-1ubuntu1~22.04) version 11.4.0 (x86_64-linux-gnu)
#	compiled by GNU C version 11.4.0, GMP version 6.2.1, MPFR version 4.1.0, MPC version 1.2.1, isl version isl-0.24-GMP

# GGC heuristics: --param ggc-min-expand=100 --param ggc-min-heapsize=131072
# options passed: -mtune=generic -march=x86-64 -g -O2 -std=gnu++20 -fconcepts -fasynchronous-unwind-tables -fstack-protector-strong -fstack-clash-protection -fcf-protection
	.text
.Ltext0:
	.file 0 "/home/y-tanabe/proj/compprog/clib/tmp_tree/test" "foo.cc"
	.section	.text._ZNKSt5ctypeIcE8do_widenEc,"axG",@progbits,_ZNKSt5ctypeIcE8do_widenEc,comdat
	.align 2
	.p2align 4
	.weak	_ZNKSt5ctypeIcE8do_widenEc
	.type	_ZNKSt5ctypeIcE8do_widenEc, @function
_ZNKSt5ctypeIcE8do_widenEc:
.LVL0:
.LFB2862:
	.file 1 "/usr/include/c++/11/bits/locale_facets.h"
	.loc 1 1087 7 view -0
	.cfi_startproc
	.loc 1 1087 7 is_stmt 0 view .LVU1
	endbr64	
	.loc 1 1088 9 is_stmt 1 view .LVU2
# /usr/include/c++/11/bits/locale_facets.h:1087:       do_widen(char __c) const
	.loc 1 1087 7 is_stmt 0 view .LVU3
	movl	%esi, %eax	# tmp87, __c
# /usr/include/c++/11/bits/locale_facets.h:1088:       { return __c; }
	.loc 1 1088 21 view .LVU4
	ret	
	.cfi_endproc
.LFE2862:
	.size	_ZNKSt5ctypeIcE8do_widenEc, .-_ZNKSt5ctypeIcE8do_widenEc
	.section	.text._ZNSt13random_deviceD2Ev,"axG",@progbits,_ZNSt13random_deviceD5Ev,comdat
	.align 2
	.p2align 4
	.weak	_ZNSt13random_deviceD2Ev
	.type	_ZNSt13random_deviceD2Ev, @function
_ZNSt13random_deviceD2Ev:
.LVL1:
.LFB9406:
	.file 2 "/usr/include/c++/11/bits/random.h"
	.loc 2 1624 5 is_stmt 1 view -0
	.cfi_startproc
	.cfi_personality 0x9b,DW.ref.__gxx_personality_v0
	.cfi_lsda 0x1b,.LLSDA9406
	.loc 2 1624 5 is_stmt 0 view .LVU6
	endbr64	
.LBB2027:
	.loc 2 1625 7 is_stmt 1 view .LVU7
.LBE2027:
# /usr/include/c++/11/bits/random.h:1624:     ~random_device()
	.loc 2 1624 5 is_stmt 0 view .LVU8
	subq	$8, %rsp	#,
	.cfi_def_cfa_offset 16
.LBB2028:
# /usr/include/c++/11/bits/random.h:1625:     { _M_fini(); }
	.loc 2 1625 14 view .LVU9
	call	_ZNSt13random_device7_M_finiEv@PLT	#
.LVL2:
	.loc 2 1625 14 view .LVU10
.LBE2028:
# /usr/include/c++/11/bits/random.h:1625:     { _M_fini(); }
	.loc 2 1625 18 view .LVU11
	addq	$8, %rsp	#,
	.cfi_def_cfa_offset 8
	ret	
	.cfi_endproc
.LFE9406:
	.globl	__gxx_personality_v0
	.section	.gcc_except_table._ZNSt13random_deviceD2Ev,"aG",@progbits,_ZNSt13random_deviceD5Ev,comdat
.LLSDA9406:
	.byte	0xff
	.byte	0xff
	.byte	0x1
	.uleb128 .LLSDACSE9406-.LLSDACSB9406
.LLSDACSB9406:
.LLSDACSE9406:
	.section	.text._ZNSt13random_deviceD2Ev,"axG",@progbits,_ZNSt13random_deviceD5Ev,comdat
	.size	_ZNSt13random_deviceD2Ev, .-_ZNSt13random_deviceD2Ev
	.weak	_ZNSt13random_deviceD1Ev
	.set	_ZNSt13random_deviceD1Ev,_ZNSt13random_deviceD2Ev
	.text
	.p2align 4
	.type	_ZSt4endlIcSt11char_traitsIcEERSt13basic_ostreamIT_T0_ES6_.isra.0, @function
_ZSt4endlIcSt11char_traitsIcEERSt13basic_ostreamIT_T0_ES6_.isra.0:
.LVL3:
.LFB14224:
	.file 3 "/usr/include/c++/11/ostream"
	.loc 3 684 5 is_stmt 1 view -0
	.cfi_startproc
	.loc 3 684 5 is_stmt 0 view .LVU13
	pushq	%r12	#
	.cfi_def_cfa_offset 16
	.cfi_offset 12, -16
	pushq	%rbp	#
	.cfi_def_cfa_offset 24
	.cfi_offset 6, -24
	subq	$8, %rsp	#,
	.cfi_def_cfa_offset 32
# /usr/include/c++/11/ostream:685:     { return flush(__os.put(__os.widen('\n'))); }
	.loc 3 685 39 view .LVU14
	movq	(%rdi), %rax	# __os_1(D)->_vptr.basic_ostream, __os_1(D)->_vptr.basic_ostream
	movq	-24(%rax), %rax	# MEM[(long int *)_2 + -24B], MEM[(long int *)_2 + -24B]
	movq	240(%rdi,%rax), %r12	# MEM[(const struct __ctype_type * *)_5 + 240B], _14
.LVL4:
.LBB2045:
.LBI2045:
	.file 4 "/usr/include/c++/11/bits/basic_ios.h"
	.loc 4 449 7 is_stmt 1 view .LVU15
.LBB2046:
.LBI2046:
	.loc 4 47 5 view .LVU16
.LBB2047:
# /usr/include/c++/11/bits/basic_ios.h:49:       if (!__f)
	.loc 4 49 7 is_stmt 0 view .LVU17
	testq	%r12, %r12	# _14
	je	.L11	#,
.LBE2047:
.LBE2046:
.LBB2049:
.LBB2050:
# /usr/include/c++/11/bits/locale_facets.h:877: 	if (_M_widen_ok)
	.loc 1 877 2 view .LVU18
	cmpb	$0, 56(%r12)	#, MEM[(const struct ctype *)_14]._M_widen_ok
	movq	%rdi, %rbp	# tmp100, __os
.LVL5:
	.loc 1 877 2 view .LVU19
.LBE2050:
.LBI2049:
	.loc 1 875 7 is_stmt 1 view .LVU20
.LBB2053:
	.loc 1 877 2 view .LVU21
	je	.L7	#,
	.loc 1 878 4 view .LVU22
# /usr/include/c++/11/bits/locale_facets.h:878: 	  return _M_widen[static_cast<unsigned char>(__c)];
	.loc 1 878 51 is_stmt 0 view .LVU23
	movsbl	67(%r12), %esi	# MEM[(const struct ctype *)_14]._M_widen[10],
.LVL6:
.L8:
	.loc 1 878 51 view .LVU24
.LBE2053:
.LBE2049:
.LBE2045:
# /usr/include/c++/11/ostream:685:     { return flush(__os.put(__os.widen('\n'))); }
	.loc 3 685 19 view .LVU25
	movq	%rbp, %rdi	# __os,
	call	_ZNSo3putEc@PLT	#
.LVL7:
# /usr/include/c++/11/ostream:685:     { return flush(__os.put(__os.widen('\n'))); }
	.loc 3 685 49 view .LVU26
	addq	$8, %rsp	#,
	.cfi_remember_state
	.cfi_def_cfa_offset 24
	popq	%rbp	#
	.cfi_def_cfa_offset 16
.LVL8:
# /usr/include/c++/11/ostream:685:     { return flush(__os.put(__os.widen('\n'))); }
	.loc 3 685 19 view .LVU27
	movq	%rax, %rdi	# tmp102, _8
.LVL9:
.LBB2057:
.LBI2057:
	.loc 3 706 5 is_stmt 1 view .LVU28
.LBE2057:
# /usr/include/c++/11/ostream:685:     { return flush(__os.put(__os.widen('\n'))); }
	.loc 3 685 49 is_stmt 0 view .LVU29
	popq	%r12	#
	.cfi_def_cfa_offset 8
.LBB2059:
.LBB2058:
# /usr/include/c++/11/ostream:707:     { return __os.flush(); }
	.loc 3 707 24 view .LVU30
	jmp	_ZNSo5flushEv@PLT	#
.LVL10:
.L7:
	.cfi_restore_state
	.loc 3 707 24 view .LVU31
.LBE2058:
.LBE2059:
.LBB2060:
.LBB2055:
.LBB2054:
.LBB2051:
.LBI2051:
	.loc 1 875 7 is_stmt 1 view .LVU32
.LBB2052:
	.loc 1 879 2 view .LVU33
# /usr/include/c++/11/bits/locale_facets.h:879: 	this->_M_widen_init();
	.loc 1 879 21 is_stmt 0 view .LVU34
	movq	%r12, %rdi	# _14,
.LVL11:
	.loc 1 879 21 view .LVU35
	call	_ZNKSt5ctypeIcE13_M_widen_initEv@PLT	#
.LVL12:
	.loc 1 880 2 is_stmt 1 view .LVU36
# /usr/include/c++/11/bits/locale_facets.h:880: 	return this->do_widen(__c);
	.loc 1 880 23 is_stmt 0 view .LVU37
	movq	(%r12), %rax	# MEM[(const struct ctype *)_14].D.65374._vptr.facet, MEM[(const struct ctype *)_14].D.65374._vptr.facet
	movl	$10, %esi	#,
	leaq	_ZNKSt5ctypeIcE8do_widenEc(%rip), %rdx	#, tmp98
	movq	48(%rax), %rax	# MEM[(int (*) () *)_27 + 48B], _28
	cmpq	%rdx, %rax	# tmp98, _28
	je	.L8	#,
	movl	$10, %esi	#,
	movq	%r12, %rdi	# _14,
	call	*%rax	# _28
.LVL13:
	movsbl	%al, %esi	# tmp101,
	jmp	.L8	#
.LVL14:
.L11:
	.loc 1 880 23 view .LVU38
.LBE2052:
.LBE2051:
.LBE2054:
.LBE2055:
.LBB2056:
.LBB2048:
# /usr/include/c++/11/bits/basic_ios.h:50: 	__throw_bad_cast();
	.loc 4 50 18 view .LVU39
	call	_ZSt16__throw_bad_castv@PLT	#
.LVL15:
	.loc 4 50 18 view .LVU40
.LBE2048:
.LBE2056:
.LBE2060:
	.cfi_endproc
.LFE14224:
	.size	_ZSt4endlIcSt11char_traitsIcEERSt13basic_ostreamIT_T0_ES6_.isra.0, .-_ZSt4endlIcSt11char_traitsIcEERSt13basic_ostreamIT_T0_ES6_.isra.0
	.align 2
	.p2align 4
	.type	_ZZ4mainENKUlT_xxE_clIS0_EEvS_xx, @function
_ZZ4mainENKUlT_xxE_clIS0_EEvS_xx:
.LVL16:
.LFB12826:
	.file 5 "foo.cc"
	.loc 5 68 14 is_stmt 1 view -0
	.cfi_startproc
	.loc 5 68 14 is_stmt 0 view .LVU42
	pushq	%r15	#
	.cfi_def_cfa_offset 16
	.cfi_offset 15, -16
	movq	%rdx, %r11	# tmp309, rF
.LVL17:
.LBB2227:
.LBB2228:
.LBB2229:
# /usr/include/c++/11/bits/stl_vector.h:1046: 	return *(this->_M_impl._M_start + __n);
	.file 6 "/usr/include/c++/11/bits/stl_vector.h"
	.loc 6 1046 34 view .LVU43
	leaq	(%rcx,%rcx,2), %rdx	#, tmp245
.LBE2229:
.LBE2228:
.LBE2227:
# foo.cc:68:   auto dfs = [&](auto rF, ll nd, ll pt) -> void {
	.loc 5 68 14 view .LVU44
	pushq	%r14	#
	.cfi_def_cfa_offset 24
	.cfi_offset 14, -24
	pushq	%r13	#
	.cfi_def_cfa_offset 32
	.cfi_offset 13, -32
	pushq	%r12	#
	.cfi_def_cfa_offset 40
	.cfi_offset 12, -40
	pushq	%rbp	#
	.cfi_def_cfa_offset 48
	.cfi_offset 6, -48
	pushq	%rbx	#
	.cfi_def_cfa_offset 56
	.cfi_offset 3, -56
	subq	$344, %rsp	#,
	.cfi_def_cfa_offset 400
# foo.cc:68:   auto dfs = [&](auto rF, ll nd, ll pt) -> void {
	.loc 5 68 14 view .LVU45
	movq	%rdi, 248(%rsp)	# __closure, %sfp
	movq	%rcx, 216(%rsp)	# nd, %sfp
	movq	%rsi, 32(%rsp)	# tmp308, %sfp
	movq	%r8, 256(%rsp)	# tmp311, %sfp
.LBB2437:
.LBB2232:
.LBB2230:
# /usr/include/c++/11/bits/stl_vector.h:1046: 	return *(this->_M_impl._M_start + __n);
	.loc 6 1046 25 view .LVU46
	movq	%fs:40, %rax	# MEM[(<address-space-1> long unsigned int *)40B], tmp312
	movq	%rax, 328(%rsp)	# tmp312, D.300955
	movq	(%rdi), %rax	# __closure_10(D)->__nbr, tmp312
# /usr/include/c++/11/bits/stl_vector.h:1046: 	return *(this->_M_impl._M_start + __n);
	.loc 6 1046 34 view .LVU47
	movq	%rcx, %rdi	# nd, nd
.LVL18:
	.loc 6 1046 34 view .LVU48
.LBE2230:
.LBE2232:
.LBB2233:
.LBB2234:
	salq	$3, %rdi	#, _23
	movq	%rdi, 232(%rsp)	# _23, %sfp
.LBE2234:
.LBE2233:
.LBB2235:
.LBB2231:
# /usr/include/c++/11/bits/stl_vector.h:1046: 	return *(this->_M_impl._M_start + __n);
	.loc 6 1046 39 view .LVU49
	movq	(%rax), %rax	# _1->D.265739._M_impl.D.265084._M_start, _1->D.265739._M_impl.D.265084._M_start
	leaq	(%rax,%rdx,8), %rax	#, _12
.LVL19:
	.loc 6 1046 39 view .LVU50
.LBE2231:
.LBE2235:
.LBB2236:
.LBI2236:
	.loc 6 811 7 is_stmt 1 view .LVU51
.LBB2237:
.LBI2237:
	.file 7 "/usr/include/c++/11/bits/stl_iterator.h"
	.loc 7 1027 7 view .LVU52
	.loc 7 1027 7 is_stmt 0 view .LVU53
.LBE2237:
.LBE2236:
.LBB2238:
.LBI2238:
	.loc 6 829 7 is_stmt 1 view .LVU54
.LBB2239:
.LBI2239:
	.loc 7 1027 7 view .LVU55
.LBB2240:
# /usr/include/c++/11/bits/stl_iterator.h:1028:       : _M_current(__i) { }
	.loc 7 1028 9 is_stmt 0 view .LVU56
	movq	8(%rax), %rcx	# MEM[(long long int * const &)_12 + 8], _13
.LVL20:
	.loc 7 1028 9 view .LVU57
	movq	(%rax), %rax	# MEM[(long long int * const &)_12], ivtmp.517
.LVL21:
	.loc 7 1028 9 view .LVU58
	movq	%rcx, 224(%rsp)	# _13, %sfp
.LVL22:
	.loc 7 1028 9 view .LVU59
.LBE2240:
.LBE2239:
.LBE2238:
	.loc 5 69 5 is_stmt 1 view .LVU60
	movq	%rax, 192(%rsp)	# ivtmp.517, %sfp
	cmpq	%rax, %rcx	# ivtmp.517, _13
	je	.L12	#,
	leaq	304(%rsp), %rdi	#, tmp306
.LVL23:
.L47:
	.loc 5 69 5 is_stmt 0 view .LVU61
	movq	192(%rsp), %rax	# %sfp, ivtmp.517
	movq	(%rax), %rbx	# MEM[(long long int &)_170], c
	movq	%rbx, 176(%rsp)	# c, %sfp
.LVL24:
# foo.cc:70:       if (c == pt) continue;
	.loc 5 70 7 view .LVU62
	cmpq	256(%rsp), %rbx	# %sfp, c
	je	.L14	#,
.LVL25:
.LBB2241:
.LBI2241:
	.loc 5 68 14 is_stmt 1 view .LVU63
.LBB2242:
.LBB2243:
.LBB2244:
.LBI2244:
	.loc 6 1043 7 view .LVU64
.LBB2245:
# /usr/include/c++/11/bits/stl_vector.h:1046: 	return *(this->_M_impl._M_start + __n);
	.loc 6 1046 25 is_stmt 0 view .LVU65
	movq	32(%rsp), %rax	# %sfp, rF
.LVL26:
	.loc 6 1046 25 view .LVU66
.LBE2245:
.LBE2244:
.LBE2243:
.LBE2242:
.LBE2241:
.LBB2429:
.LBB2430:
# /usr/include/c++/11/bits/stl_vector.h:1046: 	return *(this->_M_impl._M_start + __n);
	.loc 6 1046 34 view .LVU67
	leaq	0(,%rbx,8), %rcx	#, _298
	movq	%rcx, 240(%rsp)	# _298, %sfp
.LBE2430:
.LBE2429:
.LBB2433:
.LBB2428:
.LBB2427:
.LBB2247:
.LBB2246:
# /usr/include/c++/11/bits/stl_vector.h:1046: 	return *(this->_M_impl._M_start + __n);
	.loc 6 1046 25 view .LVU68
	movq	(%rax), %r10	# rF$__nbr_14->D.265739._M_impl.D.265084._M_start, _32
# /usr/include/c++/11/bits/stl_vector.h:1046: 	return *(this->_M_impl._M_start + __n);
	.loc 6 1046 34 view .LVU69
	leaq	(%rbx,%rbx,2), %rax	#, tmp250
.LVL27:
# /usr/include/c++/11/bits/stl_vector.h:1046: 	return *(this->_M_impl._M_start + __n);
	.loc 6 1046 39 view .LVU70
	leaq	(%r10,%rax,8), %rax	#, _34
.LVL28:
	.loc 6 1046 39 view .LVU71
.LBE2246:
.LBE2247:
.LBB2248:
.LBI2248:
	.loc 6 811 7 is_stmt 1 view .LVU72
.LBB2249:
.LBI2249:
	.loc 7 1027 7 view .LVU73
	.loc 7 1027 7 is_stmt 0 view .LVU74
.LBE2249:
.LBE2248:
.LBB2250:
.LBI2250:
	.loc 6 829 7 is_stmt 1 view .LVU75
.LBB2251:
.LBI2251:
	.loc 7 1027 7 view .LVU76
.LBB2252:
# /usr/include/c++/11/bits/stl_iterator.h:1028:       : _M_current(__i) { }
	.loc 7 1028 9 is_stmt 0 view .LVU77
	movq	8(%rax), %rsi	# MEM[(long long int * const &)_34 + 8], _36
	movq	(%rax), %rax	# MEM[(long long int * const &)_34], ivtmp.512
.LVL29:
	.loc 7 1028 9 view .LVU78
	movq	%rsi, 208(%rsp)	# _36, %sfp
.LVL30:
	.loc 7 1028 9 view .LVU79
.LBE2252:
.LBE2251:
.LBE2250:
	.loc 5 69 5 is_stmt 1 view .LVU80
	movq	%rax, 168(%rsp)	# ivtmp.512, %sfp
	cmpq	%rsi, %rax	# _36, ivtmp.512
	je	.L46	#,
	movq	%r11, %rax	# rF, rF
	.loc 5 69 5 is_stmt 0 view .LVU81
	movq	%r10, %r11	# _32, _32
	movq	%rax, %r10	# rF, rF
.LVL31:
.L45:
	.loc 5 69 5 view .LVU82
	movq	168(%rsp), %rax	# %sfp, ivtmp.512
	movq	(%rax), %rcx	# MEM[(long long int &)_195], c
	movq	%rcx, 144(%rsp)	# c, %sfp
.LVL32:
# foo.cc:70:       if (c == pt) continue;
	.loc 5 70 7 view .LVU83
	cmpq	%rcx, 216(%rsp)	# c, %sfp
	je	.L16	#,
.LVL33:
.LBB2253:
.LBI2253:
	.loc 5 68 14 is_stmt 1 view .LVU84
.LBB2254:
.LBB2255:
.LBB2256:
.LBI2256:
	.loc 6 1043 7 view .LVU85
.LBB2257:
# /usr/include/c++/11/bits/stl_vector.h:1046: 	return *(this->_M_impl._M_start + __n);
	.loc 6 1046 34 is_stmt 0 view .LVU86
	leaq	(%rcx,%rcx,2), %rax	#, tmp256
.LBE2257:
.LBE2256:
.LBE2255:
.LBE2254:
.LBE2253:
.LBB2418:
.LBB2419:
	leaq	0(,%rcx,8), %rbx	#, _297
.LBE2419:
.LBE2418:
.LBB2422:
.LBB2416:
.LBB2414:
.LBB2259:
.LBB2258:
# /usr/include/c++/11/bits/stl_vector.h:1046: 	return *(this->_M_impl._M_start + __n);
	.loc 6 1046 39 view .LVU87
	leaq	(%r11,%rax,8), %rax	#, _54
.LVL34:
	.loc 6 1046 39 view .LVU88
.LBE2258:
.LBE2259:
.LBB2260:
.LBI2260:
	.loc 6 811 7 is_stmt 1 view .LVU89
.LBB2261:
.LBI2261:
	.loc 7 1027 7 view .LVU90
	.loc 7 1027 7 is_stmt 0 view .LVU91
.LBE2261:
.LBE2260:
.LBB2262:
.LBI2262:
	.loc 6 829 7 is_stmt 1 view .LVU92
.LBB2263:
.LBI2263:
	.loc 7 1027 7 view .LVU93
.LBE2263:
.LBE2262:
.LBE2414:
.LBE2416:
.LBE2422:
.LBB2423:
.LBB2420:
# /usr/include/c++/11/bits/stl_vector.h:1046: 	return *(this->_M_impl._M_start + __n);
	.loc 6 1046 34 is_stmt 0 view .LVU94
	movq	%rbx, 200(%rsp)	# _297, %sfp
.LBE2420:
.LBE2423:
.LBB2424:
.LBB2417:
.LBB2415:
.LBB2266:
.LBB2265:
.LBB2264:
# /usr/include/c++/11/bits/stl_iterator.h:1028:       : _M_current(__i) { }
	.loc 7 1028 9 view .LVU95
	movq	8(%rax), %rsi	# MEM[(long long int * const &)_54 + 8], _56
	movq	(%rax), %rax	# MEM[(long long int * const &)_54], ivtmp.507
.LVL35:
	.loc 7 1028 9 view .LVU96
	movq	%rsi, 184(%rsp)	# _56, %sfp
.LVL36:
	.loc 7 1028 9 view .LVU97
.LBE2264:
.LBE2265:
.LBE2266:
	.loc 5 69 5 is_stmt 1 view .LVU98
	movq	%rax, 136(%rsp)	# ivtmp.507, %sfp
	cmpq	%rsi, %rax	# _56, ivtmp.507
	je	.L44	#,
.LVL37:
.L43:
	.loc 5 69 5 is_stmt 0 view .LVU99
	movq	136(%rsp), %rax	# %sfp, ivtmp.507
	movq	(%rax), %rbx	# MEM[(long long int &)_206], c
	movq	%rbx, 112(%rsp)	# c, %sfp
.LVL38:
# foo.cc:70:       if (c == pt) continue;
	.loc 5 70 7 view .LVU100
	cmpq	%rbx, 176(%rsp)	# c, %sfp
	je	.L18	#,
.LVL39:
.LBB2267:
.LBI2267:
	.loc 5 68 14 is_stmt 1 view .LVU101
.LBB2268:
.LBB2269:
.LBB2270:
.LBI2270:
	.loc 6 1043 7 view .LVU102
.LBB2271:
# /usr/include/c++/11/bits/stl_vector.h:1046: 	return *(this->_M_impl._M_start + __n);
	.loc 6 1046 34 is_stmt 0 view .LVU103
	leaq	(%rbx,%rbx,2), %rax	#, tmp261
.LBE2271:
.LBE2270:
.LBE2269:
.LBE2268:
.LBE2267:
.LBB2405:
.LBB2406:
	salq	$3, %rbx	#, _296
.LVL40:
	.loc 6 1046 34 view .LVU104
.LBE2406:
.LBE2405:
.LBB2409:
.LBB2403:
.LBB2401:
.LBB2273:
.LBB2272:
# /usr/include/c++/11/bits/stl_vector.h:1046: 	return *(this->_M_impl._M_start + __n);
	.loc 6 1046 39 view .LVU105
	leaq	(%r11,%rax,8), %rax	#, _74
.LVL41:
	.loc 6 1046 39 view .LVU106
.LBE2272:
.LBE2273:
.LBB2274:
.LBI2274:
	.loc 6 811 7 is_stmt 1 view .LVU107
.LBB2275:
.LBI2275:
	.loc 7 1027 7 view .LVU108
	.loc 7 1027 7 is_stmt 0 view .LVU109
.LBE2275:
.LBE2274:
.LBB2276:
.LBI2276:
	.loc 6 829 7 is_stmt 1 view .LVU110
.LBB2277:
.LBI2277:
	.loc 7 1027 7 view .LVU111
.LBE2277:
.LBE2276:
.LBE2401:
.LBE2403:
.LBE2409:
.LBB2410:
.LBB2407:
# /usr/include/c++/11/bits/stl_vector.h:1046: 	return *(this->_M_impl._M_start + __n);
	.loc 6 1046 34 is_stmt 0 view .LVU112
	movq	%rbx, 160(%rsp)	# _296, %sfp
.LBE2407:
.LBE2410:
.LBB2411:
.LBB2404:
.LBB2402:
.LBB2280:
.LBB2279:
.LBB2278:
# /usr/include/c++/11/bits/stl_iterator.h:1028:       : _M_current(__i) { }
	.loc 7 1028 9 view .LVU113
	movq	8(%rax), %rsi	# MEM[(long long int * const &)_74 + 8], _76
	movq	(%rax), %rax	# MEM[(long long int * const &)_74], ivtmp.502
.LVL42:
	.loc 7 1028 9 view .LVU114
	movq	%rsi, 152(%rsp)	# _76, %sfp
.LVL43:
	.loc 7 1028 9 view .LVU115
.LBE2278:
.LBE2279:
.LBE2280:
	.loc 5 69 5 is_stmt 1 view .LVU116
	movq	%rax, 80(%rsp)	# ivtmp.502, %sfp
	cmpq	%rsi, %rax	# _76, ivtmp.502
	je	.L42	#,
.LVL44:
.L41:
	.loc 5 69 5 is_stmt 0 view .LVU117
	movq	80(%rsp), %rax	# %sfp, ivtmp.502
	movq	(%rax), %rcx	# MEM[(long long int &)_212], c
	movq	%rcx, 40(%rsp)	# c, %sfp
.LVL45:
# foo.cc:70:       if (c == pt) continue;
	.loc 5 70 7 view .LVU118
	cmpq	%rcx, 144(%rsp)	# c, %sfp
	je	.L20	#,
.LVL46:
.LBB2281:
.LBI2281:
	.loc 5 68 14 is_stmt 1 view .LVU119
.LBB2282:
.LBB2283:
.LBB2284:
.LBI2284:
	.loc 6 1043 7 view .LVU120
.LBB2285:
# /usr/include/c++/11/bits/stl_vector.h:1046: 	return *(this->_M_impl._M_start + __n);
	.loc 6 1046 34 is_stmt 0 view .LVU121
	leaq	(%rcx,%rcx,2), %rax	#, tmp266
.LBE2285:
.LBE2284:
.LBE2283:
.LBE2282:
.LBE2281:
.LBB2392:
.LBB2393:
	salq	$3, %rcx	#, _295
.LVL47:
	.loc 6 1046 34 view .LVU122
.LBE2393:
.LBE2392:
.LBB2396:
.LBB2390:
.LBB2388:
.LBB2287:
.LBB2286:
# /usr/include/c++/11/bits/stl_vector.h:1046: 	return *(this->_M_impl._M_start + __n);
	.loc 6 1046 39 view .LVU123
	leaq	(%r11,%rax,8), %rax	#, _94
.LVL48:
	.loc 6 1046 39 view .LVU124
.LBE2286:
.LBE2287:
.LBB2288:
.LBI2288:
	.loc 6 811 7 is_stmt 1 view .LVU125
.LBB2289:
.LBI2289:
	.loc 7 1027 7 view .LVU126
	.loc 7 1027 7 is_stmt 0 view .LVU127
.LBE2289:
.LBE2288:
.LBB2290:
.LBI2290:
	.loc 6 829 7 is_stmt 1 view .LVU128
.LBB2291:
.LBI2291:
	.loc 7 1027 7 view .LVU129
.LBE2291:
.LBE2290:
.LBE2388:
.LBE2390:
.LBE2396:
.LBB2397:
.LBB2394:
# /usr/include/c++/11/bits/stl_vector.h:1046: 	return *(this->_M_impl._M_start + __n);
	.loc 6 1046 34 is_stmt 0 view .LVU130
	movq	%rcx, 128(%rsp)	# _295, %sfp
.LBE2394:
.LBE2397:
.LBB2398:
.LBB2391:
.LBB2389:
.LBB2294:
.LBB2293:
.LBB2292:
# /usr/include/c++/11/bits/stl_iterator.h:1028:       : _M_current(__i) { }
	.loc 7 1028 9 view .LVU131
	movq	8(%rax), %rsi	# MEM[(long long int * const &)_94 + 8], _96
	movq	(%rax), %rax	# MEM[(long long int * const &)_94], ivtmp.497
.LVL49:
	.loc 7 1028 9 view .LVU132
	movq	%rsi, 120(%rsp)	# _96, %sfp
.LVL50:
	.loc 7 1028 9 view .LVU133
.LBE2292:
.LBE2293:
.LBE2294:
	.loc 5 69 5 is_stmt 1 view .LVU134
	movq	%rax, 24(%rsp)	# ivtmp.497, %sfp
	cmpq	%rsi, %rax	# _96, ivtmp.497
	je	.L40	#,
	movq	%r10, %rax	# rF, rF
	.loc 5 69 5 is_stmt 0 view .LVU135
	movq	%r11, %r10	# _32, _32
	movq	%rax, %r11	# rF, rF
.LVL51:
.L39:
	.loc 5 69 5 view .LVU136
	movq	24(%rsp), %rax	# %sfp, ivtmp.497
	movq	(%rax), %rsi	# MEM[(long long int &)_220], c
	movq	%rsi, 88(%rsp)	# c, %sfp
.LVL52:
# foo.cc:70:       if (c == pt) continue;
	.loc 5 70 7 view .LVU137
	cmpq	%rsi, 112(%rsp)	# c, %sfp
	je	.L22	#,
.LVL53:
.LBB2295:
.LBI2295:
	.loc 5 68 14 is_stmt 1 view .LVU138
.LBB2296:
.LBB2297:
.LBB2298:
.LBI2298:
	.loc 6 1043 7 view .LVU139
.LBB2299:
# /usr/include/c++/11/bits/stl_vector.h:1046: 	return *(this->_M_impl._M_start + __n);
	.loc 6 1046 34 is_stmt 0 view .LVU140
	leaq	(%rsi,%rsi,2), %rax	#, tmp271
.LBE2299:
.LBE2298:
.LBE2297:
.LBE2296:
.LBE2295:
.LBB2379:
.LBB2380:
	leaq	0(,%rsi,8), %rbx	#, _294
.LBE2380:
.LBE2379:
.LBB2383:
.LBB2377:
.LBB2375:
.LBB2301:
.LBB2300:
# /usr/include/c++/11/bits/stl_vector.h:1046: 	return *(this->_M_impl._M_start + __n);
	.loc 6 1046 39 view .LVU141
	leaq	(%r10,%rax,8), %rax	#, _114
.LVL54:
	.loc 6 1046 39 view .LVU142
.LBE2300:
.LBE2301:
.LBB2302:
.LBI2302:
	.loc 6 811 7 is_stmt 1 view .LVU143
.LBB2303:
.LBI2303:
	.loc 7 1027 7 view .LVU144
	.loc 7 1027 7 is_stmt 0 view .LVU145
.LBE2303:
.LBE2302:
.LBB2304:
.LBI2304:
	.loc 6 829 7 is_stmt 1 view .LVU146
.LBB2305:
.LBI2305:
	.loc 7 1027 7 view .LVU147
.LBE2305:
.LBE2304:
.LBE2375:
.LBE2377:
.LBE2383:
.LBB2384:
.LBB2381:
# /usr/include/c++/11/bits/stl_vector.h:1046: 	return *(this->_M_impl._M_start + __n);
	.loc 6 1046 34 is_stmt 0 view .LVU148
	movq	%rbx, 72(%rsp)	# _294, %sfp
.LBE2381:
.LBE2384:
.LBB2385:
.LBB2378:
.LBB2376:
.LBB2308:
.LBB2307:
.LBB2306:
# /usr/include/c++/11/bits/stl_iterator.h:1028:       : _M_current(__i) { }
	.loc 7 1028 9 view .LVU149
	movq	8(%rax), %rcx	# MEM[(long long int * const &)_114 + 8], _116
	movq	(%rax), %r9	# MEM[(long long int * const &)_114], ivtmp.492
	movq	%rcx, 56(%rsp)	# _116, %sfp
.LVL55:
	.loc 7 1028 9 view .LVU150
.LBE2306:
.LBE2307:
.LBE2308:
	.loc 5 69 5 is_stmt 1 view .LVU151
	cmpq	%rcx, %r9	# _116, ivtmp.492
	je	.L38	#,
.LVL56:
.L37:
	.loc 5 69 5 is_stmt 0 view .LVU152
	movq	(%r9), %r13	# MEM[(long long int &)_232], c
.LVL57:
# foo.cc:70:       if (c == pt) continue;
	.loc 5 70 7 view .LVU153
	cmpq	%r13, 40(%rsp)	# c, %sfp
	je	.L24	#,
.LVL58:
.LBB2309:
.LBI2309:
	.loc 5 68 14 is_stmt 1 view .LVU154
.LBB2310:
.LBB2311:
.LBB2312:
.LBI2312:
	.loc 6 1043 7 view .LVU155
.LBB2313:
# /usr/include/c++/11/bits/stl_vector.h:1046: 	return *(this->_M_impl._M_start + __n);
	.loc 6 1046 34 is_stmt 0 view .LVU156
	leaq	0(%r13,%r13,2), %rax	#, tmp276
# /usr/include/c++/11/bits/stl_vector.h:1046: 	return *(this->_M_impl._M_start + __n);
	.loc 6 1046 39 view .LVU157
	leaq	(%r10,%rax,8), %rdx	#, _134
.LVL59:
	.loc 6 1046 39 view .LVU158
.LBE2313:
.LBE2312:
.LBB2314:
.LBI2314:
	.loc 6 811 7 is_stmt 1 view .LVU159
.LBB2315:
.LBI2315:
	.loc 7 1027 7 view .LVU160
	.loc 7 1027 7 is_stmt 0 view .LVU161
.LBE2315:
.LBE2314:
.LBB2316:
.LBI2316:
	.loc 6 829 7 is_stmt 1 view .LVU162
.LBB2317:
.LBI2317:
	.loc 7 1027 7 view .LVU163
.LBE2317:
.LBE2316:
.LBE2311:
.LBE2310:
.LBE2309:
.LBB2369:
.LBB2370:
# /usr/include/c++/11/bits/stl_vector.h:1046: 	return *(this->_M_impl._M_start + __n);
	.loc 6 1046 34 is_stmt 0 view .LVU164
	leaq	0(,%r13,8), %rax	#, _293
.LBE2370:
.LBE2369:
.LBB2372:
.LBB2368:
.LBB2367:
.LBB2320:
.LBB2319:
.LBB2318:
# /usr/include/c++/11/bits/stl_iterator.h:1028:       : _M_current(__i) { }
	.loc 7 1028 9 view .LVU165
	movq	8(%rdx), %rsi	# MEM[(long long int * const &)_134 + 8], _136
	movq	(%rdx), %rcx	# MEM[(long long int * const &)_134], ivtmp.487
	movq	%rsi, 104(%rsp)	# _136, %sfp
.LVL60:
	.loc 7 1028 9 view .LVU166
.LBE2318:
.LBE2319:
.LBE2320:
	.loc 5 69 5 is_stmt 1 view .LVU167
	movq	%rcx, 96(%rsp)	# ivtmp.487, %sfp
	cmpq	%rsi, %rcx	# _136, ivtmp.487
	je	.L36	#,
	movq	%r9, 64(%rsp)	# ivtmp.492, %sfp
	movq	%r13, %r9	# c, c
.LVL61:
.L35:
	.loc 5 69 5 is_stmt 0 view .LVU168
	movq	96(%rsp), %rcx	# %sfp, ivtmp.487
	movq	(%rcx), %rbx	# MEM[(long long int &)_270], c
.LVL62:
# foo.cc:70:       if (c == pt) continue;
	.loc 5 70 7 view .LVU169
	cmpq	%rbx, 88(%rsp)	# c, %sfp
	je	.L26	#,
.LVL63:
.LBB2321:
.LBI2321:
	.loc 5 68 14 is_stmt 1 view .LVU170
.LBB2322:
.LBB2323:
.LBB2324:
.LBI2324:
	.loc 6 1043 7 view .LVU171
.LBB2325:
# /usr/include/c++/11/bits/stl_vector.h:1046: 	return *(this->_M_impl._M_start + __n);
	.loc 6 1046 34 is_stmt 0 view .LVU172
	leaq	(%rbx,%rbx,2), %rdx	#, tmp281
.LBE2325:
.LBE2324:
.LBE2323:
.LBE2322:
.LBE2321:
.LBB2361:
.LBB2362:
	leaq	0(,%rbx,8), %r13	#, _292
.LBE2362:
.LBE2361:
.LBB2364:
.LBB2360:
.LBB2359:
.LBB2327:
.LBB2326:
# /usr/include/c++/11/bits/stl_vector.h:1046: 	return *(this->_M_impl._M_start + __n);
	.loc 6 1046 39 view .LVU173
	leaq	(%r10,%rdx,8), %rdx	#, _154
.LVL64:
	.loc 6 1046 39 view .LVU174
.LBE2326:
.LBE2327:
.LBB2328:
.LBI2328:
	.loc 6 811 7 is_stmt 1 view .LVU175
.LBB2329:
.LBI2329:
	.loc 7 1027 7 view .LVU176
	.loc 7 1027 7 is_stmt 0 view .LVU177
.LBE2329:
.LBE2328:
.LBB2330:
.LBI2330:
	.loc 6 829 7 is_stmt 1 view .LVU178
.LBB2331:
.LBI2331:
	.loc 7 1027 7 view .LVU179
.LBB2332:
# /usr/include/c++/11/bits/stl_iterator.h:1028:       : _M_current(__i) { }
	.loc 7 1028 9 is_stmt 0 view .LVU180
	movq	8(%rdx), %r14	# MEM[(long long int * const &)_154 + 8], _156
.LVL65:
	.loc 7 1028 9 view .LVU181
.LBE2332:
.LBE2331:
.LBE2330:
	.loc 5 69 5 is_stmt 1 view .LVU182
	movq	(%rdx), %r12	# MEM[(long long int * const &)_154], ivtmp.482
	cmpq	%r14, %r12	# _156, ivtmp.482
	je	.L34	#,
	movq	%r14, 16(%rsp)	# _156, %sfp
	movq	%rax, 8(%rsp)	# _293, %sfp
.LVL66:
.L33:
	.loc 5 69 5 is_stmt 0 view .LVU183
	movq	(%r12), %r14	# MEM[(long long int &)_254], c
.LVL67:
# foo.cc:70:       if (c == pt) continue;
	.loc 5 70 7 view .LVU184
	cmpq	%r14, %r9	# c, c
	je	.L28	#,
.LVL68:
	.loc 5 70 7 view .LVU185
	movq	32(%rsp), %rax	# %sfp, rF
.LVL69:
.LBB2333:
.LBB2334:
# /usr/include/c++/11/bits/stl_vector.h:1046: 	return *(this->_M_impl._M_start + __n);
	.loc 6 1046 34 view .LVU186
	leaq	0(,%r14,8), %rsi	#, _291
	movq	%r11, 312(%rsp)	# rF, rF.__vec1
.LVL70:
	.loc 6 1046 34 view .LVU187
.LBE2334:
.LBE2333:
.LBB2337:
.LBI2337:
	.loc 5 68 14 is_stmt 1 view .LVU188
.LBB2338:
.LBB2339:
.LBB2340:
.LBI2340:
	.loc 6 1043 7 view .LVU189
.LBE2340:
.LBE2339:
.LBE2338:
.LBE2337:
.LBB2355:
.LBB2335:
# /usr/include/c++/11/bits/stl_vector.h:1046: 	return *(this->_M_impl._M_start + __n);
	.loc 6 1046 34 is_stmt 0 view .LVU190
	movq	%rsi, 48(%rsp)	# _291, %sfp
	movq	%rax, 304(%rsp)	# rF, rF.__nbr
.LBE2335:
.LBE2355:
.LBB2356:
.LBB2354:
.LBB2353:
.LBB2342:
.LBB2341:
	leaq	(%r14,%r14,2), %rax	#, tmp286
.LVL71:
# /usr/include/c++/11/bits/stl_vector.h:1046: 	return *(this->_M_impl._M_start + __n);
	.loc 6 1046 39 view .LVU191
	leaq	(%r10,%rax,8), %rax	#, _174
.LVL72:
	.loc 6 1046 39 view .LVU192
.LBE2341:
.LBE2342:
.LBB2343:
.LBI2343:
	.loc 6 811 7 is_stmt 1 view .LVU193
.LBB2344:
.LBI2344:
	.loc 7 1027 7 view .LVU194
	.loc 7 1027 7 is_stmt 0 view .LVU195
.LBE2344:
.LBE2343:
.LBB2345:
.LBI2345:
	.loc 6 829 7 is_stmt 1 view .LVU196
.LBB2346:
.LBI2346:
	.loc 7 1027 7 view .LVU197
.LBB2347:
# /usr/include/c++/11/bits/stl_iterator.h:1028:       : _M_current(__i) { }
	.loc 7 1028 9 is_stmt 0 view .LVU198
	movq	8(%rax), %r15	# MEM[(long long int * const &)_174 + 8], _176
.LVL73:
	.loc 7 1028 9 view .LVU199
.LBE2347:
.LBE2346:
.LBE2345:
	.loc 5 69 5 is_stmt 1 view .LVU200
	movq	(%rax), %rbp	# MEM[(long long int * const &)_174], ivtmp.476
	cmpq	%r15, %rbp	# _176, ivtmp.476
	je	.L32	#,
.LVL74:
.L31:
	.loc 5 69 5 is_stmt 0 view .LVU201
	movq	0(%rbp), %rax	# MEM[(long long int &)_18], c
.LVL75:
# foo.cc:70:       if (c == pt) continue;
	.loc 5 70 7 view .LVU202
	cmpq	%rax, %rbx	# c, c
	je	.L30	#,
# foo.cc:71:       rF(rF, c, nd);
	.loc 5 71 9 view .LVU203
	movq	312(%rsp), %rdx	# rF,
	movq	304(%rsp), %rsi	# rF,
	movq	%rax, %rcx	# c,
	movq	%r14, %r8	# c,
	movq	%r11, 296(%rsp)	# rF, %sfp
	movq	%r9, 288(%rsp)	# c, %sfp
	movq	%r10, 280(%rsp)	# _32, %sfp
	movq	%rax, 272(%rsp)	# c, %sfp
	movq	%rdi, 264(%rsp)	# tmp306, %sfp
	call	_ZZ4mainENKUlT_xxE_clIS0_EEvS_xx	#
.LVL76:
.LBB2348:
.LBI2348:
	.loc 6 1043 7 is_stmt 1 view .LVU204
.LBB2349:
# /usr/include/c++/11/bits/stl_vector.h:1046: 	return *(this->_M_impl._M_start + __n);
	.loc 6 1046 25 is_stmt 0 view .LVU205
	movq	296(%rsp), %r11	# %sfp, rF
	.loc 6 1046 25 view .LVU206
.LBE2349:
.LBE2348:
# foo.cc:72:       vec1[nd] += vec1[c];
	.loc 5 72 16 view .LVU207
	movq	48(%rsp), %rdi	# %sfp, _291
	movq	272(%rsp), %rax	# %sfp, c
	movq	288(%rsp), %r9	# %sfp, c
.LBB2351:
.LBB2350:
# /usr/include/c++/11/bits/stl_vector.h:1046: 	return *(this->_M_impl._M_start + __n);
	.loc 6 1046 25 view .LVU208
	movq	(%r11), %rdx	# rF$__vec1_8->D.266787._M_impl.D.266142._M_start, _181
.LVL77:
	.loc 6 1046 25 view .LVU209
.LBE2350:
.LBE2351:
.LBB2352:
.LBI2352:
	.loc 6 1043 7 is_stmt 1 view .LVU210
	.loc 6 1043 7 is_stmt 0 view .LVU211
.LBE2352:
# foo.cc:72:       vec1[nd] += vec1[c];
	.loc 5 72 16 view .LVU212
	movq	280(%rsp), %r10	# %sfp, _32
	movq	(%rdx,%rax,8), %rax	# *_183, *_183
	addq	%rax, (%rdx,%rdi)	# *_183, *_186
	movq	264(%rsp), %rdi	# %sfp, tmp306
.LVL78:
	.p2align 4,,10
	.p2align 3
.L30:
	.loc 5 69 5 is_stmt 1 view .LVU213
	.loc 5 69 5 view .LVU214
	addq	$8, %rbp	#, ivtmp.476
.LVL79:
	.loc 5 69 5 is_stmt 0 view .LVU215
	cmpq	%rbp, %r15	# ivtmp.476, _176
	jne	.L31	#,
.L32:
.LVL80:
	.loc 5 69 5 view .LVU216
.LBE2353:
.LBE2354:
.LBE2356:
.LBB2357:
.LBI2333:
	.loc 6 1043 7 is_stmt 1 view .LVU217
.LBB2336:
# /usr/include/c++/11/bits/stl_vector.h:1046: 	return *(this->_M_impl._M_start + __n);
	.loc 6 1046 25 is_stmt 0 view .LVU218
	movq	(%r11), %rax	# rF$__vec1_8->D.266787._M_impl.D.266142._M_start, _161
.LVL81:
	.loc 6 1046 25 view .LVU219
.LBE2336:
.LBE2357:
.LBB2358:
.LBI2358:
	.loc 6 1043 7 is_stmt 1 view .LVU220
	.loc 6 1043 7 is_stmt 0 view .LVU221
.LBE2358:
# foo.cc:72:       vec1[nd] += vec1[c];
	.loc 5 72 16 view .LVU222
	movq	(%rax,%r14,8), %rdx	# *_163, *_163
	addq	%rdx, (%rax,%r13)	# *_163, *_166
.L28:
	.loc 5 69 5 is_stmt 1 view .LVU223
.LVL82:
	.loc 5 69 5 view .LVU224
	addq	$8, %r12	#, ivtmp.482
.LVL83:
	.loc 5 69 5 is_stmt 0 view .LVU225
	cmpq	%r12, 16(%rsp)	# ivtmp.482, %sfp
	jne	.L33	#,
	movq	8(%rsp), %rax	# %sfp, _293
.LVL84:
.L34:
	.loc 5 69 5 view .LVU226
.LBE2359:
.LBE2360:
.LBE2364:
.LBB2365:
.LBI2361:
	.loc 6 1043 7 is_stmt 1 view .LVU227
.LBB2363:
# /usr/include/c++/11/bits/stl_vector.h:1046: 	return *(this->_M_impl._M_start + __n);
	.loc 6 1046 25 is_stmt 0 view .LVU228
	movq	(%r11), %rdx	# rF$__vec1_8->D.266787._M_impl.D.266142._M_start, _141
.LVL85:
	.loc 6 1046 25 view .LVU229
.LBE2363:
.LBE2365:
.LBB2366:
.LBI2366:
	.loc 6 1043 7 is_stmt 1 view .LVU230
	.loc 6 1043 7 is_stmt 0 view .LVU231
.LBE2366:
# foo.cc:72:       vec1[nd] += vec1[c];
	.loc 5 72 16 view .LVU232
	movq	(%rdx,%rbx,8), %rcx	# *_143, *_143
	addq	%rcx, (%rdx,%rax)	# *_143, *_146
.L26:
	.loc 5 69 5 is_stmt 1 view .LVU233
.LVL86:
	.loc 5 69 5 view .LVU234
	addq	$8, 96(%rsp)	#, %sfp
.LVL87:
	.loc 5 69 5 is_stmt 0 view .LVU235
	movq	96(%rsp), %rsi	# %sfp, ivtmp.487
	cmpq	%rsi, 104(%rsp)	# ivtmp.487, %sfp
	jne	.L35	#,
	movq	%r9, %r13	# c, c
	movq	64(%rsp), %r9	# %sfp, ivtmp.492
.LVL88:
.L36:
	.loc 5 69 5 view .LVU236
.LBE2367:
.LBE2368:
.LBE2372:
.LBB2373:
.LBI2369:
	.loc 6 1043 7 is_stmt 1 view .LVU237
.LBB2371:
# /usr/include/c++/11/bits/stl_vector.h:1046: 	return *(this->_M_impl._M_start + __n);
	.loc 6 1046 25 is_stmt 0 view .LVU238
	movq	(%r11), %rax	# rF$__vec1_8->D.266787._M_impl.D.266142._M_start, _121
.LVL89:
	.loc 6 1046 25 view .LVU239
.LBE2371:
.LBE2373:
.LBB2374:
.LBI2374:
	.loc 6 1043 7 is_stmt 1 view .LVU240
	.loc 6 1043 7 is_stmt 0 view .LVU241
.LBE2374:
# foo.cc:72:       vec1[nd] += vec1[c];
	.loc 5 72 16 view .LVU242
	movq	72(%rsp), %rcx	# %sfp, _294
	movq	(%rax,%r13,8), %rdx	# *_123, *_123
	addq	%rdx, (%rax,%rcx)	# *_123, *_126
.L24:
	.loc 5 69 5 is_stmt 1 view .LVU243
.LVL90:
	.loc 5 69 5 view .LVU244
	addq	$8, %r9	#, ivtmp.492
.LVL91:
	.loc 5 69 5 is_stmt 0 view .LVU245
	cmpq	%r9, 56(%rsp)	# ivtmp.492, %sfp
	jne	.L37	#,
.L38:
.LVL92:
	.loc 5 69 5 view .LVU246
.LBE2376:
.LBE2378:
.LBE2385:
.LBB2386:
.LBI2379:
	.loc 6 1043 7 is_stmt 1 view .LVU247
.LBB2382:
# /usr/include/c++/11/bits/stl_vector.h:1046: 	return *(this->_M_impl._M_start + __n);
	.loc 6 1046 25 is_stmt 0 view .LVU248
	movq	(%r11), %rax	# rF$__vec1_8->D.266787._M_impl.D.266142._M_start, _101
.LVL93:
	.loc 6 1046 25 view .LVU249
.LBE2382:
.LBE2386:
.LBB2387:
.LBI2387:
	.loc 6 1043 7 is_stmt 1 view .LVU250
	.loc 6 1043 7 is_stmt 0 view .LVU251
.LBE2387:
# foo.cc:72:       vec1[nd] += vec1[c];
	.loc 5 72 16 view .LVU252
	movq	88(%rsp), %rbx	# %sfp, c
	movq	128(%rsp), %rsi	# %sfp, _295
	movq	(%rax,%rbx,8), %rdx	# *_103, *_103
	addq	%rdx, (%rax,%rsi)	# *_103, *_106
.L22:
	.loc 5 69 5 is_stmt 1 view .LVU253
.LVL94:
	.loc 5 69 5 view .LVU254
	addq	$8, 24(%rsp)	#, %sfp
.LVL95:
	.loc 5 69 5 is_stmt 0 view .LVU255
	movq	24(%rsp), %rax	# %sfp, ivtmp.497
	cmpq	%rax, 120(%rsp)	# ivtmp.497, %sfp
	jne	.L39	#,
	movq	%r11, %rax	# rF, rF
	.loc 5 69 5 view .LVU256
	movq	%r10, %r11	# _32, _32
	movq	%rax, %r10	# rF, rF
.LVL96:
.L40:
	.loc 5 69 5 view .LVU257
.LBE2389:
.LBE2391:
.LBE2398:
.LBB2399:
.LBI2392:
	.loc 6 1043 7 is_stmt 1 view .LVU258
.LBB2395:
# /usr/include/c++/11/bits/stl_vector.h:1046: 	return *(this->_M_impl._M_start + __n);
	.loc 6 1046 25 is_stmt 0 view .LVU259
	movq	(%r10), %rax	# rF$__vec1_8->D.266787._M_impl.D.266142._M_start, _81
.LVL97:
	.loc 6 1046 25 view .LVU260
.LBE2395:
.LBE2399:
.LBB2400:
.LBI2400:
	.loc 6 1043 7 is_stmt 1 view .LVU261
	.loc 6 1043 7 is_stmt 0 view .LVU262
.LBE2400:
# foo.cc:72:       vec1[nd] += vec1[c];
	.loc 5 72 16 view .LVU263
	movq	40(%rsp), %rsi	# %sfp, c
	movq	160(%rsp), %rcx	# %sfp, _296
	movq	(%rax,%rsi,8), %rdx	# *_83, *_83
	addq	%rdx, (%rax,%rcx)	# *_83, *_86
.L20:
	.loc 5 69 5 is_stmt 1 view .LVU264
.LVL98:
	.loc 5 69 5 view .LVU265
	addq	$8, 80(%rsp)	#, %sfp
.LVL99:
	.loc 5 69 5 is_stmt 0 view .LVU266
	movq	80(%rsp), %rax	# %sfp, ivtmp.502
	cmpq	%rax, 152(%rsp)	# ivtmp.502, %sfp
	jne	.L41	#,
.LVL100:
.L42:
	.loc 5 69 5 view .LVU267
.LBE2402:
.LBE2404:
.LBE2411:
.LBB2412:
.LBI2405:
	.loc 6 1043 7 is_stmt 1 view .LVU268
.LBB2408:
# /usr/include/c++/11/bits/stl_vector.h:1046: 	return *(this->_M_impl._M_start + __n);
	.loc 6 1046 25 is_stmt 0 view .LVU269
	movq	(%r10), %rax	# rF$__vec1_8->D.266787._M_impl.D.266142._M_start, _61
.LVL101:
	.loc 6 1046 25 view .LVU270
.LBE2408:
.LBE2412:
.LBB2413:
.LBI2413:
	.loc 6 1043 7 is_stmt 1 view .LVU271
	.loc 6 1043 7 is_stmt 0 view .LVU272
.LBE2413:
# foo.cc:72:       vec1[nd] += vec1[c];
	.loc 5 72 16 view .LVU273
	movq	112(%rsp), %rbx	# %sfp, c
	movq	200(%rsp), %rsi	# %sfp, _297
	movq	(%rax,%rbx,8), %rdx	# *_63, *_63
	addq	%rdx, (%rax,%rsi)	# *_63, *_66
.L18:
	.loc 5 69 5 is_stmt 1 view .LVU274
.LVL102:
	.loc 5 69 5 view .LVU275
	addq	$8, 136(%rsp)	#, %sfp
.LVL103:
	.loc 5 69 5 is_stmt 0 view .LVU276
	movq	136(%rsp), %rax	# %sfp, ivtmp.507
	cmpq	%rax, 184(%rsp)	# ivtmp.507, %sfp
	jne	.L43	#,
.LVL104:
.L44:
	.loc 5 69 5 view .LVU277
.LBE2415:
.LBE2417:
.LBE2424:
.LBB2425:
.LBI2418:
	.loc 6 1043 7 is_stmt 1 view .LVU278
.LBB2421:
# /usr/include/c++/11/bits/stl_vector.h:1046: 	return *(this->_M_impl._M_start + __n);
	.loc 6 1046 25 is_stmt 0 view .LVU279
	movq	(%r10), %rax	# rF$__vec1_8->D.266787._M_impl.D.266142._M_start, _41
.LVL105:
	.loc 6 1046 25 view .LVU280
.LBE2421:
.LBE2425:
.LBB2426:
.LBI2426:
	.loc 6 1043 7 is_stmt 1 view .LVU281
	.loc 6 1043 7 is_stmt 0 view .LVU282
.LBE2426:
# foo.cc:72:       vec1[nd] += vec1[c];
	.loc 5 72 16 view .LVU283
	movq	144(%rsp), %rcx	# %sfp, c
	movq	240(%rsp), %rbx	# %sfp, _298
	movq	(%rax,%rcx,8), %rdx	# *_43, *_43
	addq	%rdx, (%rax,%rbx)	# *_43, *_46
.L16:
	.loc 5 69 5 is_stmt 1 view .LVU284
.LVL106:
	.loc 5 69 5 view .LVU285
	addq	$8, 168(%rsp)	#, %sfp
.LVL107:
	.loc 5 69 5 is_stmt 0 view .LVU286
	movq	168(%rsp), %rax	# %sfp, ivtmp.512
	cmpq	%rax, 208(%rsp)	# ivtmp.512, %sfp
	jne	.L45	#,
	movq	%r10, %r11	# rF, rF
.LVL108:
.L46:
	.loc 5 69 5 view .LVU287
.LBE2427:
.LBE2428:
.LBE2433:
.LBB2434:
.LBI2429:
	.loc 6 1043 7 is_stmt 1 view .LVU288
.LBB2431:
# /usr/include/c++/11/bits/stl_vector.h:1046: 	return *(this->_M_impl._M_start + __n);
	.loc 6 1046 25 is_stmt 0 view .LVU289
	movq	248(%rsp), %rax	# %sfp, __closure
.LBE2431:
.LBE2434:
# foo.cc:72:       vec1[nd] += vec1[c];
	.loc 5 72 16 view .LVU290
	movq	176(%rsp), %rbx	# %sfp, c
	movq	232(%rsp), %rcx	# %sfp, _23
.LBB2435:
.LBB2432:
# /usr/include/c++/11/bits/stl_vector.h:1046: 	return *(this->_M_impl._M_start + __n);
	.loc 6 1046 25 view .LVU291
	movq	8(%rax), %rax	# __closure_10(D)->__vec1, __closure_10(D)->__vec1
	movq	(%rax), %rax	# _3->D.266787._M_impl.D.266142._M_start, _25
.LVL109:
	.loc 6 1046 25 view .LVU292
.LBE2432:
.LBE2435:
.LBB2436:
.LBI2233:
	.loc 6 1043 7 is_stmt 1 view .LVU293
	.loc 6 1043 7 is_stmt 0 view .LVU294
.LBE2436:
# foo.cc:72:       vec1[nd] += vec1[c];
	.loc 5 72 16 view .LVU295
	movq	(%rax,%rbx,8), %rdx	# *_27, *_27
	addq	%rdx, (%rax,%rcx)	# *_27, *_24
.LVL110:
.L14:
	.loc 5 69 5 is_stmt 1 discriminator 2 view .LVU296
	.loc 5 69 5 discriminator 2 view .LVU297
	addq	$8, 192(%rsp)	#, %sfp
.LVL111:
	.loc 5 69 5 is_stmt 0 discriminator 2 view .LVU298
	movq	192(%rsp), %rax	# %sfp, ivtmp.517
	cmpq	%rax, 224(%rsp)	# ivtmp.517, %sfp
	jne	.L47	#,
.LVL112:
.L12:
	.loc 5 69 5 discriminator 2 view .LVU299
.LBE2437:
# foo.cc:74:   };
	.loc 5 74 3 view .LVU300
	movq	328(%rsp), %rax	# D.300955, tmp313
	subq	%fs:40, %rax	# MEM[(<address-space-1> long unsigned int *)40B], tmp313
	jne	.L77	#,
	addq	$344, %rsp	#,
	.cfi_remember_state
	.cfi_def_cfa_offset 56
	popq	%rbx	#
	.cfi_def_cfa_offset 48
	popq	%rbp	#
	.cfi_def_cfa_offset 40
	popq	%r12	#
	.cfi_def_cfa_offset 32
	popq	%r13	#
	.cfi_def_cfa_offset 24
	popq	%r14	#
	.cfi_def_cfa_offset 16
	popq	%r15	#
	.cfi_def_cfa_offset 8
	ret	
.L77:
	.cfi_restore_state
	call	__stack_chk_fail@PLT	#
.LVL113:
	.loc 5 74 3 view .LVU301
	.cfi_endproc
.LFE12826:
	.size	_ZZ4mainENKUlT_xxE_clIS0_EEvS_xx, .-_ZZ4mainENKUlT_xxE_clIS0_EEvS_xx
	.section	.text._ZNSt13random_deviceC2Ev,"axG",@progbits,_ZNSt13random_deviceC5Ev,comdat
	.align 2
	.p2align 4
	.weak	_ZNSt13random_deviceC2Ev
	.type	_ZNSt13random_deviceC2Ev, @function
_ZNSt13random_deviceC2Ev:
.LVL114:
.LFB9400:
	.loc 2 1618 5 is_stmt 1 view -0
	.cfi_startproc
	.cfi_personality 0x9b,DW.ref.__gxx_personality_v0
	.cfi_lsda 0x1b,.LLSDA9400
	.loc 2 1618 5 is_stmt 0 view .LVU303
	endbr64	
	pushq	%rbp	#
	.cfi_def_cfa_offset 16
	.cfi_offset 6, -16
	pushq	%rbx	#
	.cfi_def_cfa_offset 24
	.cfi_offset 3, -24
	subq	$56, %rsp	#,
	.cfi_def_cfa_offset 80
# /usr/include/c++/11/bits/random.h:1618:     random_device() { _M_init("default"); }
	.loc 2 1618 5 view .LVU304
	movq	%fs:40, %rax	# MEM[(<address-space-1> long unsigned int *)40B], tmp109
	movq	%rax, 40(%rsp)	# tmp109, D.301107
	xorl	%eax, %eax	# tmp109
.LBB2559:
	.loc 2 1618 23 is_stmt 1 view .LVU305
.LVL115:
.LBB2560:
.LBI2560:
	.file 8 "/usr/include/c++/11/bits/allocator.h"
	.loc 8 156 7 view .LVU306
.LBB2561:
.LBI2561:
	.file 9 "/usr/include/c++/11/ext/new_allocator.h"
	.loc 9 79 7 view .LVU307
	.loc 9 79 7 is_stmt 0 view .LVU308
.LBE2561:
.LBE2560:
.LBB2562:
.LBI2562:
	.file 10 "/usr/include/c++/11/bits/basic_string.h"
	.loc 10 533 7 is_stmt 1 view .LVU309
.LBB2563:
.LBB2564:
.LBI2564:
	.loc 10 198 7 view .LVU310
	.loc 10 198 7 is_stmt 0 view .LVU311
.LBE2564:
.LBB2565:
.LBI2565:
	.loc 10 164 2 is_stmt 1 view .LVU312
.LBB2566:
.LBB2567:
.LBB2568:
.LBI2568:
	.loc 8 159 7 view .LVU313
.LBB2569:
.LBI2569:
	.loc 9 82 7 view .LVU314
	.loc 9 82 7 is_stmt 0 view .LVU315
.LBE2569:
.LBE2568:
# /usr/include/c++/11/bits/basic_string.h:165: 	: allocator_type(__a), _M_p(__dat) { }
	.loc 10 165 25 view .LVU316
	leaq	16(%rsp), %rbx	#, tmp106
.LVL116:
	.loc 10 165 25 view .LVU317
.LBE2567:
.LBE2566:
.LBE2565:
.LBB2572:
.LBB2573:
.LBB2574:
.LBB2575:
.LBB2576:
.LBB2577:
.LBB2578:
.LBB2579:
# /usr/include/c++/11/bits/char_traits.h:437: 	return static_cast<char_type*>(__builtin_memcpy(__s1, __s2, __n));
	.file 11 "/usr/include/c++/11/bits/char_traits.h"
	.loc 11 437 49 view .LVU318
	movl	$27765, %eax	#,
.LBE2579:
.LBE2578:
.LBE2577:
.LBE2576:
.LBE2575:
.LBE2574:
.LBE2573:
.LBE2572:
.LBB2593:
.LBB2571:
.LBB2570:
# /usr/include/c++/11/bits/basic_string.h:165: 	: allocator_type(__a), _M_p(__dat) { }
	.loc 10 165 25 view .LVU319
	movq	%rsp, %rsi	#, tmp91
.LVL117:
	.loc 10 165 25 view .LVU320
	movq	%rbx, (%rsp)	# tmp106, MEM[(struct _Alloc_hider *)&D.201845]._M_p
.LVL118:
	.loc 10 165 25 view .LVU321
.LBE2570:
.LBE2571:
.LBE2593:
.LBB2594:
.LBB2591:
.LBI2591:
	.loc 11 393 7 is_stmt 1 view .LVU322
	.loc 11 396 2 view .LVU323
	.loc 11 399 2 view .LVU324
	.loc 11 399 2 is_stmt 0 view .LVU325
.LBE2591:
.LBB2592:
.LBI2573:
	.file 12 "/usr/include/c++/11/bits/basic_string.tcc"
	.loc 12 206 7 is_stmt 1 view .LVU326
.LBB2590:
.LBB2584:
.LBI2575:
	.loc 10 404 7 view .LVU327
.LBB2583:
.LBI2576:
	.loc 10 354 7 view .LVU328
.LBB2582:
.LBI2577:
	.loc 10 354 7 view .LVU329
.LBB2581:
.LBI2578:
	.loc 11 429 7 view .LVU330
.LBB2580:
	.loc 11 431 2 view .LVU331
	.loc 11 434 2 view .LVU332
	.loc 11 437 2 view .LVU333
# /usr/include/c++/11/bits/char_traits.h:437: 	return static_cast<char_type*>(__builtin_memcpy(__s1, __s2, __n));
	.loc 11 437 49 is_stmt 0 view .LVU334
	movl	$1634100580, 16(%rsp)	#, MEM <char[1:7]> [(void *)&D.201845 + 16B]
	movw	%ax, 20(%rsp)	#, MEM <char[1:7]> [(void *)&D.201845 + 16B]
	movb	$116, 22(%rsp)	#, MEM <char[1:7]> [(void *)&D.201845 + 16B]
.LVL119:
	.loc 11 437 49 view .LVU335
.LBE2580:
.LBE2581:
.LBE2582:
.LBE2583:
.LBE2584:
.LBB2585:
.LBI2585:
	.loc 10 222 7 is_stmt 1 view .LVU336
.LBB2586:
.LBI2586:
	.loc 10 190 7 view .LVU337
.LBB2587:
# /usr/include/c++/11/bits/basic_string.h:191:       { _M_string_length = __length; }
	.loc 10 191 26 is_stmt 0 view .LVU338
	movq	$7, 8(%rsp)	#, D.201845._M_string_length
.LVL120:
	.loc 10 191 26 view .LVU339
.LBE2587:
.LBE2586:
.LBB2588:
.LBI2588:
	.loc 11 356 7 is_stmt 1 view .LVU340
.LBB2589:
	.loc 11 357 9 view .LVU341
# /usr/include/c++/11/bits/char_traits.h:357:       { __c1 = __c2; }
	.loc 11 357 14 is_stmt 0 view .LVU342
	movb	$0, 23(%rsp)	#, MEM[(char_type &)&D.201845 + 23]
.LVL121:
.LEHB0:
	.loc 11 357 14 view .LVU343
.LBE2589:
.LBE2588:
.LBE2585:
.LBE2590:
.LBE2592:
.LBE2594:
.LBE2563:
.LBE2562:
# /usr/include/c++/11/bits/random.h:1618:     random_device() { _M_init("default"); }
	.loc 2 1618 30 view .LVU344
	call	_ZNSt13random_device7_M_initERKNSt7__cxx1112basic_stringIcSt11char_traitsIcESaIcEEE@PLT	#
.LVL122:
.LEHE0:
.LBB2595:
.LBI2595:
	.loc 10 671 7 is_stmt 1 view .LVU345
.LBB2596:
.LBB2597:
.LBI2597:
	.loc 10 237 7 view .LVU346
.LBB2598:
.LBB2599:
.LBI2599:
	.loc 10 229 7 view .LVU347
.LBB2600:
.LBI2600:
	.loc 10 194 7 view .LVU348
.LBB2601:
# /usr/include/c++/11/bits/basic_string.h:195:       { return _M_dataplus._M_p; }
	.loc 10 195 28 is_stmt 0 view .LVU349
	movq	(%rsp), %rdi	# D.201845._M_dataplus._M_p, _41
.LVL123:
	.loc 10 195 28 view .LVU350
.LBE2601:
.LBE2600:
.LBB2602:
.LBI2602:
	.loc 10 208 7 is_stmt 1 view .LVU351
	.loc 10 208 7 is_stmt 0 view .LVU352
.LBE2602:
.LBE2599:
# /usr/include/c++/11/bits/basic_string.h:239: 	if (!_M_is_local())
	.loc 10 239 2 view .LVU353
	cmpq	%rbx, %rdi	# tmp106, _41
	je	.L78	#,
.LVL124:
.LBB2603:
.LBI2603:
	.loc 10 244 7 is_stmt 1 view .LVU354
.LBB2604:
.LBB2605:
.LBI2605:
	.file 13 "/usr/include/c++/11/bits/alloc_traits.h"
	.loc 13 495 7 view .LVU355
.LBB2606:
.LBI2606:
	.loc 8 190 7 view .LVU356
.LBB2607:
.LBI2607:
	.loc 9 132 7 view .LVU357
	.loc 9 132 7 is_stmt 0 view .LVU358
.LBE2607:
.LBE2606:
.LBE2605:
# /usr/include/c++/11/bits/basic_string.h:245:       { _Alloc_traits::deallocate(_M_get_allocator(), _M_data(), __size + 1); }
	.loc 10 245 34 view .LVU359
	movq	16(%rsp), %rax	# D.201845.D.51051._M_allocated_capacity, tmp112
	leaq	1(%rax), %rsi	#, tmp98
.LVL125:
.LBB2611:
.LBB2610:
.LBB2609:
.LBB2608:
# /usr/include/c++/11/ext/new_allocator.h:145: 	::operator delete(__p
	.loc 9 145 19 view .LVU360
	call	_ZdlPvm@PLT	#
.LVL126:
	.loc 9 145 19 view .LVU361
.LBE2608:
.LBE2609:
.LBE2610:
.LBE2611:
.LBE2604:
.LBE2603:
.LBE2598:
.LBE2597:
.LBB2612:
.LBI2612:
	.loc 10 158 14 is_stmt 1 view .LVU362
.LBB2613:
.LBI2613:
	.loc 8 174 7 view .LVU363
	.loc 8 174 7 is_stmt 0 view .LVU364
.LBE2613:
.LBE2612:
.LBE2596:
.LBE2595:
.LBB2614:
.LBI2614:
	.loc 8 174 7 is_stmt 1 view .LVU365
.L78:
	.loc 8 174 7 is_stmt 0 view .LVU366
.LBE2614:
.LBE2559:
# /usr/include/c++/11/bits/random.h:1618:     random_device() { _M_init("default"); }
	.loc 2 1618 43 view .LVU367
	movq	40(%rsp), %rax	# D.301107, tmp110
	subq	%fs:40, %rax	# MEM[(<address-space-1> long unsigned int *)40B], tmp110
	jne	.L85	#,
	addq	$56, %rsp	#,
	.cfi_remember_state
	.cfi_def_cfa_offset 24
	popq	%rbx	#
	.cfi_def_cfa_offset 16
	popq	%rbp	#
	.cfi_def_cfa_offset 8
	ret	
.L85:
	.cfi_restore_state
	call	__stack_chk_fail@PLT	#
.LVL127:
.L83:
	endbr64	
.LBB2640:
.LBB2615:
.LBB2616:
.LBB2617:
.LBB2618:
.LBB2619:
.LBB2620:
.LBB2621:
# /usr/include/c++/11/bits/basic_string.h:195:       { return _M_dataplus._M_p; }
	.loc 10 195 28 view .LVU368
	movq	%rax, %rbp	# tmp108, tmp104
.L80:
.LVL128:
	.loc 10 195 28 view .LVU369
.LBE2621:
.LBE2620:
.LBE2619:
.LBE2618:
.LBE2617:
.LBE2616:
.LBI2615:
	.loc 10 671 7 is_stmt 1 discriminator 3 view .LVU370
.LBB2639:
.LBB2636:
.LBI2617:
	.loc 10 237 7 discriminator 3 view .LVU371
.LBB2635:
.LBB2625:
.LBI2619:
	.loc 10 229 7 discriminator 3 view .LVU372
.LBB2623:
.LBI2620:
	.loc 10 194 7 discriminator 3 view .LVU373
.LBB2622:
# /usr/include/c++/11/bits/basic_string.h:195:       { return _M_dataplus._M_p; }
	.loc 10 195 28 is_stmt 0 discriminator 3 view .LVU374
	movq	(%rsp), %rdi	# D.201845._M_dataplus._M_p, _46
.LVL129:
	.loc 10 195 28 discriminator 3 view .LVU375
.LBE2622:
.LBE2623:
.LBB2624:
.LBI2624:
	.loc 10 208 7 is_stmt 1 discriminator 3 view .LVU376
	.loc 10 208 7 is_stmt 0 discriminator 3 view .LVU377
.LBE2624:
.LBE2625:
# /usr/include/c++/11/bits/basic_string.h:239: 	if (!_M_is_local())
	.loc 10 239 2 discriminator 3 view .LVU378
	cmpq	%rbx, %rdi	# tmp106, _46
	je	.L81	#,
.LVL130:
.LBB2626:
.LBI2626:
	.loc 10 244 7 is_stmt 1 view .LVU379
.LBB2627:
.LBB2628:
.LBI2628:
	.loc 13 495 7 view .LVU380
.LBB2629:
.LBI2629:
	.loc 8 190 7 view .LVU381
.LBB2630:
.LBI2630:
	.loc 9 132 7 view .LVU382
	.loc 9 132 7 is_stmt 0 view .LVU383
.LBE2630:
.LBE2629:
.LBE2628:
# /usr/include/c++/11/bits/basic_string.h:245:       { _Alloc_traits::deallocate(_M_get_allocator(), _M_data(), __size + 1); }
	.loc 10 245 34 view .LVU384
	movq	16(%rsp), %rax	# D.201845.D.51051._M_allocated_capacity, tmp113
	leaq	1(%rax), %rsi	#, tmp102
.LVL131:
.LBB2634:
.LBB2633:
.LBB2632:
.LBB2631:
# /usr/include/c++/11/ext/new_allocator.h:145: 	::operator delete(__p
	.loc 9 145 19 view .LVU385
	call	_ZdlPvm@PLT	#
.LVL132:
.L81:
	.loc 9 145 19 view .LVU386
.LBE2631:
.LBE2632:
.LBE2633:
.LBE2634:
.LBE2627:
.LBE2626:
.LBE2635:
.LBE2636:
.LBB2637:
.LBI2637:
	.loc 10 158 14 is_stmt 1 view .LVU387
.LBB2638:
.LBI2638:
	.loc 8 174 7 view .LVU388
	.loc 8 174 7 is_stmt 0 view .LVU389
	movq	%rbp, %rdi	# tmp104,
.LEHB1:
	call	_Unwind_Resume@PLT	#
.LVL133:
.LEHE1:
.LBE2638:
.LBE2637:
.LBE2639:
.LBE2615:
.LBE2640:
	.cfi_endproc
.LFE9400:
	.section	.gcc_except_table._ZNSt13random_deviceC2Ev,"aG",@progbits,_ZNSt13random_deviceC5Ev,comdat
.LLSDA9400:
	.byte	0xff
	.byte	0xff
	.byte	0x1
	.uleb128 .LLSDACSE9400-.LLSDACSB9400
.LLSDACSB9400:
	.uleb128 .LEHB0-.LFB9400
	.uleb128 .LEHE0-.LEHB0
	.uleb128 .L83-.LFB9400
	.uleb128 0
	.uleb128 .LEHB1-.LFB9400
	.uleb128 .LEHE1-.LEHB1
	.uleb128 0
	.uleb128 0
.LLSDACSE9400:
	.section	.text._ZNSt13random_deviceC2Ev,"axG",@progbits,_ZNSt13random_deviceC5Ev,comdat
	.size	_ZNSt13random_deviceC2Ev, .-_ZNSt13random_deviceC2Ev
	.weak	_ZNSt13random_deviceC1Ev
	.set	_ZNSt13random_deviceC1Ev,_ZNSt13random_deviceC2Ev
	.text
	.p2align 4
	.globl	_Z12get_time_secv
	.type	_Z12get_time_secv, @function
_Z12get_time_secv:
.LFB11914:
	.loc 5 21 23 is_stmt 1 view -0
	.cfi_startproc
	endbr64	
	.loc 5 22 3 view .LVU391
	.loc 5 23 3 view .LVU392
# foo.cc:21: double get_time_sec() {
	.loc 5 21 23 is_stmt 0 view .LVU393
	subq	$8, %rsp	#,
	.cfi_def_cfa_offset 16
# foo.cc:23:   return static_cast<double>(duration_cast<nanoseconds>(steady_clock::now().time_since_epoch()).count())/1000000000;
	.loc 5 23 74 view .LVU394
	call	_ZNSt6chrono3_V212steady_clock3nowEv@PLT	#
.LVL134:
.LBB2641:
.LBI2641:
	.file 14 "/usr/include/c++/11/chrono"
	.loc 14 898 2 is_stmt 1 view .LVU395
	.loc 14 898 2 is_stmt 0 view .LVU396
.LBE2641:
.LBB2642:
.LBI2642:
	.loc 14 267 7 is_stmt 1 view .LVU397
.LBB2643:
.LBB2644:
.LBI2644:
	.loc 14 211 4 view .LVU398
.LBB2645:
.LBB2646:
.LBI2646:
	.loc 14 521 23 view .LVU399
	.loc 14 521 23 is_stmt 0 view .LVU400
.LBE2646:
.LBE2645:
.LBE2644:
.LBE2643:
.LBE2642:
# foo.cc:23:   return static_cast<double>(duration_cast<nanoseconds>(steady_clock::now().time_since_epoch()).count())/1000000000;
	.loc 5 23 10 view .LVU401
	pxor	%xmm0, %xmm0	# tmp86
	cvtsi2sdq	%rax, %xmm0	# tmp89, tmp86
# foo.cc:23:   return static_cast<double>(duration_cast<nanoseconds>(steady_clock::now().time_since_epoch()).count())/1000000000;
	.loc 5 23 106 view .LVU402
	divsd	.LC0(%rip), %xmm0	#, <retval>
# foo.cc:24: }
	.loc 5 24 1 view .LVU403
	addq	$8, %rsp	#,
	.cfi_def_cfa_offset 8
	ret	
	.cfi_endproc
.LFE11914:
	.size	_Z12get_time_secv, .-_Z12get_time_secv
	.section	.text._ZNSt6vectorIS_IxSaIxEESaIS1_EED2Ev,"axG",@progbits,_ZNSt6vectorIS_IxSaIxEESaIS1_EED5Ev,comdat
	.align 2
	.p2align 4
	.weak	_ZNSt6vectorIS_IxSaIxEESaIS1_EED2Ev
	.type	_ZNSt6vectorIS_IxSaIxEESaIS1_EED2Ev, @function
_ZNSt6vectorIS_IxSaIxEESaIS1_EED2Ev:
.LVL135:
.LFB12757:
	.loc 6 678 7 is_stmt 1 view -0
	.cfi_startproc
	.loc 6 678 7 is_stmt 0 view .LVU405
	endbr64	
.LVL136:
.LBB2692:
.LBB2693:
.LBI2693:
	.loc 6 276 7 is_stmt 1 view .LVU406
	.loc 6 276 7 is_stmt 0 view .LVU407
.LBE2693:
.LBE2692:
# /usr/include/c++/11/bits/stl_vector.h:678:       ~vector() _GLIBCXX_NOEXCEPT
	.loc 6 678 7 view .LVU408
	pushq	%r12	#
	.cfi_def_cfa_offset 16
	.cfi_offset 12, -16
	movq	%rdi, %r12	# tmp96, this
	pushq	%rbp	#
	.cfi_def_cfa_offset 24
	.cfi_offset 6, -24
	pushq	%rbx	#
	.cfi_def_cfa_offset 32
	.cfi_offset 3, -32
.LBB2743:
# /usr/include/c++/11/bits/stl_vector.h:680: 	std::_Destroy(this->_M_impl._M_start, this->_M_impl._M_finish,
	.loc 6 680 15 view .LVU409
	movq	8(%rdi), %rbx	# this_4(D)->D.265739._M_impl.D.265084._M_finish, _1
	movq	(%rdi), %rbp	# this_4(D)->D.265739._M_impl.D.265084._M_start, __first
.LVL137:
.LBB2694:
.LBI2694:
	.loc 13 845 5 is_stmt 1 view .LVU410
.LBB2695:
.LBB2696:
.LBB2697:
.LBB2698:
	.file 15 "/usr/include/c++/11/bits/stl_construct.h"
	.loc 15 162 19 view .LVU411
	cmpq	%rbp, %rbx	# __first, _1
	je	.L89	#,
.LVL138:
	.p2align 4,,10
	.p2align 3
.L91:
.LBB2699:
.LBI2699:
	.loc 15 146 5 view .LVU412
.LBB2700:
.LBI2700:
	.loc 15 80 5 view .LVU413
.LBB2701:
.LBI2701:
	.loc 6 678 7 view .LVU414
.LBB2702:
.LBI2702:
	.loc 6 276 7 view .LVU415
	.loc 6 276 7 is_stmt 0 view .LVU416
.LBE2702:
.LBB2703:
.LBI2703:
	.loc 13 845 5 is_stmt 1 view .LVU417
	.loc 13 845 5 is_stmt 0 view .LVU418
.LBE2703:
.LBB2704:
.LBI2704:
	.loc 6 333 7 is_stmt 1 view .LVU419
.LBB2705:
# /usr/include/c++/11/bits/stl_vector.h:336: 		      _M_impl._M_end_of_storage - _M_impl._M_start);
	.loc 6 336 45 is_stmt 0 view .LVU420
	movq	0(%rbp), %rdi	# MEM[(long long int * *)__first_25], _15
.LVL139:
.LBB2706:
.LBI2706:
	.loc 6 350 7 is_stmt 1 view .LVU421
.LBB2707:
# /usr/include/c++/11/bits/stl_vector.h:353: 	if (__p)
	.loc 6 353 2 is_stmt 0 view .LVU422
	testq	%rdi, %rdi	# _15
	je	.L90	#,
.LVL140:
.LBB2708:
.LBI2708:
	.loc 13 495 7 is_stmt 1 view .LVU423
.LBB2709:
.LBI2709:
	.loc 8 190 7 view .LVU424
.LBB2710:
.LBI2710:
	.loc 9 132 7 view .LVU425
	.loc 9 132 7 is_stmt 0 view .LVU426
.LBE2710:
.LBE2709:
.LBE2708:
.LBE2707:
.LBE2706:
# /usr/include/c++/11/bits/stl_vector.h:336: 		      _M_impl._M_end_of_storage - _M_impl._M_start);
	.loc 6 336 35 view .LVU427
	movq	16(%rbp), %rsi	# MEM[(long long int * *)__first_25 + 16B], tmp92
	subq	%rdi, %rsi	# _15, tmp92
.LBB2716:
.LBB2715:
.LBB2714:
.LBB2713:
.LBB2712:
.LBB2711:
# /usr/include/c++/11/ext/new_allocator.h:145: 	::operator delete(__p
	.loc 9 145 19 view .LVU428
	call	_ZdlPvm@PLT	#
.LVL141:
.L90:
	.loc 9 145 19 view .LVU429
.LBE2711:
.LBE2712:
.LBE2713:
.LBE2714:
.LBE2715:
.LBE2716:
.LBB2717:
.LBI2717:
	.loc 6 128 14 is_stmt 1 view .LVU430
.LBB2718:
.LBI2718:
	.loc 8 174 7 view .LVU431
	.loc 8 174 7 is_stmt 0 view .LVU432
.LBE2718:
.LBE2717:
.LBE2705:
.LBE2704:
.LBE2701:
.LBE2700:
.LBE2699:
	.loc 15 162 4 is_stmt 1 view .LVU433
	addq	$24, %rbp	#, __first
.LVL142:
	.loc 15 162 19 view .LVU434
	cmpq	%rbp, %rbx	# __first, _1
	jne	.L91	#,
.LBE2698:
.LBE2697:
.LBE2696:
.LBE2695:
.LBE2694:
.LBB2719:
.LBB2720:
# /usr/include/c++/11/bits/stl_vector.h:336: 		      _M_impl._M_end_of_storage - _M_impl._M_start);
	.loc 6 336 45 is_stmt 0 view .LVU435
	movq	(%r12), %rbp	# MEM[(struct _Vector_base *)this_4(D)]._M_impl.D.265084._M_start, __first
.LVL143:
.L89:
	.loc 6 336 45 view .LVU436
.LBE2720:
.LBI2719:
	.loc 6 333 7 is_stmt 1 view .LVU437
.LBB2738:
.LBB2721:
.LBI2721:
	.loc 6 350 7 view .LVU438
.LBB2722:
# /usr/include/c++/11/bits/stl_vector.h:353: 	if (__p)
	.loc 6 353 2 is_stmt 0 view .LVU439
	testq	%rbp, %rbp	# __first
	je	.L88	#,
.LVL144:
.LBB2723:
.LBI2723:
	.loc 13 495 7 is_stmt 1 view .LVU440
.LBB2724:
.LBI2724:
	.loc 8 190 7 view .LVU441
.LBB2725:
.LBI2725:
	.loc 9 132 7 view .LVU442
	.loc 9 132 7 is_stmt 0 view .LVU443
.LBE2725:
.LBE2724:
.LBE2723:
.LBE2722:
.LBE2721:
# /usr/include/c++/11/bits/stl_vector.h:336: 		      _M_impl._M_end_of_storage - _M_impl._M_start);
	.loc 6 336 35 view .LVU444
	movq	16(%r12), %rsi	# MEM[(struct _Vector_base *)this_4(D)]._M_impl.D.265084._M_end_of_storage, MEM[(struct _Vector_base *)this_4(D)]._M_impl.D.265084._M_end_of_storage
.LBE2738:
.LBE2719:
.LBE2743:
# /usr/include/c++/11/bits/stl_vector.h:683:       }
	.loc 6 683 7 view .LVU445
	popq	%rbx	#
	.cfi_remember_state
	.cfi_def_cfa_offset 24
.LBB2744:
.LBB2741:
.LBB2739:
.LBB2736:
.LBB2734:
.LBB2732:
.LBB2730:
.LBB2728:
.LBB2726:
# /usr/include/c++/11/ext/new_allocator.h:145: 	::operator delete(__p
	.loc 9 145 19 view .LVU446
	movq	%rbp, %rdi	# __first,
.LBE2726:
.LBE2728:
.LBE2730:
.LBE2732:
.LBE2734:
.LBE2736:
# /usr/include/c++/11/bits/stl_vector.h:336: 		      _M_impl._M_end_of_storage - _M_impl._M_start);
	.loc 6 336 35 view .LVU447
	subq	%rbp, %rsi	# __first, tmp94
.LBE2739:
.LBE2741:
.LBE2744:
# /usr/include/c++/11/bits/stl_vector.h:683:       }
	.loc 6 683 7 view .LVU448
	popq	%rbp	#
	.cfi_def_cfa_offset 16
.LVL145:
	.loc 6 683 7 view .LVU449
	popq	%r12	#
	.cfi_def_cfa_offset 8
.LVL146:
.LBB2745:
.LBB2742:
.LBB2740:
.LBB2737:
.LBB2735:
.LBB2733:
.LBB2731:
.LBB2729:
.LBB2727:
# /usr/include/c++/11/ext/new_allocator.h:145: 	::operator delete(__p
	.loc 9 145 19 view .LVU450
	jmp	_ZdlPvm@PLT	#
.LVL147:
	.p2align 4,,10
	.p2align 3
.L88:
	.cfi_restore_state
	.loc 9 145 19 view .LVU451
.LBE2727:
.LBE2729:
.LBE2731:
.LBE2733:
.LBE2735:
.LBE2737:
.LBE2740:
.LBE2742:
.LBE2745:
# /usr/include/c++/11/bits/stl_vector.h:683:       }
	.loc 6 683 7 view .LVU452
	popq	%rbx	#
	.cfi_def_cfa_offset 24
	popq	%rbp	#
	.cfi_def_cfa_offset 16
.LVL148:
	.loc 6 683 7 view .LVU453
	popq	%r12	#
	.cfi_def_cfa_offset 8
.LVL149:
	.loc 6 683 7 view .LVU454
	ret	
	.cfi_endproc
.LFE12757:
	.size	_ZNSt6vectorIS_IxSaIxEESaIS1_EED2Ev, .-_ZNSt6vectorIS_IxSaIxEESaIS1_EED2Ev
	.weak	_ZNSt6vectorIS_IxSaIxEESaIS1_EED1Ev
	.set	_ZNSt6vectorIS_IxSaIxEESaIS1_EED1Ev,_ZNSt6vectorIS_IxSaIxEESaIS1_EED2Ev
	.section	.text._ZNSt12_Vector_baseISt5tupleIJxxxEESaIS1_EED2Ev,"axG",@progbits,_ZNSt12_Vector_baseISt5tupleIJxxxEESaIS1_EED5Ev,comdat
	.align 2
	.p2align 4
	.weak	_ZNSt12_Vector_baseISt5tupleIJxxxEESaIS1_EED2Ev
	.type	_ZNSt12_Vector_baseISt5tupleIJxxxEESaIS1_EED2Ev, @function
_ZNSt12_Vector_baseISt5tupleIJxxxEESaIS1_EED2Ev:
.LVL150:
.LFB12790:
	.loc 6 333 7 is_stmt 1 view -0
	.cfi_startproc
	.loc 6 333 7 is_stmt 0 view .LVU456
	endbr64	
.LBB2757:
# /usr/include/c++/11/bits/stl_vector.h:336: 		      _M_impl._M_end_of_storage - _M_impl._M_start);
	.loc 6 336 45 view .LVU457
	movq	(%rdi), %r8	# this_7(D)->_M_impl.D.267267._M_start, _2
.LVL151:
.LBB2758:
.LBI2758:
	.loc 6 350 7 is_stmt 1 view .LVU458
.LBB2759:
# /usr/include/c++/11/bits/stl_vector.h:353: 	if (__p)
	.loc 6 353 2 is_stmt 0 view .LVU459
	testq	%r8, %r8	# _2
	je	.L98	#,
.LVL152:
.LBB2760:
.LBI2760:
	.loc 13 495 7 is_stmt 1 view .LVU460
.LBB2761:
.LBI2761:
	.loc 8 190 7 view .LVU461
.LBB2762:
.LBI2762:
	.loc 9 132 7 view .LVU462
	.loc 9 132 7 is_stmt 0 view .LVU463
.LBE2762:
.LBE2761:
.LBE2760:
.LBE2759:
.LBE2758:
# /usr/include/c++/11/bits/stl_vector.h:336: 		      _M_impl._M_end_of_storage - _M_impl._M_start);
	.loc 6 336 35 view .LVU464
	movq	16(%rdi), %rsi	# this_7(D)->_M_impl.D.267267._M_end_of_storage, this_7(D)->_M_impl.D.267267._M_end_of_storage
.LBB2773:
.LBB2771:
.LBB2769:
.LBB2767:
.LBB2765:
.LBB2763:
# /usr/include/c++/11/ext/new_allocator.h:145: 	::operator delete(__p
	.loc 9 145 19 view .LVU465
	movq	%r8, %rdi	# _2,
.LVL153:
	.loc 9 145 19 view .LVU466
.LBE2763:
.LBE2765:
.LBE2767:
.LBE2769:
.LBE2771:
.LBE2773:
# /usr/include/c++/11/bits/stl_vector.h:336: 		      _M_impl._M_end_of_storage - _M_impl._M_start);
	.loc 6 336 35 view .LVU467
	subq	%r8, %rsi	# _2, tmp87
.LVL154:
.LBB2774:
.LBB2772:
.LBB2770:
.LBB2768:
.LBB2766:
.LBB2764:
# /usr/include/c++/11/ext/new_allocator.h:145: 	::operator delete(__p
	.loc 9 145 19 view .LVU468
	jmp	_ZdlPvm@PLT	#
.LVL155:
	.p2align 4,,10
	.p2align 3
.L98:
	.loc 9 145 19 view .LVU469
.LBE2764:
.LBE2766:
.LBE2768:
.LBE2770:
.LBE2772:
.LBE2774:
.LBE2757:
# /usr/include/c++/11/bits/stl_vector.h:337:       }
	.loc 6 337 7 view .LVU470
	ret	
	.cfi_endproc
.LFE12790:
	.size	_ZNSt12_Vector_baseISt5tupleIJxxxEESaIS1_EED2Ev, .-_ZNSt12_Vector_baseISt5tupleIJxxxEESaIS1_EED2Ev
	.weak	_ZNSt12_Vector_baseISt5tupleIJxxxEESaIS1_EED1Ev
	.set	_ZNSt12_Vector_baseISt5tupleIJxxxEESaIS1_EED1Ev,_ZNSt12_Vector_baseISt5tupleIJxxxEESaIS1_EED2Ev
	.section	.rodata._ZNSt6vectorIxSaIxEE17_M_realloc_insertIJRKxEEEvN9__gnu_cxx17__normal_iteratorIPxS1_EEDpOT_.str1.1,"aMS",@progbits,1
.LC1:
	.string	"vector::_M_realloc_insert"
	.section	.text._ZNSt6vectorIxSaIxEE17_M_realloc_insertIJRKxEEEvN9__gnu_cxx17__normal_iteratorIPxS1_EEDpOT_,"axG",@progbits,_ZNSt6vectorIxSaIxEE17_M_realloc_insertIJRKxEEEvN9__gnu_cxx17__normal_iteratorIPxS1_EEDpOT_,comdat
	.align 2
	.p2align 4
	.weak	_ZNSt6vectorIxSaIxEE17_M_realloc_insertIJRKxEEEvN9__gnu_cxx17__normal_iteratorIPxS1_EEDpOT_
	.type	_ZNSt6vectorIxSaIxEE17_M_realloc_insertIJRKxEEEvN9__gnu_cxx17__normal_iteratorIPxS1_EEDpOT_, @function
_ZNSt6vectorIxSaIxEE17_M_realloc_insertIJRKxEEEvN9__gnu_cxx17__normal_iteratorIPxS1_EEDpOT_:
.LVL156:
.LFB13249:
	.file 16 "/usr/include/c++/11/bits/vector.tcc"
	.loc 16 426 7 is_stmt 1 view -0
	.cfi_startproc
	.loc 16 426 7 is_stmt 0 view .LVU472
	endbr64	
	pushq	%r15	#
	.cfi_def_cfa_offset 16
	.cfi_offset 15, -16
	movq	%rdx, %rcx	# tmp139, __args#0
.LBB2828:
.LBB2829:
# /usr/include/c++/11/bits/stl_vector.h:1758: 	if (max_size() - size() < __n)
	.loc 6 1758 2 view .LVU473
	movabsq	$1152921504606846975, %rdx	#, tmp122
.LVL157:
	.loc 6 1758 2 view .LVU474
.LBE2829:
.LBE2828:
# /usr/include/c++/11/bits/vector.tcc:426:       vector<_Tp, _Alloc>::
	.loc 16 426 7 view .LVU475
	pushq	%r14	#
	.cfi_def_cfa_offset 24
	.cfi_offset 14, -24
	pushq	%r13	#
	.cfi_def_cfa_offset 32
	.cfi_offset 13, -32
	pushq	%r12	#
	.cfi_def_cfa_offset 40
	.cfi_offset 12, -40
	pushq	%rbp	#
	.cfi_def_cfa_offset 48
	.cfi_offset 6, -48
	pushq	%rbx	#
	.cfi_def_cfa_offset 56
	.cfi_offset 3, -56
	subq	$24, %rsp	#,
	.cfi_def_cfa_offset 80
	movq	8(%rdi), %r12	# MEM[(long long int * *)this_19(D) + 8B], _49
	movq	(%rdi), %r15	# MEM[(long long int * *)this_19(D)], _48
.LVL158:
.LBB2836:
.LBI2828:
	.loc 6 1756 7 is_stmt 1 view .LVU476
.LBB2832:
.LBB2830:
.LBI2830:
	.loc 6 918 7 view .LVU477
.LBB2831:
# /usr/include/c++/11/bits/stl_vector.h:919:       { return size_type(this->_M_impl._M_finish - this->_M_impl._M_start); }
	.loc 6 919 50 is_stmt 0 view .LVU478
	movq	%r12, %rax	# _49, tmp120
	subq	%r15, %rax	# _48, tmp120
	sarq	$3, %rax	#, tmp121
	.loc 6 919 50 view .LVU479
.LBE2831:
.LBE2830:
# /usr/include/c++/11/bits/stl_vector.h:1758: 	if (max_size() - size() < __n)
	.loc 6 1758 2 view .LVU480
	cmpq	%rdx, %rax	# tmp122, tmp121
	je	.L120	#,
	testq	%rax, %rax	# tmp121
	movl	$1, %edx	#, tmp142
	movq	%rsi, %r14	# tmp138, __position
.LVL159:
	.loc 6 1758 2 view .LVU481
	movq	%rdi, %rbp	# tmp137, this
	cmovne	%rax, %rdx	# tmp121,, tmp124
	xorl	%esi, %esi	# _79
	addq	%rdx, %rax	# tmp124, tmp125
.LBE2832:
.LBE2836:
.LBB2837:
.LBB2838:
# /usr/include/c++/11/bits/stl_iterator.h:1271:     { return __lhs.base() - __rhs.base(); }
	.loc 7 1271 27 view .LVU482
	movq	%r14, %rdx	# __position, _66
	setc	%sil	#, _79
.LVL160:
	.loc 7 1271 27 view .LVU483
	subq	%r15, %rdx	# _48, _66
.LBE2838:
.LBE2837:
.LBB2839:
.LBB2833:
# /usr/include/c++/11/bits/stl_vector.h:1762: 	return (__len < size() || __len > max_size()) ? max_size() : __len;
	.loc 6 1762 48 view .LVU484
	testq	%rsi, %rsi	# _79
	jne	.L113	#,
.LVL161:
	.loc 6 1762 48 view .LVU485
.LBE2833:
.LBE2839:
.LBB2840:
.LBI2840:
	.loc 6 811 7 is_stmt 1 view .LVU486
.LBB2841:
.LBI2841:
	.loc 7 1027 7 view .LVU487
	.loc 7 1027 7 is_stmt 0 view .LVU488
.LBE2841:
.LBE2840:
.LBB2842:
.LBI2837:
	.loc 7 1268 5 is_stmt 1 view .LVU489
	.loc 7 1268 5 is_stmt 0 view .LVU490
.LBE2842:
.LBB2843:
.LBI2843:
	.loc 6 343 7 is_stmt 1 view .LVU491
.LBB2844:
# /usr/include/c++/11/bits/stl_vector.h:346: 	return __n != 0 ? _Tr::allocate(_M_impl, __n) : pointer();
	.loc 6 346 18 is_stmt 0 view .LVU492
	testq	%rax, %rax	# tmp125
	jne	.L105	#,
	xorl	%ebx, %ebx	# prephitmp_36
	xorl	%r13d, %r13d	# iftmp.28_37
.LVL162:
.L111:
	.loc 6 346 18 view .LVU493
.LBE2844:
.LBE2843:
.LBB2864:
.LBI2864:
	.loc 13 511 2 is_stmt 1 view .LVU494
.LBB2865:
.LBI2865:
	.loc 15 94 5 view .LVU495
.LBE2865:
.LBE2864:
.LBB2870:
.LBB2871:
.LBB2872:
.LBB2873:
.LBB2874:
.LBB2875:
# /usr/include/c++/11/bits/stl_uninitialized.h:1009:       ptrdiff_t __count = __last - __first;
	.file 17 "/usr/include/c++/11/bits/stl_uninitialized.h"
	.loc 17 1009 34 is_stmt 0 view .LVU496
	movq	%r12, %r8	# _49, _49
.LBE2875:
.LBE2874:
.LBE2873:
.LBE2872:
.LBE2871:
.LBE2870:
.LBB2901:
.LBB2868:
.LBB2866:
# /usr/include/c++/11/bits/stl_construct.h:97:     { return ::new((void*)__location) _Tp(std::forward<_Args>(__args)...); }
	.loc 15 97 14 view .LVU497
	movq	(%rcx), %rax	# *__args#0_25(D), *__args#0_25(D)
.LBE2866:
.LBE2868:
.LBE2901:
# /usr/include/c++/11/bits/vector.tcc:464: 	      ++__new_finish;
	.loc 16 464 8 view .LVU498
	leaq	8(%r13,%rdx), %r9	#, _43
.LBB2902:
.LBB2896:
.LBB2891:
.LBB2886:
.LBB2881:
.LBB2876:
# /usr/include/c++/11/bits/stl_uninitialized.h:1009:       ptrdiff_t __count = __last - __first;
	.loc 17 1009 34 view .LVU499
	subq	%r14, %r8	# __position, _49
.LBE2876:
.LBE2881:
.LBE2886:
.LBE2891:
.LBE2896:
.LBE2902:
.LBB2903:
.LBB2869:
.LBB2867:
# /usr/include/c++/11/bits/stl_construct.h:97:     { return ::new((void*)__location) _Tp(std::forward<_Args>(__args)...); }
	.loc 15 97 14 view .LVU500
	movq	%rax, 0(%r13,%rdx)	# *__args#0_25(D), *_3
.LVL163:
	.loc 15 97 14 view .LVU501
.LBE2867:
.LBE2869:
.LBE2903:
.LBB2904:
.LBI2904:
	.loc 6 465 7 is_stmt 1 view .LVU502
.LBB2905:
.LBB2906:
.LBI2906:
	.loc 6 453 7 view .LVU503
.LBB2907:
.LBI2907:
	.loc 17 1040 5 view .LVU504
.LBB2908:
.LBI2908:
	.loc 17 1006 5 view .LVU505
	.loc 17 1006 5 is_stmt 0 view .LVU506
.LBE2908:
.LBE2907:
.LBE2906:
.LBE2905:
.LBE2904:
.LBB2919:
.LBB2897:
.LBB2892:
.LBB2887:
.LBB2882:
.LBB2877:
# /usr/include/c++/11/bits/stl_uninitialized.h:1012:       return __result + __count;
	.loc 17 1012 25 view .LVU507
	leaq	(%r9,%r8), %r12	#, _56
.LBE2877:
.LBE2882:
.LBE2887:
.LBE2892:
.LBE2897:
.LBE2919:
.LBB2920:
.LBB2917:
.LBB2915:
.LBB2913:
.LBB2911:
.LBB2909:
# /usr/include/c++/11/bits/stl_uninitialized.h:1010:       if (__count > 0)
	.loc 17 1010 7 view .LVU508
	testq	%rdx, %rdx	# _66
	jg	.L121	#,
.LVL164:
	.loc 17 1010 7 view .LVU509
.LBE2909:
.LBE2911:
.LBE2913:
.LBE2915:
.LBE2917:
.LBE2920:
.LBB2921:
.LBI2870:
	.loc 6 465 7 is_stmt 1 view .LVU510
.LBB2898:
.LBB2893:
.LBI2872:
	.loc 6 453 7 view .LVU511
.LBB2888:
.LBI2873:
	.loc 17 1040 5 view .LVU512
.LBB2883:
.LBI2874:
	.loc 17 1006 5 view .LVU513
.LBB2878:
# /usr/include/c++/11/bits/stl_uninitialized.h:1010:       if (__count > 0)
	.loc 17 1010 7 is_stmt 0 view .LVU514
	testq	%r8, %r8	# _20
	jg	.L109	#,
.LVL165:
	.loc 17 1010 7 view .LVU515
.LBE2878:
.LBE2883:
.LBE2888:
.LBE2893:
.LBE2898:
.LBE2921:
.LBB2922:
.LBI2922:
	.loc 6 350 7 is_stmt 1 view .LVU516
.LBB2923:
# /usr/include/c++/11/bits/stl_vector.h:353: 	if (__p)
	.loc 6 353 2 is_stmt 0 view .LVU517
	testq	%r15, %r15	# _48
	jne	.L119	#,
.LVL166:
.L110:
	.loc 6 353 2 view .LVU518
.LBE2923:
.LBE2922:
# /usr/include/c++/11/bits/vector.tcc:502:       this->_M_impl._M_start = __new_start;
	.loc 16 502 30 view .LVU519
	movq	%r13, 0(%rbp)	# iftmp.28_37, this_19(D)->D.266787._M_impl.D.266142._M_start
# /usr/include/c++/11/bits/vector.tcc:503:       this->_M_impl._M_finish = __new_finish;
	.loc 16 503 31 view .LVU520
	movq	%r12, 8(%rbp)	# _56, this_19(D)->D.266787._M_impl.D.266142._M_finish
# /usr/include/c++/11/bits/vector.tcc:504:       this->_M_impl._M_end_of_storage = __new_start + __len;
	.loc 16 504 39 view .LVU521
	movq	%rbx, 16(%rbp)	# prephitmp_36, this_19(D)->D.266787._M_impl.D.266142._M_end_of_storage
# /usr/include/c++/11/bits/vector.tcc:505:     }
	.loc 16 505 5 view .LVU522
	addq	$24, %rsp	#,
	.cfi_remember_state
	.cfi_def_cfa_offset 56
	popq	%rbx	#
	.cfi_def_cfa_offset 48
	popq	%rbp	#
	.cfi_def_cfa_offset 40
.LVL167:
	.loc 16 505 5 view .LVU523
	popq	%r12	#
	.cfi_def_cfa_offset 32
	popq	%r13	#
	.cfi_def_cfa_offset 24
.LVL168:
	.loc 16 505 5 view .LVU524
	popq	%r14	#
	.cfi_def_cfa_offset 16
.LVL169:
	.loc 16 505 5 view .LVU525
	popq	%r15	#
	.cfi_def_cfa_offset 8
	ret	
.LVL170:
	.p2align 4,,10
	.p2align 3
.L121:
	.cfi_restore_state
.LBB2935:
.LBB2918:
.LBB2916:
.LBB2914:
.LBB2912:
.LBB2910:
# /usr/include/c++/11/bits/stl_uninitialized.h:1011: 	__builtin_memmove(__result, __first, __count * sizeof(_Tp));
	.loc 17 1011 19 view .LVU526
	movq	%r15, %rsi	# _48,
	movq	%r13, %rdi	# iftmp.28_37,
	movq	%r9, 8(%rsp)	# _43, %sfp
	movq	%r8, (%rsp)	# _20, %sfp
	call	memmove@PLT	#
.LVL171:
	.loc 17 1011 19 view .LVU527
.LBE2910:
.LBE2912:
.LBE2914:
.LBE2916:
.LBE2918:
.LBE2935:
.LBB2936:
	.loc 6 465 7 is_stmt 1 view .LVU528
.LBB2899:
.LBB2894:
	.loc 6 453 7 view .LVU529
.LBB2889:
	.loc 17 1040 5 view .LVU530
.LBB2884:
	.loc 17 1006 5 view .LVU531
.LBB2879:
# /usr/include/c++/11/bits/stl_uninitialized.h:1010:       if (__count > 0)
	.loc 17 1010 7 is_stmt 0 view .LVU532
	movq	(%rsp), %r8	# %sfp, _20
	movq	8(%rsp), %r9	# %sfp, _43
	testq	%r8, %r8	# _20
	jg	.L109	#,
.LVL172:
.L119:
	.loc 17 1010 7 view .LVU533
.LBE2879:
.LBE2884:
.LBE2889:
.LBE2894:
.LBE2899:
.LBE2936:
# /usr/include/c++/11/bits/vector.tcc:501: 		    this->_M_impl._M_end_of_storage - __old_start);
	.loc 16 501 39 view .LVU534
	movq	16(%rbp), %rsi	# this_19(D)->D.266787._M_impl.D.266142._M_end_of_storage, _13
.LBB2937:
.LBB2932:
.LBB2924:
.LBB2925:
.LBB2926:
.LBB2927:
# /usr/include/c++/11/ext/new_allocator.h:145: 	::operator delete(__p
	.loc 9 145 19 view .LVU535
	movq	%r15, %rdi	# _48,
.LBE2927:
.LBE2926:
.LBE2925:
.LBE2924:
.LBE2932:
.LBE2937:
# /usr/include/c++/11/bits/vector.tcc:501: 		    this->_M_impl._M_end_of_storage - __old_start);
	.loc 16 501 39 view .LVU536
	subq	%r15, %rsi	# _48, _13
.LVL173:
.LBB2938:
.LBB2933:
.LBB2931:
.LBI2924:
	.loc 13 495 7 is_stmt 1 view .LVU537
.LBB2930:
.LBI2925:
	.loc 8 190 7 view .LVU538
.LBB2929:
.LBI2926:
	.loc 9 132 7 view .LVU539
.LBB2928:
# /usr/include/c++/11/ext/new_allocator.h:145: 	::operator delete(__p
	.loc 9 145 19 is_stmt 0 view .LVU540
	call	_ZdlPvm@PLT	#
.LVL174:
	.loc 9 145 19 view .LVU541
	jmp	.L110	#
.LVL175:
	.p2align 4,,10
	.p2align 3
.L109:
	.loc 9 145 19 view .LVU542
.LBE2928:
.LBE2929:
.LBE2930:
.LBE2931:
.LBE2933:
.LBE2938:
.LBB2939:
.LBB2900:
.LBB2895:
.LBB2890:
.LBB2885:
.LBB2880:
# /usr/include/c++/11/bits/stl_uninitialized.h:1011: 	__builtin_memmove(__result, __first, __count * sizeof(_Tp));
	.loc 17 1011 19 view .LVU543
	movq	%r8, %rdx	# _20,
	movq	%r14, %rsi	# __position,
	movq	%r9, %rdi	# _43,
	call	memcpy@PLT	#
.LVL176:
	.loc 17 1011 19 view .LVU544
.LBE2880:
.LBE2885:
.LBE2890:
.LBE2895:
.LBE2900:
.LBE2939:
.LBB2940:
	.loc 6 350 7 is_stmt 1 view .LVU545
.LBB2934:
# /usr/include/c++/11/bits/stl_vector.h:353: 	if (__p)
	.loc 6 353 2 is_stmt 0 view .LVU546
	testq	%r15, %r15	# _48
	je	.L110	#,
	jmp	.L119	#
.LVL177:
	.p2align 4,,10
	.p2align 3
.L113:
	.loc 6 353 2 view .LVU547
.LBE2934:
.LBE2940:
.LBB2941:
.LBB2834:
	movabsq	$9223372036854775800, %rbx	#, prephitmp_57
.LVL178:
.L104:
	.loc 6 353 2 view .LVU548
.LBE2834:
.LBE2941:
.LBB2942:
.LBB2862:
.LBB2845:
.LBB2846:
.LBB2847:
.LBB2848:
.LBB2849:
.LBB2850:
# /usr/include/c++/11/ext/new_allocator.h:127: 	return static_cast<_Tp*>(::operator new(__n * sizeof(_Tp)));
	.loc 9 127 41 view .LVU549
	movq	%rbx, %rdi	# prephitmp_57,
.LVL179:
	.loc 9 127 41 view .LVU550
	movq	%rcx, 8(%rsp)	# __args#0, %sfp
	movq	%rdx, (%rsp)	# _66, %sfp
.LBE2850:
.LBE2849:
.LBE2848:
.LBE2847:
.LBE2846:
.LBI2845:
	.loc 6 343 7 is_stmt 1 view .LVU551
.LVL180:
.LBB2859:
.LBB2857:
.LBI2847:
	.loc 13 463 7 view .LVU552
.LBB2855:
.LBI2848:
	.loc 8 179 7 view .LVU553
.LBB2853:
.LBI2849:
	.loc 9 103 7 view .LVU554
.LBB2851:
# /usr/include/c++/11/ext/new_allocator.h:127: 	return static_cast<_Tp*>(::operator new(__n * sizeof(_Tp)));
	.loc 9 127 41 is_stmt 0 view .LVU555
	call	_Znwm@PLT	#
.LVL181:
	.loc 9 127 41 view .LVU556
	movq	(%rsp), %rdx	# %sfp, _66
	movq	8(%rsp), %rcx	# %sfp, __args#0
	movq	%rax, %r13	# tmp140, iftmp.28_37
.LVL182:
	.loc 9 127 41 view .LVU557
.LBE2851:
.LBE2853:
.LBE2855:
.LBE2857:
.LBE2859:
.LBE2845:
.LBE2862:
.LBE2942:
# /usr/include/c++/11/bits/vector.tcc:504:       this->_M_impl._M_end_of_storage = __new_start + __len;
	.loc 16 504 53 view .LVU558
	addq	%rax, %rbx	# iftmp.28_37, prephitmp_36
	jmp	.L111	#
.LVL183:
	.p2align 4,,10
	.p2align 3
.L105:
.LBB2943:
.LBB2863:
.LBB2861:
.LBB2860:
.LBB2858:
.LBB2856:
.LBB2854:
.LBB2852:
# /usr/include/c++/11/ext/new_allocator.h:127: 	return static_cast<_Tp*>(::operator new(__n * sizeof(_Tp)));
	.loc 9 127 41 view .LVU559
	movabsq	$1152921504606846975, %rsi	#, tmp141
	cmpq	%rsi, %rax	# tmp141, tmp125
	cmova	%rsi, %rax	# tmp125,, tmp141, tmp134
.LVL184:
	.loc 9 127 41 view .LVU560
	leaq	0(,%rax,8), %rbx	#, prephitmp_57
	jmp	.L104	#
.LVL185:
.L120:
	.loc 9 127 41 view .LVU561
.LBE2852:
.LBE2854:
.LBE2856:
.LBE2858:
.LBE2860:
.LBE2861:
.LBE2863:
.LBE2943:
.LBB2944:
.LBB2835:
# /usr/include/c++/11/bits/stl_vector.h:1759: 	  __throw_length_error(__N(__s));
	.loc 6 1759 24 view .LVU562
	leaq	.LC1(%rip), %rdi	#, tmp123
.LVL186:
	.loc 6 1759 24 view .LVU563
	call	_ZSt20__throw_length_errorPKc@PLT	#
.LVL187:
	.loc 6 1759 24 view .LVU564
.LBE2835:
.LBE2944:
	.cfi_endproc
.LFE13249:
	.size	_ZNSt6vectorIxSaIxEE17_M_realloc_insertIJRKxEEEvN9__gnu_cxx17__normal_iteratorIPxS1_EEDpOT_, .-_ZNSt6vectorIxSaIxEE17_M_realloc_insertIJRKxEEEvN9__gnu_cxx17__normal_iteratorIPxS1_EEDpOT_
	.section	.text._ZNSt12_Vector_baseIxSaIxEED2Ev,"axG",@progbits,_ZNSt12_Vector_baseIxSaIxEED5Ev,comdat
	.align 2
	.p2align 4
	.weak	_ZNSt12_Vector_baseIxSaIxEED2Ev
	.type	_ZNSt12_Vector_baseIxSaIxEED2Ev, @function
_ZNSt12_Vector_baseIxSaIxEED2Ev:
.LVL188:
.LFB13261:
	.loc 6 333 7 is_stmt 1 view -0
	.cfi_startproc
	.loc 6 333 7 is_stmt 0 view .LVU566
	endbr64	
.LBB2956:
# /usr/include/c++/11/bits/stl_vector.h:336: 		      _M_impl._M_end_of_storage - _M_impl._M_start);
	.loc 6 336 45 view .LVU567
	movq	(%rdi), %r8	# this_7(D)->_M_impl.D.266142._M_start, _2
.LVL189:
.LBB2957:
.LBI2957:
	.loc 6 350 7 is_stmt 1 view .LVU568
.LBB2958:
# /usr/include/c++/11/bits/stl_vector.h:353: 	if (__p)
	.loc 6 353 2 is_stmt 0 view .LVU569
	testq	%r8, %r8	# _2
	je	.L122	#,
.LVL190:
.LBB2959:
.LBI2959:
	.loc 13 495 7 is_stmt 1 view .LVU570
.LBB2960:
.LBI2960:
	.loc 8 190 7 view .LVU571
.LBB2961:
.LBI2961:
	.loc 9 132 7 view .LVU572
	.loc 9 132 7 is_stmt 0 view .LVU573
.LBE2961:
.LBE2960:
.LBE2959:
.LBE2958:
.LBE2957:
# /usr/include/c++/11/bits/stl_vector.h:336: 		      _M_impl._M_end_of_storage - _M_impl._M_start);
	.loc 6 336 35 view .LVU574
	movq	16(%rdi), %rsi	# this_7(D)->_M_impl.D.266142._M_end_of_storage, this_7(D)->_M_impl.D.266142._M_end_of_storage
.LBB2972:
.LBB2970:
.LBB2968:
.LBB2966:
.LBB2964:
.LBB2962:
# /usr/include/c++/11/ext/new_allocator.h:145: 	::operator delete(__p
	.loc 9 145 19 view .LVU575
	movq	%r8, %rdi	# _2,
.LVL191:
	.loc 9 145 19 view .LVU576
.LBE2962:
.LBE2964:
.LBE2966:
.LBE2968:
.LBE2970:
.LBE2972:
# /usr/include/c++/11/bits/stl_vector.h:336: 		      _M_impl._M_end_of_storage - _M_impl._M_start);
	.loc 6 336 35 view .LVU577
	subq	%r8, %rsi	# _2, tmp87
.LVL192:
.LBB2973:
.LBB2971:
.LBB2969:
.LBB2967:
.LBB2965:
.LBB2963:
# /usr/include/c++/11/ext/new_allocator.h:145: 	::operator delete(__p
	.loc 9 145 19 view .LVU578
	jmp	_ZdlPvm@PLT	#
.LVL193:
	.p2align 4,,10
	.p2align 3
.L122:
	.loc 9 145 19 view .LVU579
.LBE2963:
.LBE2965:
.LBE2967:
.LBE2969:
.LBE2971:
.LBE2973:
.LBE2956:
# /usr/include/c++/11/bits/stl_vector.h:337:       }
	.loc 6 337 7 view .LVU580
	ret	
	.cfi_endproc
.LFE13261:
	.size	_ZNSt12_Vector_baseIxSaIxEED2Ev, .-_ZNSt12_Vector_baseIxSaIxEED2Ev
	.weak	_ZNSt12_Vector_baseIxSaIxEED1Ev
	.set	_ZNSt12_Vector_baseIxSaIxEED1Ev,_ZNSt12_Vector_baseIxSaIxEED2Ev
	.section	.text._ZNSt6vectorISt5tupleIJxxxEESaIS1_EE17_M_realloc_insertIJRxiiEEEvN9__gnu_cxx17__normal_iteratorIPS1_S3_EEDpOT_,"axG",@progbits,_ZNSt6vectorISt5tupleIJxxxEESaIS1_EE17_M_realloc_insertIJRxiiEEEvN9__gnu_cxx17__normal_iteratorIPS1_S3_EEDpOT_,comdat
	.align 2
	.p2align 4
	.weak	_ZNSt6vectorISt5tupleIJxxxEESaIS1_EE17_M_realloc_insertIJRxiiEEEvN9__gnu_cxx17__normal_iteratorIPS1_S3_EEDpOT_
	.type	_ZNSt6vectorISt5tupleIJxxxEESaIS1_EE17_M_realloc_insertIJRxiiEEEvN9__gnu_cxx17__normal_iteratorIPS1_S3_EEDpOT_, @function
_ZNSt6vectorISt5tupleIJxxxEESaIS1_EE17_M_realloc_insertIJRxiiEEEvN9__gnu_cxx17__normal_iteratorIPS1_S3_EEDpOT_:
.LVL194:
.LFB13301:
	.loc 16 426 7 is_stmt 1 view -0
	.cfi_startproc
	.loc 16 426 7 is_stmt 0 view .LVU582
	endbr64	
	pushq	%r15	#
	.cfi_def_cfa_offset 16
	.cfi_offset 15, -16
	pushq	%r14	#
	.cfi_def_cfa_offset 24
	.cfi_offset 14, -24
	pushq	%r13	#
	.cfi_def_cfa_offset 32
	.cfi_offset 13, -32
	pushq	%r12	#
	.cfi_def_cfa_offset 40
	.cfi_offset 12, -40
	pushq	%rbp	#
	.cfi_def_cfa_offset 48
	.cfi_offset 6, -48
	pushq	%rbx	#
	.cfi_def_cfa_offset 56
	.cfi_offset 3, -56
	movq	%rsi, %rbx	# tmp196, __position
.LVL195:
.LBB3087:
.LBB3088:
.LBB3089:
.LBB3090:
# /usr/include/c++/11/bits/stl_vector.h:919:       { return size_type(this->_M_impl._M_finish - this->_M_impl._M_start); }
	.loc 6 919 50 view .LVU583
	movabsq	$-6148914691236517205, %rsi	#, tmp146
.LBE3090:
.LBE3089:
.LBE3088:
.LBE3087:
# /usr/include/c++/11/bits/vector.tcc:426:       vector<_Tp, _Alloc>::
	.loc 16 426 7 view .LVU584
	subq	$40, %rsp	#,
	.cfi_def_cfa_offset 96
	movq	8(%rdi), %r15	# MEM[(struct tuple * *)this_18(D) + 8B], _79
.LVL196:
.LBB3097:
.LBI3087:
	.loc 6 1756 7 is_stmt 1 view .LVU585
.LBB3093:
.LBB3092:
.LBI3089:
	.loc 6 918 7 view .LVU586
	movq	(%rdi), %r12	# MEM[(struct tuple * *)this_18(D)], _78
.LBB3091:
# /usr/include/c++/11/bits/stl_vector.h:919:       { return size_type(this->_M_impl._M_finish - this->_M_impl._M_start); }
	.loc 6 919 50 is_stmt 0 view .LVU587
	movq	%r15, %rax	# _79, tmp143
	subq	%r12, %rax	# _78, tmp143
	sarq	$3, %rax	#, tmp144
	imulq	%rsi, %rax	# tmp146, tmp145
	.loc 6 919 50 view .LVU588
.LBE3091:
.LBE3092:
# /usr/include/c++/11/bits/stl_vector.h:1758: 	if (max_size() - size() < __n)
	.loc 6 1758 2 view .LVU589
	movabsq	$384307168202282325, %rsi	#, tmp147
	cmpq	%rsi, %rax	# tmp147, tmp145
	je	.L144	#,
	testq	%rax, %rax	# tmp145
	movl	$1, %esi	#, tmp202
	movq	%rdi, %rbp	# tmp195, this
	cmovne	%rax, %rsi	# tmp145,, tmp149
	xorl	%edi, %edi	# _70
.LVL197:
	.loc 6 1758 2 view .LVU590
	addq	%rsi, %rax	# tmp149, tmp150
.LBE3093:
.LBE3097:
.LBB3098:
.LBB3099:
# /usr/include/c++/11/bits/stl_iterator.h:1271:     { return __lhs.base() - __rhs.base(); }
	.loc 7 1271 27 view .LVU591
	movq	%rbx, %rsi	# __position, _45
	setc	%dil	#, _70
.LVL198:
	.loc 7 1271 27 view .LVU592
	subq	%r12, %rsi	# _78, _45
.LBE3099:
.LBE3098:
.LBB3100:
.LBB3094:
# /usr/include/c++/11/bits/stl_vector.h:1762: 	return (__len < size() || __len > max_size()) ? max_size() : __len;
	.loc 6 1762 48 view .LVU593
	testq	%rdi, %rdi	# _70
	jne	.L136	#,
.LVL199:
	.loc 6 1762 48 view .LVU594
.LBE3094:
.LBE3100:
.LBB3101:
.LBI3101:
	.loc 6 811 7 is_stmt 1 view .LVU595
.LBB3102:
.LBI3102:
	.loc 7 1027 7 view .LVU596
	.loc 7 1027 7 is_stmt 0 view .LVU597
.LBE3102:
.LBE3101:
.LBB3103:
.LBI3098:
	.loc 7 1268 5 is_stmt 1 view .LVU598
	.loc 7 1268 5 is_stmt 0 view .LVU599
.LBE3103:
.LBB3104:
.LBI3104:
	.loc 6 343 7 is_stmt 1 view .LVU600
.LBB3105:
# /usr/include/c++/11/bits/stl_vector.h:346: 	return __n != 0 ? _Tr::allocate(_M_impl, __n) : pointer();
	.loc 6 346 18 is_stmt 0 view .LVU601
	testq	%rax, %rax	# tmp150
	jne	.L129	#,
	movl	$24, %r9d	#, _87
	xorl	%r14d, %r14d	# _34
	xorl	%r13d, %r13d	# iftmp.41_46
.LVL200:
.L135:
	.loc 6 346 18 view .LVU602
.LBE3105:
.LBE3104:
# /usr/include/c++/11/bits/vector.tcc:449: 	  _Alloc_traits::construct(this->_M_impl,
	.loc 16 449 28 view .LVU603
	leaq	0(%r13,%rsi), %rax	#, _3
.LVL201:
.LBB3125:
.LBI3125:
	.loc 13 511 2 is_stmt 1 view .LVU604
.LBB3126:
.LBI3126:
	.loc 15 94 5 view .LVU605
.LBB3127:
.LBI3127:
	.file 18 "/usr/include/c++/11/tuple"
	.loc 18 742 2 view .LVU606
.LBB3128:
.LBI3128:
	.file 19 "/usr/include/c++/11/bits/move.h"
	.loc 19 77 5 view .LVU607
	.loc 19 77 5 is_stmt 0 view .LVU608
.LBE3128:
.LBB3129:
.LBI3129:
	.loc 19 77 5 is_stmt 1 view .LVU609
	.loc 19 77 5 is_stmt 0 view .LVU610
.LBE3129:
.LBB3130:
.LBI3130:
	.loc 19 77 5 is_stmt 1 view .LVU611
	.loc 19 77 5 is_stmt 0 view .LVU612
.LBE3130:
.LBB3131:
.LBI3131:
	.loc 18 290 2 is_stmt 1 view .LVU613
.LBB3132:
.LBI3132:
	.loc 19 77 5 view .LVU614
	.loc 19 77 5 is_stmt 0 view .LVU615
.LBE3132:
.LBB3133:
.LBI3133:
	.loc 19 77 5 is_stmt 1 view .LVU616
	.loc 19 77 5 is_stmt 0 view .LVU617
.LBE3133:
.LBB3134:
.LBI3134:
	.loc 18 290 2 is_stmt 1 view .LVU618
.LBB3135:
.LBI3135:
	.loc 19 77 5 view .LVU619
	.loc 19 77 5 is_stmt 0 view .LVU620
.LBE3135:
.LBB3136:
.LBI3136:
	.loc 18 440 2 is_stmt 1 view .LVU621
.LBB3137:
.LBI3137:
	.loc 19 77 5 view .LVU622
	.loc 19 77 5 is_stmt 0 view .LVU623
.LBE3137:
.LBB3138:
.LBI3138:
	.loc 18 199 19 is_stmt 1 view .LVU624
.LBB3139:
.LBB3140:
.LBI3140:
	.loc 19 77 5 view .LVU625
	.loc 19 77 5 is_stmt 0 view .LVU626
.LBE3140:
.LBE3139:
.LBE3138:
.LBE3136:
.LBB3145:
.LBB3146:
# /usr/include/c++/11/tuple:200: 	: _M_head_impl(std::forward<_UHead>(__h)) { }
	.loc 18 200 4 view .LVU627
	movslq	(%rcx), %rcx	# *__args#1_24(D), *__args#1_24(D)
.LVL202:
	.loc 18 200 4 view .LVU628
.LBE3146:
.LBE3145:
.LBB3149:
.LBB3143:
.LBB3141:
	movslq	(%r8), %rsi	# *__args#2_23(D), *__args#2_23(D)
.LBE3141:
.LBE3143:
.LBE3149:
.LBE3134:
.LBB3153:
.LBB3154:
	movq	(%rdx), %rdx	# *__args#0_25(D), *__args#0_25(D)
.LVL203:
	.loc 18 200 4 view .LVU629
.LBE3154:
.LBE3153:
.LBB3157:
.LBB3150:
.LBB3144:
.LBB3142:
	movq	%rsi, (%rax)	# *__args#2_23(D), MEM[(struct _Head_base *)_3]._M_head_impl
.LVL204:
	.loc 18 200 4 view .LVU630
.LBE3142:
.LBE3144:
.LBE3150:
.LBB3151:
.LBI3151:
	.loc 19 77 5 is_stmt 1 view .LVU631
	.loc 19 77 5 is_stmt 0 view .LVU632
.LBE3151:
.LBB3152:
.LBI3145:
	.loc 18 199 19 is_stmt 1 view .LVU633
.LBB3148:
.LBB3147:
.LBI3147:
	.loc 19 77 5 view .LVU634
.LBE3147:
# /usr/include/c++/11/tuple:200: 	: _M_head_impl(std::forward<_UHead>(__h)) { }
	.loc 18 200 4 is_stmt 0 view .LVU635
	movq	%rcx, 8(%rax)	# *__args#1_24(D), MEM[(struct _Head_base *)_3 + 8B]._M_head_impl
.LVL205:
	.loc 18 200 4 view .LVU636
.LBE3148:
.LBE3152:
.LBE3157:
.LBB3158:
.LBI3158:
	.loc 19 77 5 is_stmt 1 view .LVU637
	.loc 19 77 5 is_stmt 0 view .LVU638
.LBE3158:
.LBB3159:
.LBI3153:
	.loc 18 199 19 is_stmt 1 view .LVU639
.LBB3156:
.LBB3155:
.LBI3155:
	.loc 19 77 5 view .LVU640
.LBE3155:
# /usr/include/c++/11/tuple:200: 	: _M_head_impl(std::forward<_UHead>(__h)) { }
	.loc 18 200 4 is_stmt 0 view .LVU641
	movq	%rdx, 16(%rax)	# *__args#0_25(D), MEM[(struct _Head_base *)_3 + 16B]._M_head_impl
.LVL206:
	.loc 18 200 4 view .LVU642
.LBE3156:
.LBE3159:
.LBE3131:
.LBE3127:
.LBE3126:
.LBE3125:
.LBB3160:
.LBI3160:
	.loc 6 465 7 is_stmt 1 view .LVU643
.LBB3161:
.LBB3162:
.LBB3163:
.LBB3164:
.LBB3165:
	.loc 17 1031 22 view .LVU644
	cmpq	%r12, %rbx	# _78, __position
	je	.L130	#,
	movq	%r12, %rax	# _78, __first
# /usr/include/c++/11/bits/stl_uninitialized.h:1030:       _ForwardIterator __cur = __result;
	.loc 17 1030 24 is_stmt 0 view .LVU645
	movq	%r13, %rdx	# iftmp.41_46, __cur
.LVL207:
	.p2align 4,,10
	.p2align 3
.L131:
.LBB3166:
.LBI3166:
	.loc 17 986 5 is_stmt 1 view .LVU646
.LBB3167:
.LBB3168:
.LBI3168:
	.loc 13 511 2 view .LVU647
.LBB3169:
.LBI3169:
	.loc 15 94 5 view .LVU648
.LBB3170:
.LBI3170:
	.loc 18 756 17 view .LVU649
.LBB3171:
.LBI3171:
	.loc 18 301 7 view .LVU650
.LBB3172:
.LBB3173:
.LBI3173:
	.loc 18 301 7 view .LVU651
.LBB3174:
.LBB3175:
.LBI3175:
	.loc 18 454 7 view .LVU652
.LBB3176:
# /usr/include/c++/11/tuple:456:       : _Base(static_cast<_Base&&>(__in))
	.loc 18 456 41 is_stmt 0 view .LVU653
	movq	(%rax), %rcx	# MEM[(struct _Head_base *)__first_48], MEM[(struct _Head_base *)__first_48]
.LBE3176:
.LBE3175:
.LBE3174:
.LBE3173:
.LBE3172:
.LBE3171:
.LBE3170:
.LBE3169:
.LBE3168:
.LBE3167:
.LBE3166:
# /usr/include/c++/11/bits/stl_uninitialized.h:1031:       for (; __first != __last; ++__first, (void)++__cur)
	.loc 17 1031 7 view .LVU654
	addq	$24, %rax	#, __first
.LVL208:
# /usr/include/c++/11/bits/stl_uninitialized.h:1031:       for (; __first != __last; ++__first, (void)++__cur)
	.loc 17 1031 44 view .LVU655
	addq	$24, %rdx	#, __cur
.LVL209:
.LBB3187:
.LBB3186:
.LBB3185:
.LBB3184:
.LBB3183:
.LBB3182:
.LBB3181:
.LBB3180:
.LBB3179:
.LBB3178:
.LBB3177:
# /usr/include/c++/11/tuple:456:       : _Base(static_cast<_Base&&>(__in))
	.loc 18 456 41 view .LVU656
	movq	%rcx, -24(%rdx)	# MEM[(struct _Head_base *)__first_48], MEM[(struct _Head_base *)__cur_98]
.LVL210:
	.loc 18 456 41 view .LVU657
.LBE3177:
.LBE3178:
# /usr/include/c++/11/tuple:301:       _Tuple_impl(_Tuple_impl&&) = default;
	.loc 18 301 7 view .LVU658
	movq	-16(%rax), %rcx	# MEM[(struct _Head_base *)__first_48 + 8B], MEM[(struct _Head_base *)__first_48 + 8B]
	movq	%rcx, -16(%rdx)	# MEM[(struct _Head_base *)__first_48 + 8B], MEM[(struct _Head_base *)__cur_98 + 8B]
.LVL211:
	.loc 18 301 7 view .LVU659
.LBE3179:
.LBE3180:
	movq	-8(%rax), %rcx	# MEM[(struct _Head_base *)__first_48 + 16B], MEM[(struct _Head_base *)__first_48 + 16B]
	movq	%rcx, -8(%rdx)	# MEM[(struct _Head_base *)__first_48 + 16B], MEM[(struct _Head_base *)__cur_98 + 16B]
.LVL212:
	.loc 18 301 7 view .LVU660
.LBE3181:
.LBE3182:
.LBE3183:
.LBE3184:
.LBE3185:
.LBE3186:
.LBE3187:
	.loc 17 1031 7 is_stmt 1 view .LVU661
	.loc 17 1031 22 view .LVU662
	cmpq	%rbx, %rax	# __position, __first
	jne	.L131	#,
.LBE3165:
.LBE3164:
.LBE3163:
.LBE3162:
.LBE3161:
.LBE3160:
# /usr/include/c++/11/bits/vector.tcc:464: 	      ++__new_finish;
	.loc 16 464 8 is_stmt 0 view .LVU663
	leaq	-24(%rbx), %rax	#, tmp159
.LVL213:
	.loc 16 464 8 view .LVU664
	subq	%r12, %rax	# _78, tmp160
	shrq	$3, %rax	#, tmp161
	leaq	48(%r13,%rax,8), %r9	#, _87
.LVL214:
.L130:
.LBB3188:
.LBI3188:
	.loc 6 465 7 is_stmt 1 view .LVU665
.LBB3189:
.LBB3190:
.LBB3191:
.LBB3192:
.LBB3193:
	.loc 17 1031 22 view .LVU666
	cmpq	%r15, %rbx	# _79, __position
	je	.L132	#,
# /usr/include/c++/11/bits/stl_uninitialized.h:1030:       _ForwardIterator __cur = __result;
	.loc 17 1030 24 is_stmt 0 view .LVU667
	movq	%r9, %rdx	# _87, __cur
# /usr/include/c++/11/bits/stl_uninitialized.h:1031:       for (; __first != __last; ++__first, (void)++__cur)
	.loc 17 1031 22 view .LVU668
	movq	%rbx, %rax	# __position, __first
.LVL215:
	.p2align 4,,10
	.p2align 3
.L133:
.LBB3194:
.LBI3194:
	.loc 17 986 5 is_stmt 1 view .LVU669
.LBB3195:
.LBB3196:
.LBI3196:
	.loc 13 511 2 view .LVU670
.LBB3197:
.LBI3197:
	.loc 15 94 5 view .LVU671
.LBB3198:
.LBI3198:
	.loc 18 756 17 view .LVU672
.LBB3199:
.LBI3199:
	.loc 18 301 7 view .LVU673
.LBB3200:
.LBB3201:
.LBI3201:
	.loc 18 301 7 view .LVU674
.LBB3202:
.LBB3203:
.LBI3203:
	.loc 18 454 7 view .LVU675
.LBB3204:
# /usr/include/c++/11/tuple:456:       : _Base(static_cast<_Base&&>(__in))
	.loc 18 456 41 is_stmt 0 view .LVU676
	movq	(%rax), %rcx	# MEM[(struct _Head_base *)__first_21], MEM[(struct _Head_base *)__first_21]
.LBE3204:
.LBE3203:
.LBE3202:
.LBE3201:
.LBE3200:
.LBE3199:
.LBE3198:
.LBE3197:
.LBE3196:
.LBE3195:
.LBE3194:
# /usr/include/c++/11/bits/stl_uninitialized.h:1031:       for (; __first != __last; ++__first, (void)++__cur)
	.loc 17 1031 7 view .LVU677
	addq	$24, %rax	#, __first
.LVL216:
# /usr/include/c++/11/bits/stl_uninitialized.h:1031:       for (; __first != __last; ++__first, (void)++__cur)
	.loc 17 1031 44 view .LVU678
	addq	$24, %rdx	#, __cur
.LVL217:
.LBB3215:
.LBB3214:
.LBB3213:
.LBB3212:
.LBB3211:
.LBB3210:
.LBB3209:
.LBB3208:
.LBB3207:
.LBB3206:
.LBB3205:
# /usr/include/c++/11/tuple:456:       : _Base(static_cast<_Base&&>(__in))
	.loc 18 456 41 view .LVU679
	movq	%rcx, -24(%rdx)	# MEM[(struct _Head_base *)__first_21], MEM[(struct _Head_base *)__cur_13]
.LVL218:
	.loc 18 456 41 view .LVU680
.LBE3205:
.LBE3206:
# /usr/include/c++/11/tuple:301:       _Tuple_impl(_Tuple_impl&&) = default;
	.loc 18 301 7 view .LVU681
	movq	-16(%rax), %rcx	# MEM[(struct _Head_base *)__first_21 + 8B], MEM[(struct _Head_base *)__first_21 + 8B]
	movq	%rcx, -16(%rdx)	# MEM[(struct _Head_base *)__first_21 + 8B], MEM[(struct _Head_base *)__cur_13 + 8B]
.LVL219:
	.loc 18 301 7 view .LVU682
.LBE3207:
.LBE3208:
	movq	-8(%rax), %rcx	# MEM[(struct _Head_base *)__first_21 + 16B], MEM[(struct _Head_base *)__first_21 + 16B]
	movq	%rcx, -8(%rdx)	# MEM[(struct _Head_base *)__first_21 + 16B], MEM[(struct _Head_base *)__cur_13 + 16B]
.LVL220:
	.loc 18 301 7 view .LVU683
.LBE3209:
.LBE3210:
.LBE3211:
.LBE3212:
.LBE3213:
.LBE3214:
.LBE3215:
	.loc 17 1031 7 is_stmt 1 view .LVU684
	.loc 17 1031 22 view .LVU685
	cmpq	%r15, %rax	# _79, __first
	jne	.L133	#,
# /usr/include/c++/11/bits/stl_uninitialized.h:1031:       for (; __first != __last; ++__first, (void)++__cur)
	.loc 17 1031 44 is_stmt 0 view .LVU686
	subq	%rbx, %rax	# __position, tmp174
.LVL221:
	.loc 17 1031 44 view .LVU687
	subq	$24, %rax	#, tmp176
	shrq	$3, %rax	#, tmp177
	leaq	24(%r9,%rax,8), %r9	#, _87
.LVL222:
.L132:
	.loc 17 1031 44 view .LVU688
.LBE3193:
.LBE3192:
.LBE3191:
.LBE3190:
.LBE3189:
.LBE3188:
.LBB3216:
.LBI3216:
	.loc 6 350 7 is_stmt 1 view .LVU689
.LBB3217:
# /usr/include/c++/11/bits/stl_vector.h:353: 	if (__p)
	.loc 6 353 2 is_stmt 0 view .LVU690
	testq	%r12, %r12	# _78
	je	.L134	#,
.LBE3217:
.LBE3216:
# /usr/include/c++/11/bits/vector.tcc:501: 		    this->_M_impl._M_end_of_storage - __old_start);
	.loc 16 501 39 view .LVU691
	movq	16(%rbp), %rsi	# this_18(D)->D.267922._M_impl.D.267267._M_end_of_storage, tmp187
.LBB3230:
.LBB3228:
.LBB3218:
.LBB3219:
.LBB3220:
.LBB3221:
# /usr/include/c++/11/ext/new_allocator.h:145: 	::operator delete(__p
	.loc 9 145 19 view .LVU692
	movq	%r12, %rdi	# _78,
	movq	%r9, (%rsp)	# _87, %sfp
.LVL223:
	.loc 9 145 19 view .LVU693
.LBE3221:
.LBE3220:
.LBE3219:
.LBI3218:
	.loc 13 495 7 is_stmt 1 view .LVU694
.LBB3225:
.LBI3219:
	.loc 8 190 7 view .LVU695
.LBB3223:
.LBI3220:
	.loc 9 132 7 view .LVU696
	.loc 9 132 7 is_stmt 0 view .LVU697
.LBE3223:
.LBE3225:
.LBE3218:
.LBE3228:
.LBE3230:
# /usr/include/c++/11/bits/vector.tcc:501: 		    this->_M_impl._M_end_of_storage - __old_start);
	.loc 16 501 39 view .LVU698
	subq	%r12, %rsi	# _78, tmp187
.LBB3231:
.LBB3229:
.LBB3227:
.LBB3226:
.LBB3224:
.LBB3222:
# /usr/include/c++/11/ext/new_allocator.h:145: 	::operator delete(__p
	.loc 9 145 19 view .LVU699
	call	_ZdlPvm@PLT	#
.LVL224:
	.loc 9 145 19 view .LVU700
	movq	(%rsp), %r9	# %sfp, _87
.LVL225:
.L134:
	.loc 9 145 19 view .LVU701
.LBE3222:
.LBE3224:
.LBE3226:
.LBE3227:
.LBE3229:
.LBE3231:
# /usr/include/c++/11/bits/vector.tcc:502:       this->_M_impl._M_start = __new_start;
	.loc 16 502 30 view .LVU702
	movq	%r13, 0(%rbp)	# iftmp.41_46, this_18(D)->D.267922._M_impl.D.267267._M_start
# /usr/include/c++/11/bits/vector.tcc:503:       this->_M_impl._M_finish = __new_finish;
	.loc 16 503 31 view .LVU703
	movq	%r9, 8(%rbp)	# _87, this_18(D)->D.267922._M_impl.D.267267._M_finish
# /usr/include/c++/11/bits/vector.tcc:504:       this->_M_impl._M_end_of_storage = __new_start + __len;
	.loc 16 504 39 view .LVU704
	movq	%r14, 16(%rbp)	# _34, this_18(D)->D.267922._M_impl.D.267267._M_end_of_storage
# /usr/include/c++/11/bits/vector.tcc:505:     }
	.loc 16 505 5 view .LVU705
	addq	$40, %rsp	#,
	.cfi_remember_state
	.cfi_def_cfa_offset 56
	popq	%rbx	#
	.cfi_def_cfa_offset 48
.LVL226:
	.loc 16 505 5 view .LVU706
	popq	%rbp	#
	.cfi_def_cfa_offset 40
.LVL227:
	.loc 16 505 5 view .LVU707
	popq	%r12	#
	.cfi_def_cfa_offset 32
	popq	%r13	#
	.cfi_def_cfa_offset 24
.LVL228:
	.loc 16 505 5 view .LVU708
	popq	%r14	#
	.cfi_def_cfa_offset 16
	popq	%r15	#
	.cfi_def_cfa_offset 8
	ret	
.LVL229:
	.p2align 4,,10
	.p2align 3
.L136:
	.cfi_restore_state
.LBB3232:
.LBB3095:
	.loc 16 505 5 view .LVU709
	movabsq	$9223372036854775800, %r14	#, prephitmp_88
.LVL230:
.L128:
	.loc 16 505 5 view .LVU710
.LBE3095:
.LBE3232:
.LBB3233:
.LBB3123:
.LBB3106:
.LBB3107:
.LBB3108:
.LBB3109:
.LBB3110:
.LBB3111:
# /usr/include/c++/11/ext/new_allocator.h:127: 	return static_cast<_Tp*>(::operator new(__n * sizeof(_Tp)));
	.loc 9 127 41 view .LVU711
	movq	%r14, %rdi	# prephitmp_88,
	movq	%r8, 24(%rsp)	# __args#2, %sfp
	movq	%rcx, 16(%rsp)	# __args#1, %sfp
	movq	%rdx, 8(%rsp)	# __args#0, %sfp
	movq	%rsi, (%rsp)	# _45, %sfp
.LBE3111:
.LBE3110:
.LBE3109:
.LBE3108:
.LBE3107:
.LBI3106:
	.loc 6 343 7 is_stmt 1 view .LVU712
.LVL231:
.LBB3120:
.LBB3118:
.LBI3108:
	.loc 13 463 7 view .LVU713
.LBB3116:
.LBI3109:
	.loc 8 179 7 view .LVU714
.LBB3114:
.LBI3110:
	.loc 9 103 7 view .LVU715
.LBB3112:
# /usr/include/c++/11/ext/new_allocator.h:127: 	return static_cast<_Tp*>(::operator new(__n * sizeof(_Tp)));
	.loc 9 127 41 is_stmt 0 view .LVU716
	call	_Znwm@PLT	#
.LVL232:
	.loc 9 127 41 view .LVU717
	movq	(%rsp), %rsi	# %sfp, _45
	movq	8(%rsp), %rdx	# %sfp, __args#0
	movq	16(%rsp), %rcx	# %sfp, __args#1
	movq	24(%rsp), %r8	# %sfp, __args#2
	movq	%rax, %r13	# tmp200, iftmp.41_46
.LVL233:
	.loc 9 127 41 view .LVU718
.LBE3112:
.LBE3114:
.LBE3116:
.LBE3118:
.LBE3120:
.LBE3106:
.LBE3123:
.LBE3233:
# /usr/include/c++/11/bits/vector.tcc:504:       this->_M_impl._M_end_of_storage = __new_start + __len;
	.loc 16 504 53 view .LVU719
	addq	%rax, %r14	# iftmp.41_46, _34
# /usr/include/c++/11/bits/vector.tcc:464: 	      ++__new_finish;
	.loc 16 464 8 view .LVU720
	leaq	24(%rax), %r9	#, _87
	jmp	.L135	#
.LVL234:
.L129:
.LBB3234:
.LBB3124:
.LBB3122:
.LBB3121:
.LBB3119:
.LBB3117:
.LBB3115:
.LBB3113:
# /usr/include/c++/11/ext/new_allocator.h:127: 	return static_cast<_Tp*>(::operator new(__n * sizeof(_Tp)));
	.loc 9 127 41 view .LVU721
	movabsq	$384307168202282325, %rdi	#, tmp201
	cmpq	%rdi, %rax	# tmp201, tmp150
	cmova	%rdi, %rax	# tmp150,, tmp201, tmp189
.LVL235:
	.loc 9 127 41 view .LVU722
	leaq	(%rax,%rax,2), %r14	#, tmp192
	salq	$3, %r14	#, prephitmp_88
	jmp	.L128	#
.LVL236:
.L144:
	.loc 9 127 41 view .LVU723
.LBE3113:
.LBE3115:
.LBE3117:
.LBE3119:
.LBE3121:
.LBE3122:
.LBE3124:
.LBE3234:
.LBB3235:
.LBB3096:
# /usr/include/c++/11/bits/stl_vector.h:1759: 	  __throw_length_error(__N(__s));
	.loc 6 1759 24 view .LVU724
	leaq	.LC1(%rip), %rdi	#, tmp148
.LVL237:
	.loc 6 1759 24 view .LVU725
	call	_ZSt20__throw_length_errorPKc@PLT	#
.LVL238:
	.loc 6 1759 24 view .LVU726
.LBE3096:
.LBE3235:
	.cfi_endproc
.LFE13301:
	.size	_ZNSt6vectorISt5tupleIJxxxEESaIS1_EE17_M_realloc_insertIJRxiiEEEvN9__gnu_cxx17__normal_iteratorIPS1_S3_EEDpOT_, .-_ZNSt6vectorISt5tupleIJxxxEESaIS1_EE17_M_realloc_insertIJRxiiEEEvN9__gnu_cxx17__normal_iteratorIPS1_S3_EEDpOT_
	.section	.text._ZNSt6vectorISt5tupleIJxxxEESaIS1_EE17_M_realloc_insertIJRiiRxEEEvN9__gnu_cxx17__normal_iteratorIPS1_S3_EEDpOT_,"axG",@progbits,_ZNSt6vectorISt5tupleIJxxxEESaIS1_EE17_M_realloc_insertIJRiiRxEEEvN9__gnu_cxx17__normal_iteratorIPS1_S3_EEDpOT_,comdat
	.align 2
	.p2align 4
	.weak	_ZNSt6vectorISt5tupleIJxxxEESaIS1_EE17_M_realloc_insertIJRiiRxEEEvN9__gnu_cxx17__normal_iteratorIPS1_S3_EEDpOT_
	.type	_ZNSt6vectorISt5tupleIJxxxEESaIS1_EE17_M_realloc_insertIJRiiRxEEEvN9__gnu_cxx17__normal_iteratorIPS1_S3_EEDpOT_, @function
_ZNSt6vectorISt5tupleIJxxxEESaIS1_EE17_M_realloc_insertIJRiiRxEEEvN9__gnu_cxx17__normal_iteratorIPS1_S3_EEDpOT_:
.LVL239:
.LFB13329:
	.loc 16 426 7 is_stmt 1 view -0
	.cfi_startproc
	.loc 16 426 7 is_stmt 0 view .LVU728
	endbr64	
	pushq	%r15	#
	.cfi_def_cfa_offset 16
	.cfi_offset 15, -16
	pushq	%r14	#
	.cfi_def_cfa_offset 24
	.cfi_offset 14, -24
	pushq	%r13	#
	.cfi_def_cfa_offset 32
	.cfi_offset 13, -32
	pushq	%r12	#
	.cfi_def_cfa_offset 40
	.cfi_offset 12, -40
	pushq	%rbp	#
	.cfi_def_cfa_offset 48
	.cfi_offset 6, -48
	pushq	%rbx	#
	.cfi_def_cfa_offset 56
	.cfi_offset 3, -56
	movq	%rsi, %rbx	# tmp196, __position
.LVL240:
.LBB3342:
.LBB3343:
.LBB3344:
.LBB3345:
# /usr/include/c++/11/bits/stl_vector.h:919:       { return size_type(this->_M_impl._M_finish - this->_M_impl._M_start); }
	.loc 6 919 50 view .LVU729
	movabsq	$-6148914691236517205, %rsi	#, tmp146
.LBE3345:
.LBE3344:
.LBE3343:
.LBE3342:
# /usr/include/c++/11/bits/vector.tcc:426:       vector<_Tp, _Alloc>::
	.loc 16 426 7 view .LVU730
	subq	$40, %rsp	#,
	.cfi_def_cfa_offset 96
	movq	8(%rdi), %r15	# MEM[(struct tuple * *)this_18(D) + 8B], _79
.LVL241:
.LBB3352:
.LBI3342:
	.loc 6 1756 7 is_stmt 1 view .LVU731
.LBB3348:
.LBB3347:
.LBI3344:
	.loc 6 918 7 view .LVU732
	movq	(%rdi), %r12	# MEM[(struct tuple * *)this_18(D)], _78
.LBB3346:
# /usr/include/c++/11/bits/stl_vector.h:919:       { return size_type(this->_M_impl._M_finish - this->_M_impl._M_start); }
	.loc 6 919 50 is_stmt 0 view .LVU733
	movq	%r15, %rax	# _79, tmp143
	subq	%r12, %rax	# _78, tmp143
	sarq	$3, %rax	#, tmp144
	imulq	%rsi, %rax	# tmp146, tmp145
	.loc 6 919 50 view .LVU734
.LBE3346:
.LBE3347:
# /usr/include/c++/11/bits/stl_vector.h:1758: 	if (max_size() - size() < __n)
	.loc 6 1758 2 view .LVU735
	movabsq	$384307168202282325, %rsi	#, tmp147
	cmpq	%rsi, %rax	# tmp147, tmp145
	je	.L165	#,
	testq	%rax, %rax	# tmp145
	movl	$1, %esi	#, tmp202
	movq	%rdi, %rbp	# tmp195, this
	cmovne	%rax, %rsi	# tmp145,, tmp149
	xorl	%edi, %edi	# _70
.LVL242:
	.loc 6 1758 2 view .LVU736
	addq	%rsi, %rax	# tmp149, tmp150
.LBE3348:
.LBE3352:
.LBB3353:
.LBB3354:
# /usr/include/c++/11/bits/stl_iterator.h:1271:     { return __lhs.base() - __rhs.base(); }
	.loc 7 1271 27 view .LVU737
	movq	%rbx, %rsi	# __position, _45
	setc	%dil	#, _70
.LVL243:
	.loc 7 1271 27 view .LVU738
	subq	%r12, %rsi	# _78, _45
.LBE3354:
.LBE3353:
.LBB3355:
.LBB3349:
# /usr/include/c++/11/bits/stl_vector.h:1762: 	return (__len < size() || __len > max_size()) ? max_size() : __len;
	.loc 6 1762 48 view .LVU739
	testq	%rdi, %rdi	# _70
	jne	.L157	#,
.LVL244:
	.loc 6 1762 48 view .LVU740
.LBE3349:
.LBE3355:
.LBB3356:
.LBI3356:
	.loc 6 811 7 is_stmt 1 view .LVU741
.LBB3357:
.LBI3357:
	.loc 7 1027 7 view .LVU742
	.loc 7 1027 7 is_stmt 0 view .LVU743
.LBE3357:
.LBE3356:
.LBB3358:
.LBI3353:
	.loc 7 1268 5 is_stmt 1 view .LVU744
	.loc 7 1268 5 is_stmt 0 view .LVU745
.LBE3358:
.LBB3359:
.LBI3359:
	.loc 6 343 7 is_stmt 1 view .LVU746
.LBB3360:
# /usr/include/c++/11/bits/stl_vector.h:346: 	return __n != 0 ? _Tr::allocate(_M_impl, __n) : pointer();
	.loc 6 346 18 is_stmt 0 view .LVU747
	testq	%rax, %rax	# tmp150
	jne	.L150	#,
	movl	$24, %r9d	#, _87
	xorl	%r14d, %r14d	# _34
	xorl	%r13d, %r13d	# iftmp.41_46
.LVL245:
.L156:
	.loc 6 346 18 view .LVU748
.LBE3360:
.LBE3359:
# /usr/include/c++/11/bits/vector.tcc:449: 	  _Alloc_traits::construct(this->_M_impl,
	.loc 16 449 28 view .LVU749
	leaq	0(%r13,%rsi), %rax	#, _3
.LVL246:
.LBB3380:
.LBI3380:
	.loc 13 511 2 is_stmt 1 view .LVU750
.LBB3381:
.LBI3381:
	.loc 15 94 5 view .LVU751
.LBB3382:
.LBI3382:
	.loc 18 742 2 view .LVU752
.LBB3383:
.LBI3383:
	.loc 19 77 5 view .LVU753
	.loc 19 77 5 is_stmt 0 view .LVU754
.LBE3383:
.LBB3384:
.LBI3384:
	.loc 19 77 5 is_stmt 1 view .LVU755
	.loc 19 77 5 is_stmt 0 view .LVU756
.LBE3384:
.LBB3385:
.LBI3385:
	.loc 19 77 5 is_stmt 1 view .LVU757
	.loc 19 77 5 is_stmt 0 view .LVU758
.LBE3385:
.LBB3386:
.LBI3386:
	.loc 18 290 2 is_stmt 1 view .LVU759
.LBB3387:
.LBI3387:
	.loc 19 77 5 view .LVU760
	.loc 19 77 5 is_stmt 0 view .LVU761
.LBE3387:
.LBB3388:
.LBI3388:
	.loc 19 77 5 is_stmt 1 view .LVU762
	.loc 19 77 5 is_stmt 0 view .LVU763
.LBE3388:
.LBB3389:
.LBI3389:
	.loc 18 290 2 is_stmt 1 view .LVU764
.LBB3390:
.LBI3390:
	.loc 19 77 5 view .LVU765
	.loc 19 77 5 is_stmt 0 view .LVU766
.LBE3390:
.LBB3391:
.LBI3391:
	.loc 18 440 2 is_stmt 1 view .LVU767
.LBB3392:
.LBI3392:
	.loc 19 77 5 view .LVU768
	.loc 19 77 5 is_stmt 0 view .LVU769
.LBE3392:
.LBB3393:
.LBI3393:
	.loc 18 199 19 is_stmt 1 view .LVU770
.LBB3394:
.LBB3395:
.LBI3395:
	.loc 19 77 5 view .LVU771
	.loc 19 77 5 is_stmt 0 view .LVU772
.LBE3395:
.LBE3394:
.LBE3393:
.LBE3391:
.LBB3400:
.LBB3401:
# /usr/include/c++/11/tuple:200: 	: _M_head_impl(std::forward<_UHead>(__h)) { }
	.loc 18 200 4 view .LVU773
	movslq	(%rcx), %rcx	# *__args#1_24(D), *__args#1_24(D)
.LVL247:
	.loc 18 200 4 view .LVU774
.LBE3401:
.LBE3400:
.LBB3404:
.LBB3398:
.LBB3396:
	movq	(%r8), %rsi	# *__args#2_23(D), *__args#2_23(D)
.LBE3396:
.LBE3398:
.LBE3404:
.LBE3389:
.LBB3408:
.LBB3409:
	movslq	(%rdx), %rdx	# *__args#0_25(D), *__args#0_25(D)
.LVL248:
	.loc 18 200 4 view .LVU775
.LBE3409:
.LBE3408:
.LBB3412:
.LBB3405:
.LBB3399:
.LBB3397:
	movq	%rsi, (%rax)	# *__args#2_23(D), MEM[(struct _Head_base *)_3]._M_head_impl
.LVL249:
	.loc 18 200 4 view .LVU776
.LBE3397:
.LBE3399:
.LBE3405:
.LBB3406:
.LBI3406:
	.loc 19 77 5 is_stmt 1 view .LVU777
	.loc 19 77 5 is_stmt 0 view .LVU778
.LBE3406:
.LBB3407:
.LBI3400:
	.loc 18 199 19 is_stmt 1 view .LVU779
.LBB3403:
.LBB3402:
.LBI3402:
	.loc 19 77 5 view .LVU780
.LBE3402:
# /usr/include/c++/11/tuple:200: 	: _M_head_impl(std::forward<_UHead>(__h)) { }
	.loc 18 200 4 is_stmt 0 view .LVU781
	movq	%rcx, 8(%rax)	# *__args#1_24(D), MEM[(struct _Head_base *)_3 + 8B]._M_head_impl
.LVL250:
	.loc 18 200 4 view .LVU782
.LBE3403:
.LBE3407:
.LBE3412:
.LBB3413:
.LBI3413:
	.loc 19 77 5 is_stmt 1 view .LVU783
	.loc 19 77 5 is_stmt 0 view .LVU784
.LBE3413:
.LBB3414:
.LBI3408:
	.loc 18 199 19 is_stmt 1 view .LVU785
.LBB3411:
.LBB3410:
.LBI3410:
	.loc 19 77 5 view .LVU786
.LBE3410:
# /usr/include/c++/11/tuple:200: 	: _M_head_impl(std::forward<_UHead>(__h)) { }
	.loc 18 200 4 is_stmt 0 view .LVU787
	movq	%rdx, 16(%rax)	# *__args#0_25(D), MEM[(struct _Head_base *)_3 + 16B]._M_head_impl
.LVL251:
	.loc 18 200 4 view .LVU788
.LBE3411:
.LBE3414:
.LBE3386:
.LBE3382:
.LBE3381:
.LBE3380:
.LBB3415:
.LBI3415:
	.loc 6 465 7 is_stmt 1 view .LVU789
.LBB3416:
.LBB3417:
.LBB3418:
.LBB3419:
.LBB3420:
	.loc 17 1031 22 view .LVU790
	cmpq	%r12, %rbx	# _78, __position
	je	.L151	#,
	movq	%r12, %rax	# _78, __first
# /usr/include/c++/11/bits/stl_uninitialized.h:1030:       _ForwardIterator __cur = __result;
	.loc 17 1030 24 is_stmt 0 view .LVU791
	movq	%r13, %rdx	# iftmp.41_46, __cur
.LVL252:
	.p2align 4,,10
	.p2align 3
.L152:
.LBB3421:
.LBI3421:
	.loc 17 986 5 is_stmt 1 view .LVU792
.LBB3422:
.LBB3423:
.LBI3423:
	.loc 13 511 2 view .LVU793
.LBB3424:
.LBI3424:
	.loc 15 94 5 view .LVU794
.LBB3425:
.LBI3425:
	.loc 18 756 17 view .LVU795
.LBB3426:
.LBI3426:
	.loc 18 301 7 view .LVU796
.LBB3427:
.LBB3428:
.LBI3428:
	.loc 18 301 7 view .LVU797
.LBB3429:
.LBB3430:
.LBI3430:
	.loc 18 454 7 view .LVU798
.LBB3431:
# /usr/include/c++/11/tuple:456:       : _Base(static_cast<_Base&&>(__in))
	.loc 18 456 41 is_stmt 0 view .LVU799
	movq	(%rax), %rcx	# MEM[(struct _Head_base *)__first_48], MEM[(struct _Head_base *)__first_48]
.LBE3431:
.LBE3430:
.LBE3429:
.LBE3428:
.LBE3427:
.LBE3426:
.LBE3425:
.LBE3424:
.LBE3423:
.LBE3422:
.LBE3421:
# /usr/include/c++/11/bits/stl_uninitialized.h:1031:       for (; __first != __last; ++__first, (void)++__cur)
	.loc 17 1031 7 view .LVU800
	addq	$24, %rax	#, __first
.LVL253:
# /usr/include/c++/11/bits/stl_uninitialized.h:1031:       for (; __first != __last; ++__first, (void)++__cur)
	.loc 17 1031 44 view .LVU801
	addq	$24, %rdx	#, __cur
.LVL254:
.LBB3442:
.LBB3441:
.LBB3440:
.LBB3439:
.LBB3438:
.LBB3437:
.LBB3436:
.LBB3435:
.LBB3434:
.LBB3433:
.LBB3432:
# /usr/include/c++/11/tuple:456:       : _Base(static_cast<_Base&&>(__in))
	.loc 18 456 41 view .LVU802
	movq	%rcx, -24(%rdx)	# MEM[(struct _Head_base *)__first_48], MEM[(struct _Head_base *)__cur_98]
.LVL255:
	.loc 18 456 41 view .LVU803
.LBE3432:
.LBE3433:
# /usr/include/c++/11/tuple:301:       _Tuple_impl(_Tuple_impl&&) = default;
	.loc 18 301 7 view .LVU804
	movq	-16(%rax), %rcx	# MEM[(struct _Head_base *)__first_48 + 8B], MEM[(struct _Head_base *)__first_48 + 8B]
	movq	%rcx, -16(%rdx)	# MEM[(struct _Head_base *)__first_48 + 8B], MEM[(struct _Head_base *)__cur_98 + 8B]
.LVL256:
	.loc 18 301 7 view .LVU805
.LBE3434:
.LBE3435:
	movq	-8(%rax), %rcx	# MEM[(struct _Head_base *)__first_48 + 16B], MEM[(struct _Head_base *)__first_48 + 16B]
	movq	%rcx, -8(%rdx)	# MEM[(struct _Head_base *)__first_48 + 16B], MEM[(struct _Head_base *)__cur_98 + 16B]
.LVL257:
	.loc 18 301 7 view .LVU806
.LBE3436:
.LBE3437:
.LBE3438:
.LBE3439:
.LBE3440:
.LBE3441:
.LBE3442:
	.loc 17 1031 7 is_stmt 1 view .LVU807
	.loc 17 1031 22 view .LVU808
	cmpq	%rbx, %rax	# __position, __first
	jne	.L152	#,
.LBE3420:
.LBE3419:
.LBE3418:
.LBE3417:
.LBE3416:
.LBE3415:
# /usr/include/c++/11/bits/vector.tcc:464: 	      ++__new_finish;
	.loc 16 464 8 is_stmt 0 view .LVU809
	leaq	-24(%rbx), %rax	#, tmp159
.LVL258:
	.loc 16 464 8 view .LVU810
	subq	%r12, %rax	# _78, tmp160
	shrq	$3, %rax	#, tmp161
	leaq	48(%r13,%rax,8), %r9	#, _87
.LVL259:
.L151:
.LBB3443:
.LBI3443:
	.loc 6 465 7 is_stmt 1 view .LVU811
.LBB3444:
.LBB3445:
.LBB3446:
.LBB3447:
.LBB3448:
	.loc 17 1031 22 view .LVU812
	cmpq	%r15, %rbx	# _79, __position
	je	.L153	#,
# /usr/include/c++/11/bits/stl_uninitialized.h:1030:       _ForwardIterator __cur = __result;
	.loc 17 1030 24 is_stmt 0 view .LVU813
	movq	%r9, %rdx	# _87, __cur
# /usr/include/c++/11/bits/stl_uninitialized.h:1031:       for (; __first != __last; ++__first, (void)++__cur)
	.loc 17 1031 22 view .LVU814
	movq	%rbx, %rax	# __position, __first
.LVL260:
	.p2align 4,,10
	.p2align 3
.L154:
.LBB3449:
.LBI3449:
	.loc 17 986 5 is_stmt 1 view .LVU815
.LBB3450:
.LBB3451:
.LBI3451:
	.loc 13 511 2 view .LVU816
.LBB3452:
.LBI3452:
	.loc 15 94 5 view .LVU817
.LBB3453:
.LBI3453:
	.loc 18 756 17 view .LVU818
.LBB3454:
.LBI3454:
	.loc 18 301 7 view .LVU819
.LBB3455:
.LBB3456:
.LBI3456:
	.loc 18 301 7 view .LVU820
.LBB3457:
.LBB3458:
.LBI3458:
	.loc 18 454 7 view .LVU821
.LBB3459:
# /usr/include/c++/11/tuple:456:       : _Base(static_cast<_Base&&>(__in))
	.loc 18 456 41 is_stmt 0 view .LVU822
	movq	(%rax), %rcx	# MEM[(struct _Head_base *)__first_21], MEM[(struct _Head_base *)__first_21]
.LBE3459:
.LBE3458:
.LBE3457:
.LBE3456:
.LBE3455:
.LBE3454:
.LBE3453:
.LBE3452:
.LBE3451:
.LBE3450:
.LBE3449:
# /usr/include/c++/11/bits/stl_uninitialized.h:1031:       for (; __first != __last; ++__first, (void)++__cur)
	.loc 17 1031 7 view .LVU823
	addq	$24, %rax	#, __first
.LVL261:
# /usr/include/c++/11/bits/stl_uninitialized.h:1031:       for (; __first != __last; ++__first, (void)++__cur)
	.loc 17 1031 44 view .LVU824
	addq	$24, %rdx	#, __cur
.LVL262:
.LBB3470:
.LBB3469:
.LBB3468:
.LBB3467:
.LBB3466:
.LBB3465:
.LBB3464:
.LBB3463:
.LBB3462:
.LBB3461:
.LBB3460:
# /usr/include/c++/11/tuple:456:       : _Base(static_cast<_Base&&>(__in))
	.loc 18 456 41 view .LVU825
	movq	%rcx, -24(%rdx)	# MEM[(struct _Head_base *)__first_21], MEM[(struct _Head_base *)__cur_13]
.LVL263:
	.loc 18 456 41 view .LVU826
.LBE3460:
.LBE3461:
# /usr/include/c++/11/tuple:301:       _Tuple_impl(_Tuple_impl&&) = default;
	.loc 18 301 7 view .LVU827
	movq	-16(%rax), %rcx	# MEM[(struct _Head_base *)__first_21 + 8B], MEM[(struct _Head_base *)__first_21 + 8B]
	movq	%rcx, -16(%rdx)	# MEM[(struct _Head_base *)__first_21 + 8B], MEM[(struct _Head_base *)__cur_13 + 8B]
.LVL264:
	.loc 18 301 7 view .LVU828
.LBE3462:
.LBE3463:
	movq	-8(%rax), %rcx	# MEM[(struct _Head_base *)__first_21 + 16B], MEM[(struct _Head_base *)__first_21 + 16B]
	movq	%rcx, -8(%rdx)	# MEM[(struct _Head_base *)__first_21 + 16B], MEM[(struct _Head_base *)__cur_13 + 16B]
.LVL265:
	.loc 18 301 7 view .LVU829
.LBE3464:
.LBE3465:
.LBE3466:
.LBE3467:
.LBE3468:
.LBE3469:
.LBE3470:
	.loc 17 1031 7 is_stmt 1 view .LVU830
	.loc 17 1031 22 view .LVU831
	cmpq	%r15, %rax	# _79, __first
	jne	.L154	#,
# /usr/include/c++/11/bits/stl_uninitialized.h:1031:       for (; __first != __last; ++__first, (void)++__cur)
	.loc 17 1031 44 is_stmt 0 view .LVU832
	subq	%rbx, %rax	# __position, tmp174
.LVL266:
	.loc 17 1031 44 view .LVU833
	subq	$24, %rax	#, tmp176
	shrq	$3, %rax	#, tmp177
	leaq	24(%r9,%rax,8), %r9	#, _87
.LVL267:
.L153:
	.loc 17 1031 44 view .LVU834
.LBE3448:
.LBE3447:
.LBE3446:
.LBE3445:
.LBE3444:
.LBE3443:
.LBB3471:
.LBI3471:
	.loc 6 350 7 is_stmt 1 view .LVU835
.LBB3472:
# /usr/include/c++/11/bits/stl_vector.h:353: 	if (__p)
	.loc 6 353 2 is_stmt 0 view .LVU836
	testq	%r12, %r12	# _78
	je	.L155	#,
.LBE3472:
.LBE3471:
# /usr/include/c++/11/bits/vector.tcc:501: 		    this->_M_impl._M_end_of_storage - __old_start);
	.loc 16 501 39 view .LVU837
	movq	16(%rbp), %rsi	# this_18(D)->D.267922._M_impl.D.267267._M_end_of_storage, tmp187
.LBB3485:
.LBB3483:
.LBB3473:
.LBB3474:
.LBB3475:
.LBB3476:
# /usr/include/c++/11/ext/new_allocator.h:145: 	::operator delete(__p
	.loc 9 145 19 view .LVU838
	movq	%r12, %rdi	# _78,
	movq	%r9, (%rsp)	# _87, %sfp
.LVL268:
	.loc 9 145 19 view .LVU839
.LBE3476:
.LBE3475:
.LBE3474:
.LBI3473:
	.loc 13 495 7 is_stmt 1 view .LVU840
.LBB3480:
.LBI3474:
	.loc 8 190 7 view .LVU841
.LBB3478:
.LBI3475:
	.loc 9 132 7 view .LVU842
	.loc 9 132 7 is_stmt 0 view .LVU843
.LBE3478:
.LBE3480:
.LBE3473:
.LBE3483:
.LBE3485:
# /usr/include/c++/11/bits/vector.tcc:501: 		    this->_M_impl._M_end_of_storage - __old_start);
	.loc 16 501 39 view .LVU844
	subq	%r12, %rsi	# _78, tmp187
.LBB3486:
.LBB3484:
.LBB3482:
.LBB3481:
.LBB3479:
.LBB3477:
# /usr/include/c++/11/ext/new_allocator.h:145: 	::operator delete(__p
	.loc 9 145 19 view .LVU845
	call	_ZdlPvm@PLT	#
.LVL269:
	.loc 9 145 19 view .LVU846
	movq	(%rsp), %r9	# %sfp, _87
.LVL270:
.L155:
	.loc 9 145 19 view .LVU847
.LBE3477:
.LBE3479:
.LBE3481:
.LBE3482:
.LBE3484:
.LBE3486:
# /usr/include/c++/11/bits/vector.tcc:502:       this->_M_impl._M_start = __new_start;
	.loc 16 502 30 view .LVU848
	movq	%r13, 0(%rbp)	# iftmp.41_46, this_18(D)->D.267922._M_impl.D.267267._M_start
# /usr/include/c++/11/bits/vector.tcc:503:       this->_M_impl._M_finish = __new_finish;
	.loc 16 503 31 view .LVU849
	movq	%r9, 8(%rbp)	# _87, this_18(D)->D.267922._M_impl.D.267267._M_finish
# /usr/include/c++/11/bits/vector.tcc:504:       this->_M_impl._M_end_of_storage = __new_start + __len;
	.loc 16 504 39 view .LVU850
	movq	%r14, 16(%rbp)	# _34, this_18(D)->D.267922._M_impl.D.267267._M_end_of_storage
# /usr/include/c++/11/bits/vector.tcc:505:     }
	.loc 16 505 5 view .LVU851
	addq	$40, %rsp	#,
	.cfi_remember_state
	.cfi_def_cfa_offset 56
	popq	%rbx	#
	.cfi_def_cfa_offset 48
.LVL271:
	.loc 16 505 5 view .LVU852
	popq	%rbp	#
	.cfi_def_cfa_offset 40
.LVL272:
	.loc 16 505 5 view .LVU853
	popq	%r12	#
	.cfi_def_cfa_offset 32
	popq	%r13	#
	.cfi_def_cfa_offset 24
.LVL273:
	.loc 16 505 5 view .LVU854
	popq	%r14	#
	.cfi_def_cfa_offset 16
	popq	%r15	#
	.cfi_def_cfa_offset 8
	ret	
.LVL274:
	.p2align 4,,10
	.p2align 3
.L157:
	.cfi_restore_state
.LBB3487:
.LBB3350:
	.loc 16 505 5 view .LVU855
	movabsq	$9223372036854775800, %r14	#, prephitmp_88
.LVL275:
.L149:
	.loc 16 505 5 view .LVU856
.LBE3350:
.LBE3487:
.LBB3488:
.LBB3378:
.LBB3361:
.LBB3362:
.LBB3363:
.LBB3364:
.LBB3365:
.LBB3366:
# /usr/include/c++/11/ext/new_allocator.h:127: 	return static_cast<_Tp*>(::operator new(__n * sizeof(_Tp)));
	.loc 9 127 41 view .LVU857
	movq	%r14, %rdi	# prephitmp_88,
	movq	%r8, 24(%rsp)	# __args#2, %sfp
	movq	%rcx, 16(%rsp)	# __args#1, %sfp
	movq	%rdx, 8(%rsp)	# __args#0, %sfp
	movq	%rsi, (%rsp)	# _45, %sfp
.LBE3366:
.LBE3365:
.LBE3364:
.LBE3363:
.LBE3362:
.LBI3361:
	.loc 6 343 7 is_stmt 1 view .LVU858
.LVL276:
.LBB3375:
.LBB3373:
.LBI3363:
	.loc 13 463 7 view .LVU859
.LBB3371:
.LBI3364:
	.loc 8 179 7 view .LVU860
.LBB3369:
.LBI3365:
	.loc 9 103 7 view .LVU861
.LBB3367:
# /usr/include/c++/11/ext/new_allocator.h:127: 	return static_cast<_Tp*>(::operator new(__n * sizeof(_Tp)));
	.loc 9 127 41 is_stmt 0 view .LVU862
	call	_Znwm@PLT	#
.LVL277:
	.loc 9 127 41 view .LVU863
	movq	(%rsp), %rsi	# %sfp, _45
	movq	8(%rsp), %rdx	# %sfp, __args#0
	movq	16(%rsp), %rcx	# %sfp, __args#1
	movq	24(%rsp), %r8	# %sfp, __args#2
	movq	%rax, %r13	# tmp200, iftmp.41_46
.LVL278:
	.loc 9 127 41 view .LVU864
.LBE3367:
.LBE3369:
.LBE3371:
.LBE3373:
.LBE3375:
.LBE3361:
.LBE3378:
.LBE3488:
# /usr/include/c++/11/bits/vector.tcc:504:       this->_M_impl._M_end_of_storage = __new_start + __len;
	.loc 16 504 53 view .LVU865
	addq	%rax, %r14	# iftmp.41_46, _34
# /usr/include/c++/11/bits/vector.tcc:464: 	      ++__new_finish;
	.loc 16 464 8 view .LVU866
	leaq	24(%rax), %r9	#, _87
	jmp	.L156	#
.LVL279:
.L150:
.LBB3489:
.LBB3379:
.LBB3377:
.LBB3376:
.LBB3374:
.LBB3372:
.LBB3370:
.LBB3368:
# /usr/include/c++/11/ext/new_allocator.h:127: 	return static_cast<_Tp*>(::operator new(__n * sizeof(_Tp)));
	.loc 9 127 41 view .LVU867
	movabsq	$384307168202282325, %rdi	#, tmp201
	cmpq	%rdi, %rax	# tmp201, tmp150
	cmova	%rdi, %rax	# tmp150,, tmp201, tmp189
.LVL280:
	.loc 9 127 41 view .LVU868
	leaq	(%rax,%rax,2), %r14	#, tmp192
	salq	$3, %r14	#, prephitmp_88
	jmp	.L149	#
.LVL281:
.L165:
	.loc 9 127 41 view .LVU869
.LBE3368:
.LBE3370:
.LBE3372:
.LBE3374:
.LBE3376:
.LBE3377:
.LBE3379:
.LBE3489:
.LBB3490:
.LBB3351:
# /usr/include/c++/11/bits/stl_vector.h:1759: 	  __throw_length_error(__N(__s));
	.loc 6 1759 24 view .LVU870
	leaq	.LC1(%rip), %rdi	#, tmp148
.LVL282:
	.loc 6 1759 24 view .LVU871
	call	_ZSt20__throw_length_errorPKc@PLT	#
.LVL283:
	.loc 6 1759 24 view .LVU872
.LBE3351:
.LBE3490:
	.cfi_endproc
.LFE13329:
	.size	_ZNSt6vectorISt5tupleIJxxxEESaIS1_EE17_M_realloc_insertIJRiiRxEEEvN9__gnu_cxx17__normal_iteratorIPS1_S3_EEDpOT_, .-_ZNSt6vectorISt5tupleIJxxxEESaIS1_EE17_M_realloc_insertIJRiiRxEEEvN9__gnu_cxx17__normal_iteratorIPS1_S3_EEDpOT_
	.section	.text._ZNSt23mersenne_twister_engineImLm64ELm312ELm156ELm31ELm13043109905998158313ELm29ELm6148914691236517205ELm17ELm8202884508482404352ELm37ELm18444473444759240704ELm43ELm6364136223846793005EE11_M_gen_randEv,"axG",@progbits,_ZNSt23mersenne_twister_engineImLm64ELm312ELm156ELm31ELm13043109905998158313ELm29ELm6148914691236517205ELm17ELm8202884508482404352ELm37ELm18444473444759240704ELm43ELm6364136223846793005EE11_M_gen_randEv,comdat
	.align 2
	.p2align 4
	.weak	_ZNSt23mersenne_twister_engineImLm64ELm312ELm156ELm31ELm13043109905998158313ELm29ELm6148914691236517205ELm17ELm8202884508482404352ELm37ELm18444473444759240704ELm43ELm6364136223846793005EE11_M_gen_randEv
	.type	_ZNSt23mersenne_twister_engineImLm64ELm312ELm156ELm31ELm13043109905998158313ELm29ELm6148914691236517205ELm17ELm8202884508482404352ELm37ELm18444473444759240704ELm43ELm6364136223846793005EE11_M_gen_randEv, @function
_ZNSt23mersenne_twister_engineImLm64ELm312ELm156ELm31ELm13043109905998158313ELm29ELm6148914691236517205ELm17ELm8202884508482404352ELm37ELm18444473444759240704ELm43ELm6364136223846793005EE11_M_gen_randEv:
.LVL284:
.LFB13777:
	.file 20 "/usr/include/c++/11/bits/random.tcc"
	.loc 20 394 5 is_stmt 1 view -0
	.cfi_startproc
	.loc 20 394 5 is_stmt 0 view .LVU874
	endbr64	
.LVL285:
.LBB3491:
	.loc 20 401 32 is_stmt 1 view .LVU875
.LBB3492:
# /usr/include/c++/11/bits/random.tcc:406: 		       ^ ((__y & 0x01) ? __a : 0));
	.loc 20 406 10 is_stmt 0 view .LVU876
	movabsq	$-5403634167711393303, %r9	#, tmp144
.LBE3492:
.LBE3491:
# /usr/include/c++/11/bits/random.tcc:394:     mersenne_twister_engine<_UIntType, __w, __n, __m, __r, __a, __u, __d,
	.loc 20 394 5 view .LVU877
	movq	%rdi, %r8	# tmp145, this
	movq	%rdi, %rax	# this, ivtmp.595
	movq	%r8, %rdx	# this, ivtmp.602
	leaq	1248(%rdi), %rdi	#, _52
.LVL286:
	.p2align 4,,10
	.p2align 3
.L168:
.LBB3494:
.LBB3493:
# /usr/include/c++/11/bits/random.tcc:403: 	  _UIntType __y = ((_M_x[__k] & __upper_mask)
	.loc 20 403 32 view .LVU878
	movq	(%rdx), %rcx	# MEM[(long unsigned int *)_61], tmp116
# /usr/include/c++/11/bits/random.tcc:404: 			   | (_M_x[__k + 1] & __lower_mask));
	.loc 20 404 24 view .LVU879
	movq	8(%rdx), %rsi	# MEM[(long unsigned int *)_61 + 8B], tmp118
# /usr/include/c++/11/bits/random.tcc:403: 	  _UIntType __y = ((_M_x[__k] & __upper_mask)
	.loc 20 403 32 view .LVU880
	andq	$-2147483648, %rcx	#, tmp116
# /usr/include/c++/11/bits/random.tcc:404: 			   | (_M_x[__k + 1] & __lower_mask));
	.loc 20 404 24 view .LVU881
	andl	$2147483647, %esi	#, tmp118
# /usr/include/c++/11/bits/random.tcc:403: 	  _UIntType __y = ((_M_x[__k] & __upper_mask)
	.loc 20 403 14 view .LVU882
	orq	%rsi, %rcx	# tmp118, __y
.LVL287:
# /usr/include/c++/11/bits/random.tcc:405: 	  _M_x[__k] = (_M_x[__k + __m] ^ (__y >> 1)
	.loc 20 405 40 view .LVU883
	movq	%rcx, %rsi	# __y, tmp120
	shrq	%rsi	# tmp120
# /usr/include/c++/11/bits/random.tcc:405: 	  _M_x[__k] = (_M_x[__k + __m] ^ (__y >> 1)
	.loc 20 405 33 view .LVU884
	xorq	1248(%rdx), %rsi	# MEM[(long unsigned int *)_61 + 1248B], _9
# /usr/include/c++/11/bits/random.tcc:406: 		       ^ ((__y & 0x01) ? __a : 0));
	.loc 20 406 26 view .LVU885
	andl	$1, %ecx	#, __y
.LVL288:
	.loc 20 406 26 view .LVU886
	je	.L167	#,
# /usr/include/c++/11/bits/random.tcc:406: 		       ^ ((__y & 0x01) ? __a : 0));
	.loc 20 406 10 view .LVU887
	xorq	%r9, %rsi	# tmp144, _9
.L167:
# /usr/include/c++/11/bits/random.tcc:405: 	  _M_x[__k] = (_M_x[__k + __m] ^ (__y >> 1)
	.loc 20 405 14 discriminator 4 view .LVU888
	movq	%rsi, (%rdx)	# _9, MEM[(long unsigned int *)_61]
.LVL289:
	.loc 20 405 14 discriminator 4 view .LVU889
.LBE3493:
	.loc 20 401 7 is_stmt 1 discriminator 4 view .LVU890
	.loc 20 401 32 discriminator 4 view .LVU891
	addq	$8, %rdx	#, ivtmp.602
	cmpq	%rdx, %rdi	# ivtmp.602, _52
	jne	.L168	#,
	leaq	1240(%r8), %rsi	#, _65
.LBE3494:
.LBB3495:
.LBB3496:
# /usr/include/c++/11/bits/random.tcc:414: 		       ^ ((__y & 0x01) ? __a : 0));
	.loc 20 414 10 is_stmt 0 view .LVU892
	movabsq	$-5403634167711393303, %rdi	#, tmp143
.LVL290:
	.p2align 4,,10
	.p2align 3
.L170:
# /usr/include/c++/11/bits/random.tcc:411: 	  _UIntType __y = ((_M_x[__k] & __upper_mask)
	.loc 20 411 32 view .LVU893
	movq	1248(%rax), %rdx	# MEM[(long unsigned int *)_68 + 1248B], tmp123
# /usr/include/c++/11/bits/random.tcc:412: 			   | (_M_x[__k + 1] & __lower_mask));
	.loc 20 412 24 view .LVU894
	movq	1256(%rax), %rcx	# MEM[(long unsigned int *)_68 + 1256B], tmp125
# /usr/include/c++/11/bits/random.tcc:411: 	  _UIntType __y = ((_M_x[__k] & __upper_mask)
	.loc 20 411 32 view .LVU895
	andq	$-2147483648, %rdx	#, tmp123
# /usr/include/c++/11/bits/random.tcc:412: 			   | (_M_x[__k + 1] & __lower_mask));
	.loc 20 412 24 view .LVU896
	andl	$2147483647, %ecx	#, tmp125
# /usr/include/c++/11/bits/random.tcc:411: 	  _UIntType __y = ((_M_x[__k] & __upper_mask)
	.loc 20 411 14 view .LVU897
	orq	%rcx, %rdx	# tmp125, __y
.LVL291:
# /usr/include/c++/11/bits/random.tcc:413: 	  _M_x[__k] = (_M_x[__k + (__m - __n)] ^ (__y >> 1)
	.loc 20 413 48 view .LVU898
	movq	%rdx, %rcx	# __y, tmp127
	shrq	%rcx	# tmp127
# /usr/include/c++/11/bits/random.tcc:413: 	  _M_x[__k] = (_M_x[__k + (__m - __n)] ^ (__y >> 1)
	.loc 20 413 41 view .LVU899
	xorq	(%rax), %rcx	# MEM[(long unsigned int *)_68], _20
# /usr/include/c++/11/bits/random.tcc:414: 		       ^ ((__y & 0x01) ? __a : 0));
	.loc 20 414 26 view .LVU900
	andl	$1, %edx	#, __y
.LVL292:
	.loc 20 414 26 view .LVU901
	je	.L169	#,
# /usr/include/c++/11/bits/random.tcc:414: 		       ^ ((__y & 0x01) ? __a : 0));
	.loc 20 414 10 view .LVU902
	xorq	%rdi, %rcx	# tmp143, _20
.L169:
# /usr/include/c++/11/bits/random.tcc:413: 	  _M_x[__k] = (_M_x[__k + (__m - __n)] ^ (__y >> 1)
	.loc 20 413 14 discriminator 4 view .LVU903
	movq	%rcx, 1248(%rax)	# _20, MEM[(long unsigned int *)_68 + 1248B]
.LVL293:
	.loc 20 413 14 discriminator 4 view .LVU904
.LBE3496:
	.loc 20 409 7 is_stmt 1 discriminator 4 view .LVU905
	.loc 20 409 42 discriminator 4 view .LVU906
	addq	$8, %rax	#, ivtmp.595
	cmpq	%rax, %rsi	# ivtmp.595, _65
	jne	.L170	#,
.LBE3495:
# /usr/include/c++/11/bits/random.tcc:417:       _UIntType __y = ((_M_x[__n - 1] & __upper_mask)
	.loc 20 417 39 is_stmt 0 view .LVU907
	movq	2488(%r8), %rax	# this_40(D)->_M_x[311], tmp130
# /usr/include/c++/11/bits/random.tcc:418: 		       | (_M_x[0] & __lower_mask));
	.loc 20 418 21 view .LVU908
	movq	(%r8), %rdx	# this_40(D)->_M_x[0], tmp132
# /usr/include/c++/11/bits/random.tcc:417:       _UIntType __y = ((_M_x[__n - 1] & __upper_mask)
	.loc 20 417 39 view .LVU909
	andq	$-2147483648, %rax	#, tmp130
# /usr/include/c++/11/bits/random.tcc:418: 		       | (_M_x[0] & __lower_mask));
	.loc 20 418 21 view .LVU910
	andl	$2147483647, %edx	#, tmp132
# /usr/include/c++/11/bits/random.tcc:417:       _UIntType __y = ((_M_x[__n - 1] & __upper_mask)
	.loc 20 417 17 view .LVU911
	orq	%rdx, %rax	# tmp132, __y
.LVL294:
# /usr/include/c++/11/bits/random.tcc:419:       _M_x[__n - 1] = (_M_x[__m - 1] ^ (__y >> 1)
	.loc 20 419 45 view .LVU912
	movq	%rax, %rdx	# __y, tmp134
	shrq	%rdx	# tmp134
# /usr/include/c++/11/bits/random.tcc:419:       _M_x[__n - 1] = (_M_x[__m - 1] ^ (__y >> 1)
	.loc 20 419 38 view .LVU913
	xorq	1240(%r8), %rdx	# this_40(D)->_M_x[155], _29
# /usr/include/c++/11/bits/random.tcc:420: 		       ^ ((__y & 0x01) ? __a : 0));
	.loc 20 420 26 view .LVU914
	testb	$1, %al	#, __y
	je	.L171	#,
# /usr/include/c++/11/bits/random.tcc:420: 		       ^ ((__y & 0x01) ? __a : 0));
	.loc 20 420 10 view .LVU915
	movabsq	$-5403634167711393303, %rax	#, tmp136
.LVL295:
	.loc 20 420 10 view .LVU916
	xorq	%rax, %rdx	# tmp136, _29
.L171:
# /usr/include/c++/11/bits/random.tcc:419:       _M_x[__n - 1] = (_M_x[__m - 1] ^ (__y >> 1)
	.loc 20 419 21 discriminator 4 view .LVU917
	movq	%rdx, 2488(%r8)	# _29, this_40(D)->_M_x[311]
.LVL296:
# /usr/include/c++/11/bits/random.tcc:421:       _M_p = 0;
	.loc 20 421 12 discriminator 4 view .LVU918
	movq	$0, 2496(%r8)	#, this_40(D)->_M_p
# /usr/include/c++/11/bits/random.tcc:422:     }
	.loc 20 422 5 discriminator 4 view .LVU919
	ret	
	.cfi_endproc
.LFE13777:
	.size	_ZNSt23mersenne_twister_engineImLm64ELm312ELm156ELm31ELm13043109905998158313ELm29ELm6148914691236517205ELm17ELm8202884508482404352ELm37ELm18444473444759240704ELm43ELm6364136223846793005EE11_M_gen_randEv, .-_ZNSt23mersenne_twister_engineImLm64ELm312ELm156ELm31ELm13043109905998158313ELm29ELm6148914691236517205ELm17ELm8202884508482404352ELm37ELm18444473444759240704ELm43ELm6364136223846793005EE11_M_gen_randEv
	.section	.text._ZNSt23mersenne_twister_engineImLm64ELm312ELm156ELm31ELm13043109905998158313ELm29ELm6148914691236517205ELm17ELm8202884508482404352ELm37ELm18444473444759240704ELm43ELm6364136223846793005EEclEv,"axG",@progbits,_ZNSt23mersenne_twister_engineImLm64ELm312ELm156ELm31ELm13043109905998158313ELm29ELm6148914691236517205ELm17ELm8202884508482404352ELm37ELm18444473444759240704ELm43ELm6364136223846793005EEclEv,comdat
	.align 2
	.p2align 4
	.weak	_ZNSt23mersenne_twister_engineImLm64ELm312ELm156ELm31ELm13043109905998158313ELm29ELm6148914691236517205ELm17ELm8202884508482404352ELm37ELm18444473444759240704ELm43ELm6364136223846793005EEclEv
	.type	_ZNSt23mersenne_twister_engineImLm64ELm312ELm156ELm31ELm13043109905998158313ELm29ELm6148914691236517205ELm17ELm8202884508482404352ELm37ELm18444473444759240704ELm43ELm6364136223846793005EEclEv, @function
_ZNSt23mersenne_twister_engineImLm64ELm312ELm156ELm31ELm13043109905998158313ELm29ELm6148914691236517205ELm17ELm8202884508482404352ELm37ELm18444473444759240704ELm43ELm6364136223846793005EEclEv:
.LVL297:
.LFB13578:
	.loc 20 450 5 is_stmt 1 view -0
	.cfi_startproc
	.loc 20 450 5 is_stmt 0 view .LVU921
	endbr64	
# /usr/include/c++/11/bits/random.tcc:455:       if (_M_p >= state_size)
	.loc 20 455 11 view .LVU922
	movq	2496(%rdi), %rax	# this_13(D)->_M_p, _1
# /usr/include/c++/11/bits/random.tcc:450:     mersenne_twister_engine<_UIntType, __w, __n, __m, __r, __a, __u, __d,
	.loc 20 450 5 view .LVU923
	pushq	%rbx	#
	.cfi_def_cfa_offset 16
	.cfi_offset 3, -16
# /usr/include/c++/11/bits/random.tcc:450:     mersenne_twister_engine<_UIntType, __w, __n, __m, __r, __a, __u, __d,
	.loc 20 450 5 view .LVU924
	movq	%rdi, %rbx	# tmp105, this
# /usr/include/c++/11/bits/random.tcc:455:       if (_M_p >= state_size)
	.loc 20 455 7 view .LVU925
	cmpq	$311, %rax	#, _1
	ja	.L186	#,
.LVL298:
.L184:
# /usr/include/c++/11/bits/random.tcc:460:       __z ^= (__z >> __u) & __d;
	.loc 20 460 27 view .LVU926
	movabsq	$6148914691236517205, %rcx	#, tmp99
# /usr/include/c++/11/bits/random.tcc:459:       result_type __z = _M_x[_M_p++];
	.loc 20 459 29 view .LVU927
	leaq	1(%rax), %rdx	#, tmp97
# /usr/include/c++/11/bits/random.tcc:459:       result_type __z = _M_x[_M_p++];
	.loc 20 459 19 view .LVU928
	movq	(%rbx,%rax,8), %rax	# this_13(D)->_M_x[prephitmp_23], __z
.LVL299:
# /usr/include/c++/11/bits/random.tcc:459:       result_type __z = _M_x[_M_p++];
	.loc 20 459 29 view .LVU929
	movq	%rdx, 2496(%rbx)	# tmp97, this_13(D)->_M_p
# /usr/include/c++/11/bits/random.tcc:466:     }
	.loc 20 466 5 view .LVU930
	popq	%rbx	#
	.cfi_remember_state
	.cfi_def_cfa_offset 8
.LVL300:
# /usr/include/c++/11/bits/random.tcc:460:       __z ^= (__z >> __u) & __d;
	.loc 20 460 19 view .LVU931
	movq	%rax, %rdx	# __z, tmp98
	shrq	$29, %rdx	#, tmp98
# /usr/include/c++/11/bits/random.tcc:460:       __z ^= (__z >> __u) & __d;
	.loc 20 460 27 view .LVU932
	andq	%rcx, %rdx	# tmp99, _5
# /usr/include/c++/11/bits/random.tcc:461:       __z ^= (__z << __s) & __b;
	.loc 20 461 27 view .LVU933
	movabsq	$8202884508482404352, %rcx	#, tmp101
# /usr/include/c++/11/bits/random.tcc:460:       __z ^= (__z >> __u) & __d;
	.loc 20 460 11 view .LVU934
	xorq	%rax, %rdx	# __z, __z
.LVL301:
# /usr/include/c++/11/bits/random.tcc:461:       __z ^= (__z << __s) & __b;
	.loc 20 461 19 view .LVU935
	movq	%rdx, %rax	# __z, tmp100
	salq	$17, %rax	#, tmp100
# /usr/include/c++/11/bits/random.tcc:461:       __z ^= (__z << __s) & __b;
	.loc 20 461 27 view .LVU936
	andq	%rcx, %rax	# tmp101, _7
# /usr/include/c++/11/bits/random.tcc:462:       __z ^= (__z << __t) & __c;
	.loc 20 462 27 view .LVU937
	movabsq	$-2270628950310912, %rcx	#, tmp103
# /usr/include/c++/11/bits/random.tcc:461:       __z ^= (__z << __s) & __b;
	.loc 20 461 11 view .LVU938
	xorq	%rdx, %rax	# __z, __z
.LVL302:
# /usr/include/c++/11/bits/random.tcc:462:       __z ^= (__z << __t) & __c;
	.loc 20 462 19 view .LVU939
	movq	%rax, %rdx	# __z, tmp102
	salq	$37, %rdx	#, tmp102
# /usr/include/c++/11/bits/random.tcc:462:       __z ^= (__z << __t) & __c;
	.loc 20 462 27 view .LVU940
	andq	%rcx, %rdx	# tmp103, _9
# /usr/include/c++/11/bits/random.tcc:462:       __z ^= (__z << __t) & __c;
	.loc 20 462 11 view .LVU941
	xorq	%rax, %rdx	# __z, __z
.LVL303:
# /usr/include/c++/11/bits/random.tcc:463:       __z ^= (__z >> __l);
	.loc 20 463 19 view .LVU942
	movq	%rdx, %rax	# __z, _10
	shrq	$43, %rax	#, _10
.LVL304:
# /usr/include/c++/11/bits/random.tcc:463:       __z ^= (__z >> __l);
	.loc 20 463 11 view .LVU943
	xorq	%rdx, %rax	# __z, __z
.LVL305:
# /usr/include/c++/11/bits/random.tcc:466:     }
	.loc 20 466 5 view .LVU944
	ret	
.LVL306:
	.p2align 4,,10
	.p2align 3
.L186:
	.cfi_restore_state
# /usr/include/c++/11/bits/random.tcc:456: 	_M_gen_rand();
	.loc 20 456 13 view .LVU945
	call	_ZNSt23mersenne_twister_engineImLm64ELm312ELm156ELm31ELm13043109905998158313ELm29ELm6148914691236517205ELm17ELm8202884508482404352ELm37ELm18444473444759240704ELm43ELm6364136223846793005EE11_M_gen_randEv	#
.LVL307:
# /usr/include/c++/11/bits/random.tcc:459:       result_type __z = _M_x[_M_p++];
	.loc 20 459 30 view .LVU946
	movq	2496(%rbx), %rax	# this_13(D)->_M_p, _1
	jmp	.L184	#
	.cfi_endproc
.LFE13578:
	.size	_ZNSt23mersenne_twister_engineImLm64ELm312ELm156ELm31ELm13043109905998158313ELm29ELm6148914691236517205ELm17ELm8202884508482404352ELm37ELm18444473444759240704ELm43ELm6364136223846793005EEclEv, .-_ZNSt23mersenne_twister_engineImLm64ELm312ELm156ELm31ELm13043109905998158313ELm29ELm6148914691236517205ELm17ELm8202884508482404352ELm37ELm18444473444759240704ELm43ELm6364136223846793005EEclEv
	.section	.rodata._ZN6Random5rangeExx.str1.1,"aMS",@progbits,1
.LC2:
	.string	"Random.range: invalid range"
	.section	.text._ZN6Random5rangeExx,"axG",@progbits,_ZN6Random5rangeExx,comdat
	.align 2
	.p2align 4
	.weak	_ZN6Random5rangeExx
	.type	_ZN6Random5rangeExx, @function
_ZN6Random5rangeExx:
.LVL308:
.LFB11921:
	.loc 5 38 6 is_stmt 1 view -0
	.cfi_startproc
	.cfi_personality 0x9b,DW.ref.__gxx_personality_v0
	.cfi_lsda 0x1b,.LLSDA11921
	.loc 5 38 6 is_stmt 0 view .LVU948
	endbr64	
	.loc 5 39 5 is_stmt 1 view .LVU949
# foo.cc:38:   ll range(ll i, ll j) {
	.loc 5 38 6 is_stmt 0 view .LVU950
	pushq	%r15	#
	.cfi_def_cfa_offset 16
	.cfi_offset 15, -16
	pushq	%r14	#
	.cfi_def_cfa_offset 24
	.cfi_offset 14, -24
	pushq	%r13	#
	.cfi_def_cfa_offset 32
	.cfi_offset 13, -32
	pushq	%r12	#
	.cfi_def_cfa_offset 40
	.cfi_offset 12, -40
	pushq	%rbp	#
	.cfi_def_cfa_offset 48
	.cfi_offset 6, -48
	pushq	%rbx	#
	.cfi_def_cfa_offset 56
	.cfi_offset 3, -56
	subq	$8, %rsp	#,
	.cfi_def_cfa_offset 64
# foo.cc:39:     if (i >= j) {
	.loc 5 39 5 view .LVU951
	cmpq	%rdx, %rsi	# j, i
	jge	.L200	#,
# foo.cc:42:     uniform_int_distribution<ll> dist(i, j - 1);
	.loc 5 42 47 view .LVU952
	leaq	-1(%rdx), %r13	#, _21
	movq	%rdi, %rbp	# tmp139, this
	movq	%rsi, %rbx	# tmp140, i
	.loc 5 42 5 is_stmt 1 view .LVU953
.LVL309:
.LBB3533:
.LBI3533:
	.file 21 "/usr/include/c++/11/bits/uniform_int_dist.h"
	.loc 21 131 7 view .LVU954
.LBB3534:
.LBI3534:
	.loc 21 93 2 view .LVU955
	.loc 21 97 4 view .LVU956
	.loc 21 97 4 is_stmt 0 view .LVU957
.LBE3534:
.LBE3533:
	.loc 5 43 5 is_stmt 1 view .LVU958
.LBB3535:
.LBI3535:
	.loc 21 192 2 view .LVU959
.LBB3536:
.LBI3536:
	.loc 21 276 7 view .LVU960
.LBB3537:
# /usr/include/c++/11/bits/uniform_int_dist.h:290: 	const __uctype __urange
	.loc 21 290 17 is_stmt 0 view .LVU961
	movq	%r13, %r12	# _21, __urange
	subq	%rsi, %r12	# i, __urange
.LVL310:
.LBB3538:
# /usr/include/c++/11/bits/uniform_int_dist.h:294: 	if (__urngrange > __urange)
	.loc 21 294 2 view .LVU962
	cmpq	$-1, %r12	#, __urange
	je	.L189	#,
.LBB3539:
.LBB3540:
.LBB3541:
.LBB3542:
# /usr/include/c++/11/bits/uniform_int_dist.h:258: 	  _Wp __product = _Wp(__g()) * _Wp(__range);
	.loc 21 258 27 view .LVU963
	call	_ZNSt23mersenne_twister_engineImLm64ELm312ELm156ELm31ELm13043109905998158313ELm29ELm6148914691236517205ELm17ELm8202884508482404352ELm37ELm18444473444759240704ELm43ELm6364136223846793005EEclEv	#
.LVL311:
	.loc 21 258 27 view .LVU964
.LBE3542:
.LBE3541:
.LBE3540:
# /usr/include/c++/11/bits/uniform_int_dist.h:298: 	    const __uctype __uerange = __urange + 1; // __urange can be zero
	.loc 21 298 21 view .LVU965
	addq	$1, %r12	#, __uerange
.LVL312:
.LBB3551:
.LBB3550:
.LBI3541:
	.loc 21 246 2 is_stmt 1 view .LVU966
.LBB3549:
# /usr/include/c++/11/bits/uniform_int_dist.h:258: 	  _Wp __product = _Wp(__g()) * _Wp(__range);
	.loc 21 258 8 is_stmt 0 view .LVU967
	mulq	%r12	# __uerange
	movq	%rax, %rsi	# __product, __product
	movq	%rdx, %rdi	# __product, __product
.LVL313:
.LBB3543:
# /usr/include/c++/11/bits/uniform_int_dist.h:260: 	  if (__low < __range)
	.loc 21 260 4 view .LVU968
	cmpq	%rax, %r12	# __low, __uerange
	jbe	.L190	#,
.LBB3544:
# /usr/include/c++/11/bits/uniform_int_dist.h:262: 	      _Up __threshold = -__range % __range;
	.loc 21 262 35 view .LVU969
	leaq	-1(%rbx), %rax	#, tmp123
# /usr/include/c++/11/bits/uniform_int_dist.h:262: 	      _Up __threshold = -__range % __range;
	.loc 21 262 12 view .LVU970
	xorl	%edx, %edx	# tmp125
# /usr/include/c++/11/bits/uniform_int_dist.h:262: 	      _Up __threshold = -__range % __range;
	.loc 21 262 35 view .LVU971
	subq	%r13, %rax	# _21, tmp124
# /usr/include/c++/11/bits/uniform_int_dist.h:262: 	      _Up __threshold = -__range % __range;
	.loc 21 262 12 view .LVU972
	divq	%r12	# __uerange
	movq	%rdx, %r13	# tmp125, tmp125
.LVL314:
	.loc 21 263 21 is_stmt 1 view .LVU973
	cmpq	%rdx, %rsi	# tmp125, __low
	jnb	.L190	#,
.LBB3545:
.LBB3546:
# /usr/include/c++/11/bits/random.tcc:455:       if (_M_p >= state_size)
	.loc 20 455 11 is_stmt 0 view .LVU974
	movq	2496(%rbp), %r8	# MEM[(struct mersenne_twister_engine *)this_6(D)]._M_p, prephitmp_26
# /usr/include/c++/11/bits/random.tcc:460:       __z ^= (__z >> __u) & __d;
	.loc 20 460 27 view .LVU975
	movabsq	$6148914691236517205, %rcx	#, tmp128
# /usr/include/c++/11/bits/random.tcc:461:       __z ^= (__z << __s) & __b;
	.loc 20 461 27 view .LVU976
	movabsq	$8202884508482404352, %r15	#, tmp130
# /usr/include/c++/11/bits/random.tcc:462:       __z ^= (__z << __t) & __c;
	.loc 20 462 27 view .LVU977
	movabsq	$-2270628950310912, %r14	#, tmp132
	jmp	.L192	#
.LVL315:
	.p2align 4,,10
	.p2align 3
.L191:
# /usr/include/c++/11/bits/random.tcc:459:       result_type __z = _M_x[_M_p++];
	.loc 20 459 19 view .LVU978
	movq	0(%rbp,%rax,8), %rsi	# MEM[(struct mersenne_twister_engine *)this_6(D)]._M_x[prephitmp_13], __z
.LVL316:
# /usr/include/c++/11/bits/random.tcc:459:       result_type __z = _M_x[_M_p++];
	.loc 20 459 29 view .LVU979
	leaq	1(%rax), %r8	#, prephitmp_26
	movq	%r8, 2496(%rbp)	# prephitmp_26, MEM[(struct mersenne_twister_engine *)this_6(D)]._M_p
# /usr/include/c++/11/bits/random.tcc:460:       __z ^= (__z >> __u) & __d;
	.loc 20 460 19 view .LVU980
	movq	%rsi, %rax	# __z, tmp127
	shrq	$29, %rax	#, tmp127
# /usr/include/c++/11/bits/random.tcc:460:       __z ^= (__z >> __u) & __d;
	.loc 20 460 27 view .LVU981
	andq	%rcx, %rax	# tmp128, _52
# /usr/include/c++/11/bits/random.tcc:460:       __z ^= (__z >> __u) & __d;
	.loc 20 460 11 view .LVU982
	xorq	%rax, %rsi	# _52, __z
.LVL317:
# /usr/include/c++/11/bits/random.tcc:461:       __z ^= (__z << __s) & __b;
	.loc 20 461 19 view .LVU983
	movq	%rsi, %rax	# __z, tmp129
	salq	$17, %rax	#, tmp129
# /usr/include/c++/11/bits/random.tcc:461:       __z ^= (__z << __s) & __b;
	.loc 20 461 27 view .LVU984
	andq	%r15, %rax	# tmp130, _55
# /usr/include/c++/11/bits/random.tcc:461:       __z ^= (__z << __s) & __b;
	.loc 20 461 11 view .LVU985
	xorq	%rax, %rsi	# _55, __z
.LVL318:
# /usr/include/c++/11/bits/random.tcc:462:       __z ^= (__z << __t) & __c;
	.loc 20 462 19 view .LVU986
	movq	%rsi, %rax	# __z, tmp131
	salq	$37, %rax	#, tmp131
# /usr/include/c++/11/bits/random.tcc:462:       __z ^= (__z << __t) & __c;
	.loc 20 462 27 view .LVU987
	andq	%r14, %rax	# tmp132, _58
# /usr/include/c++/11/bits/random.tcc:462:       __z ^= (__z << __t) & __c;
	.loc 20 462 11 view .LVU988
	xorq	%rax, %rsi	# _58, __z
.LVL319:
# /usr/include/c++/11/bits/random.tcc:463:       __z ^= (__z >> __l);
	.loc 20 463 19 view .LVU989
	movq	%rsi, %rax	# __z, _60
	shrq	$43, %rax	#, _60
.LVL320:
# /usr/include/c++/11/bits/random.tcc:463:       __z ^= (__z >> __l);
	.loc 20 463 11 view .LVU990
	xorq	%rax, %rsi	# _60, __z
.LVL321:
	.loc 20 463 11 view .LVU991
.LBE3546:
.LBE3545:
# /usr/include/c++/11/bits/uniform_int_dist.h:265: 		  __product = _Wp(__g()) * _Wp(__range);
	.loc 21 265 15 view .LVU992
	movq	%rsi, %rax	# __z, __product
	mulq	%r12	# __uerange
.LVL322:
	.loc 21 265 15 view .LVU993
	movq	%rdx, %rdi	# __product, __product
	.loc 21 263 21 is_stmt 1 view .LVU994
	cmpq	%rax, %r13	# __product, tmp125
	jbe	.L190	#,
.LVL323:
.L192:
.LBB3548:
.LBI3545:
	.loc 20 450 5 view .LVU995
.LBB3547:
	movq	%r8, %rax	# prephitmp_26, prephitmp_13
# /usr/include/c++/11/bits/random.tcc:455:       if (_M_p >= state_size)
	.loc 20 455 7 is_stmt 0 view .LVU996
	cmpq	$311, %r8	#, prephitmp_13
	jbe	.L191	#,
# /usr/include/c++/11/bits/random.tcc:456: 	_M_gen_rand();
	.loc 20 456 13 view .LVU997
	movq	%rbp, %rdi	# this,
	call	_ZNSt23mersenne_twister_engineImLm64ELm312ELm156ELm31ELm13043109905998158313ELm29ELm6148914691236517205ELm17ELm8202884508482404352ELm37ELm18444473444759240704ELm43ELm6364136223846793005EE11_M_gen_randEv	#
.LVL324:
# /usr/include/c++/11/bits/random.tcc:459:       result_type __z = _M_x[_M_p++];
	.loc 20 459 30 view .LVU998
	movq	2496(%rbp), %rax	# MEM[(struct mersenne_twister_engine *)this_6(D)]._M_p, prephitmp_13
	movabsq	$6148914691236517205, %rcx	#, tmp128
	jmp	.L191	#
.LVL325:
	.p2align 4,,10
	.p2align 3
.L190:
	.loc 20 459 30 view .LVU999
.LBE3547:
.LBE3548:
.LBE3544:
.LBE3543:
# /usr/include/c++/11/bits/uniform_int_dist.h:269: 	  return __product >> _Up_traits::__digits;
	.loc 21 269 21 view .LVU1000
	movq	%rdi, %rax	# __product, __ret
.LVL326:
.L193:
	.loc 21 269 21 view .LVU1001
.LBE3549:
.LBE3550:
.LBE3551:
.LBE3539:
.LBE3538:
.LBE3537:
.LBE3536:
.LBE3535:
# foo.cc:44:   }
	.loc 5 44 3 view .LVU1002
	addq	$8, %rsp	#,
	.cfi_remember_state
	.cfi_def_cfa_offset 56
.LBB3558:
.LBB3556:
.LBB3554:
# /usr/include/c++/11/bits/uniform_int_dist.h:360: 	return __ret + __param.a();
	.loc 21 360 15 view .LVU1003
	addq	%rbx, %rax	# i, tmp135
.LBE3554:
.LBE3556:
.LBE3558:
# foo.cc:44:   }
	.loc 5 44 3 view .LVU1004
	popq	%rbx	#
	.cfi_def_cfa_offset 48
.LVL327:
	.loc 5 44 3 view .LVU1005
	popq	%rbp	#
	.cfi_def_cfa_offset 40
.LVL328:
	.loc 5 44 3 view .LVU1006
	popq	%r12	#
	.cfi_def_cfa_offset 32
	popq	%r13	#
	.cfi_def_cfa_offset 24
	popq	%r14	#
	.cfi_def_cfa_offset 16
	popq	%r15	#
	.cfi_def_cfa_offset 8
	ret	
.LVL329:
	.p2align 4,,10
	.p2align 3
.L189:
	.cfi_restore_state
.LBB3559:
.LBB3557:
.LBB3555:
.LBB3553:
.LBB3552:
# /usr/include/c++/11/bits/uniform_int_dist.h:358: 	  __ret = __uctype(__urng()) - __urngmin;
	.loc 21 358 27 view .LVU1007
	call	_ZNSt23mersenne_twister_engineImLm64ELm312ELm156ELm31ELm13043109905998158313ELm29ELm6148914691236517205ELm17ELm8202884508482404352ELm37ELm18444473444759240704ELm43ELm6364136223846793005EEclEv	#
.LVL330:
	.loc 21 358 27 view .LVU1008
	jmp	.L193	#
.LVL331:
.L200:
	.loc 21 358 27 view .LVU1009
.LBE3552:
.LBE3553:
.LBE3555:
.LBE3557:
.LBE3559:
	.loc 5 40 7 is_stmt 1 view .LVU1010
# foo.cc:40:       throw runtime_error("Random.range: invalid range");
	.loc 5 40 56 is_stmt 0 view .LVU1011
	movl	$16, %edi	#,
.LVL332:
	.loc 5 40 56 view .LVU1012
	call	__cxa_allocate_exception@PLT	#
.LVL333:
# foo.cc:40:       throw runtime_error("Random.range: invalid range");
	.loc 5 40 7 view .LVU1013
	leaq	.LC2(%rip), %rsi	#, tmp119
	movq	%rax, %rdi	# _9,
# foo.cc:40:       throw runtime_error("Random.range: invalid range");
	.loc 5 40 56 view .LVU1014
	movq	%rax, %rbp	# tmp142, _9
.LEHB2:
# foo.cc:40:       throw runtime_error("Random.range: invalid range");
	.loc 5 40 7 view .LVU1015
	call	_ZNSt13runtime_errorC1EPKc@PLT	#
.LVL334:
.LEHE2:
# foo.cc:40:       throw runtime_error("Random.range: invalid range");
	.loc 5 40 56 discriminator 2 view .LVU1016
	movq	_ZNSt13runtime_errorD1Ev@GOTPCREL(%rip), %rdx	#,
	leaq	_ZTISt13runtime_error(%rip), %rsi	#, tmp122
	movq	%rbp, %rdi	# _9,
.LEHB3:
	call	__cxa_throw@PLT	#
.LVL335:
.L196:
	endbr64	
# foo.cc:40:       throw runtime_error("Random.range: invalid range");
	.loc 5 40 56 view .LVU1017
	movq	%rax, %r12	# tmp145, tmp136
.L194:
# foo.cc:40:       throw runtime_error("Random.range: invalid range");
	.loc 5 40 56 discriminator 1 view .LVU1018
	movq	%rbp, %rdi	# _9,
	call	__cxa_free_exception@PLT	#
.LVL336:
	movq	%r12, %rdi	# tmp136,
	call	_Unwind_Resume@PLT	#
.LVL337:
.LEHE3:
	.cfi_endproc
.LFE11921:
	.section	.gcc_except_table._ZN6Random5rangeExx,"aG",@progbits,_ZN6Random5rangeExx,comdat
.LLSDA11921:
	.byte	0xff
	.byte	0xff
	.byte	0x1
	.uleb128 .LLSDACSE11921-.LLSDACSB11921
.LLSDACSB11921:
	.uleb128 .LEHB2-.LFB11921
	.uleb128 .LEHE2-.LEHB2
	.uleb128 .L196-.LFB11921
	.uleb128 0
	.uleb128 .LEHB3-.LFB11921
	.uleb128 .LEHE3-.LEHB3
	.uleb128 0
	.uleb128 0
.LLSDACSE11921:
	.section	.text._ZN6Random5rangeExx,"axG",@progbits,_ZN6Random5rangeExx,comdat
	.size	_ZN6Random5rangeExx, .-_ZN6Random5rangeExx
	.section	.rodata.str1.1,"aMS",@progbits,1
.LC3:
	.string	"int main()"
.LC4:
	.string	"foo.cc"
.LC5:
	.string	"vec1[i] == vec2[i]"
	.section	.text.unlikely,"ax",@progbits
.LCOLDB6:
	.section	.text.startup,"ax",@progbits
.LHOTB6:
	.p2align 4
	.section	.text.unlikely
.Ltext_cold0:
	.section	.text.startup
	.globl	main
	.type	main, @function
main:
.LFB11922:
	.loc 5 55 12 is_stmt 1 view -0
	.cfi_startproc
	.cfi_personality 0x9b,DW.ref.__gxx_personality_v0
	.cfi_lsda 0x1b,.LLSDA11922
	endbr64	
	pushq	%r15	#
	.cfi_def_cfa_offset 16
	.cfi_offset 15, -16
.LBB4089:
.LBB4090:
.LBB4091:
.LBB4092:
.LBB4093:
# /usr/include/c++/11/bits/random.h:1648:     { return this->_M_getval(); }
	.loc 2 1648 29 is_stmt 0 view .LVU1020
	leaq	_ZN6Random17the_random_deviceE(%rip), %rdi	#, tmp197
.LBE4093:
.LBE4092:
.LBE4091:
.LBE4090:
.LBE4089:
# foo.cc:55: int main() {
	.loc 5 55 12 view .LVU1021
	pushq	%r14	#
	.cfi_def_cfa_offset 24
	.cfi_offset 14, -24
	pushq	%r13	#
	.cfi_def_cfa_offset 32
	.cfi_offset 13, -32
	pushq	%r12	#
	.cfi_def_cfa_offset 40
	.cfi_offset 12, -40
	pushq	%rbp	#
	.cfi_def_cfa_offset 48
	.cfi_offset 6, -48
	pushq	%rbx	#
	.cfi_def_cfa_offset 56
	.cfi_offset 3, -56
	subq	$2696, %rsp	#,
	.cfi_def_cfa_offset 2752
# foo.cc:55: int main() {
	.loc 5 55 12 view .LVU1022
	movq	%fs:40, %rax	# MEM[(<address-space-1> long unsigned int *)40B], tmp345
	movq	%rax, 2680(%rsp)	# tmp345, D.302207
	xorl	%eax, %eax	# tmp345
	.loc 5 57 3 is_stmt 1 view .LVU1023
.LVL338:
.LBB4116:
.LBI4089:
	.loc 5 35 3 view .LVU1024
.LBB4114:
.LBB4112:
.LBB4095:
.LBI4092:
	.loc 2 1647 5 view .LVU1025
.LBB4094:
	.loc 2 1648 7 view .LVU1026
	leaq	176(%rsp), %rbp	#, tmp318
.LVL339:
.LEHB4:
# /usr/include/c++/11/bits/random.h:1648:     { return this->_M_getval(); }
	.loc 2 1648 29 is_stmt 0 view .LVU1027
	call	_ZNSt13random_device9_M_getvalEv@PLT	#
.LVL340:
	.loc 2 1648 29 view .LVU1028
.LBE4094:
.LBE4095:
.LBB4096:
.LBB4097:
.LBB4098:
.LBB4099:
.LBB4100:
# /usr/include/c++/11/bits/random.tcc:330:       for (size_t __i = 1; __i < state_size; ++__i)
	.loc 20 330 19 view .LVU1029
	movl	$1, %edx	#, __i
.LBB4101:
# /usr/include/c++/11/bits/random.tcc:334: 	  __x *= __f;
	.loc 20 334 8 view .LVU1030
	movabsq	$6364136223846793005, %rsi	#, tmp199
.LBE4101:
.LBE4100:
.LBE4099:
.LBE4098:
.LBE4097:
.LBE4096:
# foo.cc:35:   Random() : rng(the_random_device()) {}
	.loc 5 35 14 view .LVU1031
	movl	%eax, %ecx	# tmp327, prephitmp_321
.LVL341:
.LBB4110:
.LBI4096:
	.loc 2 530 7 is_stmt 1 view .LVU1032
.LBB4108:
.LBB4106:
.LBI4098:
	.loc 20 323 5 view .LVU1033
.LBB4104:
# /usr/include/c++/11/bits/random.tcc:327:       _M_x[0] = __detail::__mod<_UIntType,
	.loc 20 327 15 is_stmt 0 view .LVU1034
	movq	%rcx, 176(%rsp)	# prephitmp_321, MEM[(struct mersenne_twister_engine *)&rand]._M_x[0]
.LVL342:
.LBB4103:
	.loc 20 330 32 is_stmt 1 view .LVU1035
	jmp	.L203	#
.LVL343:
	.p2align 4,,10
	.p2align 3
.L251:
.LBB4102:
# /usr/include/c++/11/bits/random.tcc:332: 	  _UIntType __x = _M_x[__i - 1];
	.loc 20 332 14 is_stmt 0 view .LVU1036
	movq	-8(%rbp,%rdx,8), %rcx	# MEM[(long unsigned int *)&rand + -8B + __i_196 * 8], prephitmp_321
.LVL344:
.L203:
# /usr/include/c++/11/bits/random.tcc:333: 	  __x ^= __x >> (__w - 2);
	.loc 20 333 15 view .LVU1037
	movq	%rcx, %rax	# prephitmp_321, tmp198
	shrq	$62, %rax	#, tmp198
# /usr/include/c++/11/bits/random.tcc:333: 	  __x ^= __x >> (__w - 2);
	.loc 20 333 8 view .LVU1038
	xorq	%rcx, %rax	# prephitmp_321, __x
.LVL345:
# /usr/include/c++/11/bits/random.tcc:334: 	  __x *= __f;
	.loc 20 334 8 view .LVU1039
	imulq	%rsi, %rax	# tmp199, __x
.LVL346:
# /usr/include/c++/11/bits/random.tcc:335: 	  __x += __detail::__mod<_UIntType, __n>(__i);
	.loc 20 335 8 view .LVU1040
	addq	%rdx, %rax	# __i, tmp201
.LVL347:
	.loc 20 335 8 view .LVU1041
	movq	%rax, 0(%rbp,%rdx,8)	# tmp201, MEM[(long unsigned int *)&rand + __i_115 * 8]
.LBE4102:
	.loc 20 330 7 is_stmt 1 view .LVU1042
	addq	$1, %rdx	#, __i
.LVL348:
	.loc 20 330 32 view .LVU1043
	cmpq	$312, %rdx	#, __i
	jne	.L251	#,
.LBE4103:
.LBE4104:
.LBE4106:
.LBE4108:
.LBE4110:
.LBE4112:
.LBE4114:
.LBE4116:
.LBB4117:
.LBB4118:
.LBB4119:
.LBB4120:
.LBB4121:
.LBB4122:
# /usr/include/c++/11/bits/stl_vector.h:98: 	: _M_start(), _M_finish(), _M_end_of_storage()
	.loc 6 98 4 is_stmt 0 view .LVU1044
	movq	$0, 48(%rsp)	#, MEM[(struct _Vector_impl_data *)&nbr]._M_start
.LBE4122:
.LBE4121:
.LBE4120:
.LBE4119:
.LBB4128:
.LBB4129:
.LBB4130:
.LBB4131:
.LBB4132:
.LBB4133:
.LBB4134:
.LBB4135:
.LBB4136:
.LBB4137:
# /usr/include/c++/11/ext/new_allocator.h:127: 	return static_cast<_Tp*>(::operator new(__n * sizeof(_Tp)));
	.loc 9 127 41 view .LVU1045
	movl	$1572864, %edi	#,
.LBE4137:
.LBE4136:
.LBE4135:
.LBE4134:
.LBE4133:
.LBE4132:
.LBE4131:
.LBE4130:
.LBE4129:
.LBE4128:
.LBE4118:
.LBE4117:
.LBB4183:
.LBB4115:
.LBB4113:
.LBB4111:
.LBB4109:
.LBB4107:
.LBB4105:
# /usr/include/c++/11/bits/random.tcc:339:       _M_p = state_size;
	.loc 20 339 12 view .LVU1046
	movq	$312, 2672(%rsp)	#, MEM[(struct mersenne_twister_engine *)&rand]._M_p
.LVL349:
	.loc 20 339 12 view .LVU1047
.LBE4105:
.LBE4107:
.LBE4109:
.LBE4111:
.LBE4113:
.LBE4115:
.LBE4183:
	.loc 5 59 3 is_stmt 1 view .LVU1048
	.loc 5 60 3 view .LVU1049
.LBB4184:
.LBI4184:
	.loc 8 156 7 view .LVU1050
.LBB4185:
.LBI4185:
	.loc 9 79 7 view .LVU1051
	.loc 9 79 7 is_stmt 0 view .LVU1052
.LBE4185:
.LBE4184:
.LBB4186:
.LBI4117:
	.loc 6 510 7 is_stmt 1 view .LVU1053
.LBB4157:
.LBI4157:
	.loc 6 1767 7 view .LVU1054
.LBB4158:
.LBI4158:
	.loc 8 159 7 view .LVU1055
.LBB4159:
.LBI4159:
	.loc 9 82 7 view .LVU1056
	.loc 9 82 7 is_stmt 0 view .LVU1057
.LBE4159:
.LBE4158:
.LBB4160:
.LBI4160:
	.loc 8 174 7 is_stmt 1 view .LVU1058
	.loc 8 174 7 is_stmt 0 view .LVU1059
.LBE4160:
.LBE4157:
.LBB4161:
.LBI4118:
	.loc 6 303 7 is_stmt 1 view .LVU1060
.LBB4155:
.LBI4119:
	.loc 6 136 2 view .LVU1061
.LBB4125:
.LBI4125:
	.loc 8 159 7 view .LVU1062
.LBB4126:
.LBI4126:
	.loc 9 82 7 view .LVU1063
	.loc 9 82 7 is_stmt 0 view .LVU1064
.LBE4126:
.LBE4125:
.LBB4127:
.LBI4120:
	.loc 6 97 2 is_stmt 1 view .LVU1065
.LBB4124:
.LBB4123:
# /usr/include/c++/11/bits/stl_vector.h:98: 	: _M_start(), _M_finish(), _M_end_of_storage()
	.loc 6 98 16 is_stmt 0 view .LVU1066
	movq	$0, 56(%rsp)	#, MEM[(struct _Vector_impl_data *)&nbr]._M_finish
# /usr/include/c++/11/bits/stl_vector.h:98: 	: _M_start(), _M_finish(), _M_end_of_storage()
	.loc 6 98 29 view .LVU1067
	movq	$0, 64(%rsp)	#, MEM[(struct _Vector_impl_data *)&nbr]._M_end_of_storage
.LVL350:
	.loc 6 98 29 view .LVU1068
.LBE4123:
.LBE4124:
.LBE4127:
.LBE4155:
.LBB4156:
.LBI4128:
	.loc 6 359 7 is_stmt 1 view .LVU1069
.LBB4154:
.LBB4152:
.LBI4130:
	.loc 6 343 7 view .LVU1070
.LBB4150:
.LBB4148:
.LBI4132:
	.loc 6 343 7 view .LVU1071
.LBB4146:
.LBB4144:
.LBI4134:
	.loc 13 463 7 view .LVU1072
.LBB4142:
.LBI4135:
	.loc 8 179 7 view .LVU1073
.LBB4140:
.LBI4136:
	.loc 9 103 7 view .LVU1074
.LBB4138:
# /usr/include/c++/11/ext/new_allocator.h:127: 	return static_cast<_Tp*>(::operator new(__n * sizeof(_Tp)));
	.loc 9 127 41 is_stmt 0 view .LVU1075
	call	_Znwm@PLT	#
.LVL351:
.LEHE4:
	.loc 9 127 41 view .LVU1076
.LBE4138:
.LBE4140:
.LBE4142:
.LBE4144:
.LBE4146:
.LBE4148:
.LBE4150:
.LBE4152:
# /usr/include/c++/11/bits/stl_vector.h:363: 	this->_M_impl._M_end_of_storage = this->_M_impl._M_start + __n;
	.loc 6 363 59 view .LVU1077
	leaq	1572864(%rax), %rdx	#, _200
# /usr/include/c++/11/bits/stl_vector.h:361: 	this->_M_impl._M_start = this->_M_allocate(__n);
	.loc 6 361 25 view .LVU1078
	movq	%rax, 48(%rsp)	# prephitmp_338, MEM[(struct _Vector_base *)&nbr]._M_impl.D.265084._M_start
.LBB4153:
.LBB4151:
.LBB4149:
.LBB4147:
.LBB4145:
.LBB4143:
.LBB4141:
.LBB4139:
# /usr/include/c++/11/ext/new_allocator.h:127: 	return static_cast<_Tp*>(::operator new(__n * sizeof(_Tp)));
	.loc 9 127 41 view .LVU1079
	movq	%rax, %r13	# tmp328, prephitmp_338
.LVL352:
	.loc 9 127 41 view .LVU1080
.LBE4139:
.LBE4141:
.LBE4143:
.LBE4145:
.LBE4147:
.LBE4149:
.LBE4151:
.LBE4153:
# /usr/include/c++/11/bits/stl_vector.h:363: 	this->_M_impl._M_end_of_storage = this->_M_impl._M_start + __n;
	.loc 6 363 34 view .LVU1081
	movq	%rdx, 64(%rsp)	# _200, MEM[(struct _Vector_base *)&nbr]._M_impl.D.265084._M_end_of_storage
.LVL353:
	.loc 6 363 34 view .LVU1082
.LBE4154:
.LBE4156:
.LBE4161:
.LBB4162:
.LBI4162:
	.loc 6 1603 7 is_stmt 1 view .LVU1083
.LBB4163:
.LBB4164:
.LBI4164:
	.loc 17 702 5 view .LVU1084
.LBB4165:
.LBB4166:
.LBB4167:
.LBB4168:
	.loc 17 578 19 view .LVU1085
	.p2align 4,,10
	.p2align 3
.L204:
.LBB4169:
.LBI4169:
	.loc 15 109 5 view .LVU1086
.LBB4170:
.LBI4170:
	.loc 6 487 7 view .LVU1087
.LBB4171:
.LBI4171:
	.loc 6 288 7 view .LVU1088
.LBB4172:
.LBI4172:
	.loc 6 131 2 view .LVU1089
.LBB4173:
.LBI4173:
	.loc 8 156 7 view .LVU1090
.LBB4174:
.LBI4174:
	.loc 9 79 7 view .LVU1091
	.loc 9 79 7 is_stmt 0 view .LVU1092
.LBE4174:
.LBE4173:
.LBB4175:
.LBI4175:
	.loc 6 97 2 is_stmt 1 view .LVU1093
.LBB4176:
# /usr/include/c++/11/bits/stl_vector.h:98: 	: _M_start(), _M_finish(), _M_end_of_storage()
	.loc 6 98 4 is_stmt 0 view .LVU1094
	movq	$0, (%rax)	#, MEM[(long long int * *)__cur_27]
.LBE4176:
.LBE4175:
.LBE4172:
.LBE4171:
.LBE4170:
.LBE4169:
# /usr/include/c++/11/bits/stl_uninitialized.h:578: 	      for (; __n > 0; --__n, (void) ++__cur)
	.loc 17 578 31 view .LVU1095
	addq	$24, %rax	#, __cur
.LVL354:
.LBB4182:
.LBB4181:
.LBB4180:
.LBB4179:
.LBB4178:
.LBB4177:
# /usr/include/c++/11/bits/stl_vector.h:98: 	: _M_start(), _M_finish(), _M_end_of_storage()
	.loc 6 98 16 view .LVU1096
	movq	$0, -16(%rax)	#, MEM[(long long int * *)__cur_27 + 8B]
# /usr/include/c++/11/bits/stl_vector.h:98: 	: _M_start(), _M_finish(), _M_end_of_storage()
	.loc 6 98 29 view .LVU1097
	movq	$0, -8(%rax)	#, MEM[(long long int * *)__cur_27 + 16B]
.LVL355:
	.loc 6 98 29 view .LVU1098
.LBE4177:
.LBE4178:
.LBE4179:
.LBE4180:
.LBE4181:
.LBE4182:
	.loc 17 578 8 is_stmt 1 view .LVU1099
	.loc 17 578 19 view .LVU1100
	cmpq	%rdx, %rax	# _200, __cur
	jne	.L204	#,
.LVL356:
	.loc 17 578 19 is_stmt 0 view .LVU1101
.LBE4168:
.LBE4167:
.LBE4166:
.LBE4165:
.LBE4164:
# /usr/include/c++/11/bits/stl_vector.h:1605: 	this->_M_impl._M_finish =
	.loc 6 1605 26 view .LVU1102
	movq	%rax, 56(%rsp)	# __cur, nbr.D.265739._M_impl.D.265084._M_finish
.LVL357:
	.loc 6 1605 26 view .LVU1103
.LBE4163:
.LBE4162:
.LBE4186:
.LBB4187:
.LBI4187:
	.loc 8 174 7 is_stmt 1 view .LVU1104
.LBE4187:
	.loc 5 61 3 view .LVU1105
.LBB4188:
	movl	$1, %ebx	#, _5
.LBB4189:
.LBB4190:
.LBB4191:
# /usr/include/c++/11/bits/stl_vector.h:1198: 	  _M_realloc_insert(end(), __x);
	.loc 6 1198 21 is_stmt 0 view .LVU1106
	leaq	144(%rsp), %r15	#, tmp326
.LBE4191:
.LBE4190:
.LBE4189:
# foo.cc:61:   REP(i, 1, N) {
	.loc 5 61 3 view .LVU1107
	movq	$1, 112(%rsp)	#, MEM[(long long int *)_280]
	.loc 5 61 3 is_stmt 1 view .LVU1108
.LBB4248:
	.loc 5 62 5 view .LVU1109
.LVL358:
.LBB4199:
.LBI4199:
	.loc 5 38 6 view .LVU1110
.LBB4200:
	.loc 5 39 5 view .LVU1111
	.p2align 4,,10
	.p2align 3
.L205:
	.loc 5 42 5 view .LVU1112
.LBB4201:
.LBI4201:
	.loc 21 131 7 view .LVU1113
.LBB4202:
.LBI4202:
	.loc 21 93 2 view .LVU1114
	.loc 21 97 4 view .LVU1115
	.loc 21 97 4 is_stmt 0 view .LVU1116
.LBE4202:
.LBE4201:
	.loc 5 43 5 is_stmt 1 view .LVU1117
.LBB4203:
.LBI4203:
	.loc 21 192 2 view .LVU1118
.LBB4204:
.LBI4204:
	.loc 21 276 7 view .LVU1119
.LBB4205:
.LBB4206:
.LBB4207:
.LBB4208:
.LBI4208:
	.loc 21 246 2 view .LVU1120
.LBB4209:
# /usr/include/c++/11/bits/uniform_int_dist.h:258: 	  _Wp __product = _Wp(__g()) * _Wp(__range);
	.loc 21 258 33 is_stmt 0 view .LVU1121
	movq	%rbx, %r12	# _5, tmp210
# /usr/include/c++/11/bits/uniform_int_dist.h:258: 	  _Wp __product = _Wp(__g()) * _Wp(__range);
	.loc 21 258 27 view .LVU1122
	movq	%rbp, %rdi	# tmp318,
	call	_ZNSt23mersenne_twister_engineImLm64ELm312ELm156ELm31ELm13043109905998158313ELm29ELm6148914691236517205ELm17ELm8202884508482404352ELm37ELm18444473444759240704ELm43ELm6364136223846793005EEclEv	#
.LVL359:
# /usr/include/c++/11/bits/uniform_int_dist.h:258: 	  _Wp __product = _Wp(__g()) * _Wp(__range);
	.loc 21 258 33 view .LVU1123
	sarq	$63, %r12	#, tmp210
# /usr/include/c++/11/bits/uniform_int_dist.h:258: 	  _Wp __product = _Wp(__g()) * _Wp(__range);
	.loc 21 258 8 view .LVU1124
	movq	%r12, %rcx	# tmp210, tmp213
	imulq	%rax, %rcx	# _227, tmp213
	mulq	%rbx	# _5
	movq	%rdx, %rdi	# __product, __product
	movq	%rax, %rsi	# __product, __product
	addq	%rcx, %rdi	# tmp213, __product
.LVL360:
.LBB4210:
# /usr/include/c++/11/bits/uniform_int_dist.h:260: 	  if (__low < __range)
	.loc 21 260 4 view .LVU1125
	cmpq	%rbx, %rax	# _5, __low
	jnb	.L207	#,
.LBB4211:
# /usr/include/c++/11/bits/uniform_int_dist.h:262: 	      _Up __threshold = -__range % __range;
	.loc 21 262 12 view .LVU1126
	movq	%rbx, %rax	# _5, tmp216
	xorl	%edx, %edx	# tmp217
	negq	%rax	# tmp216
	divq	%rbx	# _5
	movq	%rdx, %r14	# tmp217, tmp217
.LVL361:
	.loc 21 263 21 is_stmt 1 view .LVU1127
	cmpq	%rdx, %rsi	# tmp217, __low
	jnb	.L207	#,
.LVL362:
	.p2align 4,,10
	.p2align 3
.L208:
# /usr/include/c++/11/bits/uniform_int_dist.h:265: 		  __product = _Wp(__g()) * _Wp(__range);
	.loc 21 265 24 is_stmt 0 view .LVU1128
	movq	%rbp, %rdi	# tmp318,
	call	_ZNSt23mersenne_twister_engineImLm64ELm312ELm156ELm31ELm13043109905998158313ELm29ELm6148914691236517205ELm17ELm8202884508482404352ELm37ELm18444473444759240704ELm43ELm6364136223846793005EEclEv	#
.LVL363:
# /usr/include/c++/11/bits/uniform_int_dist.h:265: 		  __product = _Wp(__g()) * _Wp(__range);
	.loc 21 265 15 view .LVU1129
	movq	%r12, %rcx	# tmp210, tmp222
	imulq	%rax, %rcx	# _234, tmp222
.LVL364:
	.loc 21 265 15 view .LVU1130
	mulq	%rbx	# _5
	movq	%rdx, %rdi	# __product, __product
	addq	%rcx, %rdi	# tmp222, __product
	.loc 21 263 21 is_stmt 1 view .LVU1131
	cmpq	%rax, %r14	# __product, tmp217
	ja	.L208	#,
.LVL365:
.L207:
	.loc 21 263 21 is_stmt 0 view .LVU1132
.LBE4211:
.LBE4210:
.LBE4209:
.LBE4208:
.LBE4207:
.LBE4206:
.LBE4205:
.LBE4204:
.LBE4203:
.LBE4200:
.LBE4199:
.LBB4223:
.LBB4224:
# /usr/include/c++/11/bits/stl_vector.h:1046: 	return *(this->_M_impl._M_start + __n);
	.loc 6 1046 34 view .LVU1133
	leaq	(%rbx,%rbx,2), %rdx	#, tmp227
.LBE4224:
.LBE4223:
# foo.cc:62:     ll j = rand.range(0, i);
	.loc 5 62 27 view .LVU1134
	movq	%rdi, 144(%rsp)	# _241, MEM[(long long int *)_256]
.LBB4227:
.LBB4219:
.LBB4218:
.LBB4217:
.LBB4216:
.LBB4215:
.LBB4214:
.LBB4213:
.LBB4212:
# /usr/include/c++/11/bits/uniform_int_dist.h:269: 	  return __product >> _Up_traits::__digits;
	.loc 21 269 21 view .LVU1135
	movq	%rdi, %rax	# __product, _241
.LVL366:
	.loc 21 269 21 view .LVU1136
.LBE4212:
.LBE4213:
.LBE4214:
.LBE4215:
.LBE4216:
.LBE4217:
.LBE4218:
.LBE4219:
.LBE4227:
	.loc 5 63 5 is_stmt 1 view .LVU1137
.LBB4228:
.LBI4223:
	.loc 6 1043 7 view .LVU1138
.LBB4225:
# /usr/include/c++/11/bits/stl_vector.h:1046: 	return *(this->_M_impl._M_start + __n);
	.loc 6 1046 39 is_stmt 0 view .LVU1139
	leaq	0(%r13,%rdx,8), %rdi	#, _124
.LVL367:
	.loc 6 1046 39 view .LVU1140
.LBE4225:
.LBE4228:
.LBB4229:
.LBI4190:
	.loc 6 1187 7 is_stmt 1 view .LVU1141
.LBB4197:
# /usr/include/c++/11/bits/stl_vector.h:1189: 	if (this->_M_impl._M_finish != this->_M_impl._M_end_of_storage)
	.loc 6 1189 20 is_stmt 0 view .LVU1142
	movq	8(%rdi), %rsi	# MEM[(struct vector *)_124].D.266787._M_impl.D.266142._M_finish, _243
# /usr/include/c++/11/bits/stl_vector.h:1189: 	if (this->_M_impl._M_finish != this->_M_impl._M_end_of_storage)
	.loc 6 1189 2 view .LVU1143
	cmpq	16(%rdi), %rsi	# MEM[(struct vector *)_124].D.266787._M_impl.D.266142._M_end_of_storage, _243
	je	.L252	#,
.LVL368:
.LBB4192:
.LBI4192:
	.loc 13 511 2 is_stmt 1 view .LVU1144
.LBB4193:
.LBI4193:
	.loc 15 94 5 view .LVU1145
.LBB4194:
# /usr/include/c++/11/bits/stl_construct.h:97:     { return ::new((void*)__location) _Tp(std::forward<_Args>(__args)...); }
	.loc 15 97 14 is_stmt 0 view .LVU1146
	movq	%rax, (%rsi)	# _241, *_243
.LVL369:
	.loc 15 97 14 view .LVU1147
.LBE4194:
.LBE4193:
.LBE4192:
# /usr/include/c++/11/bits/stl_vector.h:1194: 	    ++this->_M_impl._M_finish;
	.loc 6 1194 6 view .LVU1148
	addq	$8, %rsi	#, tmp233
	movq	%rsi, 8(%rdi)	# tmp233, MEM[(struct vector *)_124].D.266787._M_impl.D.266142._M_finish
.LVL370:
.L213:
	.loc 6 1194 6 view .LVU1149
.LBE4197:
.LBE4229:
	.loc 5 64 5 is_stmt 1 view .LVU1150
.LBB4230:
.LBI4230:
	.loc 6 1043 7 view .LVU1151
.LBB4231:
# /usr/include/c++/11/bits/stl_vector.h:1046: 	return *(this->_M_impl._M_start + __n);
	.loc 6 1046 34 is_stmt 0 view .LVU1152
	leaq	(%rax,%rax,2), %rax	#, tmp237
# /usr/include/c++/11/bits/stl_vector.h:1046: 	return *(this->_M_impl._M_start + __n);
	.loc 6 1046 39 view .LVU1153
	leaq	0(%r13,%rax,8), %rdi	#, _72
.LVL371:
	.loc 6 1046 39 view .LVU1154
.LBE4231:
.LBE4230:
.LBB4233:
.LBI4233:
	.loc 6 1187 7 is_stmt 1 view .LVU1155
.LBB4234:
# /usr/include/c++/11/bits/stl_vector.h:1189: 	if (this->_M_impl._M_finish != this->_M_impl._M_end_of_storage)
	.loc 6 1189 20 is_stmt 0 view .LVU1156
	movq	8(%rdi), %rsi	# MEM[(struct vector *)_72].D.266787._M_impl.D.266142._M_finish, _247
# /usr/include/c++/11/bits/stl_vector.h:1189: 	if (this->_M_impl._M_finish != this->_M_impl._M_end_of_storage)
	.loc 6 1189 2 view .LVU1157
	cmpq	16(%rdi), %rsi	# MEM[(struct vector *)_72].D.266787._M_impl.D.266142._M_end_of_storage, _247
	je	.L214	#,
.LVL372:
.LBB4235:
.LBI4235:
	.loc 13 511 2 is_stmt 1 view .LVU1158
.LBB4236:
.LBI4236:
	.loc 15 94 5 view .LVU1159
.LBB4237:
# /usr/include/c++/11/bits/stl_construct.h:97:     { return ::new((void*)__location) _Tp(std::forward<_Args>(__args)...); }
	.loc 15 97 14 is_stmt 0 view .LVU1160
	movq	%rbx, (%rsi)	# _5, *_247
.LVL373:
	.loc 15 97 14 view .LVU1161
.LBE4237:
.LBE4236:
.LBE4235:
# /usr/include/c++/11/bits/stl_vector.h:1194: 	    ++this->_M_impl._M_finish;
	.loc 6 1194 6 view .LVU1162
	addq	$8, %rsi	#, tmp239
	movq	%rsi, 8(%rdi)	# tmp239, MEM[(struct vector *)_72].D.266787._M_impl.D.266142._M_finish
.LVL374:
.L215:
	.loc 6 1194 6 view .LVU1163
.LBE4234:
.LBE4233:
.LBE4248:
	.loc 5 61 3 is_stmt 1 view .LVU1164
	movq	112(%rsp), %rax	# MEM[(long long int *)_280], tmp356
	leaq	1(%rax), %rbx	#, _5
.LVL375:
	.loc 5 61 3 is_stmt 0 view .LVU1165
	movq	%rbx, 112(%rsp)	# _5, MEM[(long long int *)_280]
	.loc 5 61 3 is_stmt 1 view .LVU1166
	cmpq	$65535, %rbx	#, _5
	jg	.L253	#,
.LBB4249:
	.loc 5 62 5 view .LVU1167
.LVL376:
.LBB4241:
	.loc 5 38 6 view .LVU1168
.LBB4220:
	.loc 5 39 5 view .LVU1169
	testq	%rbx, %rbx	# _5
	jle	.L245	#,
.LBE4220:
.LBE4241:
.LBB4242:
.LBB4226:
# /usr/include/c++/11/bits/stl_vector.h:1046: 	return *(this->_M_impl._M_start + __n);
	.loc 6 1046 25 is_stmt 0 view .LVU1170
	movq	48(%rsp), %r13	# nbr.D.265739._M_impl.D.265084._M_start, prephitmp_338
	jmp	.L205	#
.LVL377:
	.p2align 4,,10
	.p2align 3
.L252:
	.loc 6 1046 25 view .LVU1171
.LBE4226:
.LBE4242:
.LBB4243:
.LBB4198:
.LBB4195:
.LBI4195:
	.loc 6 829 7 is_stmt 1 view .LVU1172
.LBB4196:
.LBI4196:
	.loc 7 1027 7 view .LVU1173
	.loc 7 1027 7 is_stmt 0 view .LVU1174
.LBE4196:
.LBE4195:
# /usr/include/c++/11/bits/stl_vector.h:1198: 	  _M_realloc_insert(end(), __x);
	.loc 6 1198 21 view .LVU1175
	movq	%r15, %rdx	# tmp326,
.LEHB5:
	call	_ZNSt6vectorIxSaIxEE17_M_realloc_insertIJRKxEEEvN9__gnu_cxx17__normal_iteratorIPxS1_EEDpOT_	#
.LVL378:
	.loc 6 1198 21 view .LVU1176
.LBE4198:
.LBE4243:
# foo.cc:64:     nbr[j].push_back(i);
	.loc 5 64 10 view .LVU1177
	movq	144(%rsp), %rax	# MEM[(long long int *)_256], _241
.LBB4244:
.LBB4232:
# /usr/include/c++/11/bits/stl_vector.h:1046: 	return *(this->_M_impl._M_start + __n);
	.loc 6 1046 25 view .LVU1178
	movq	48(%rsp), %r13	# nbr.D.265739._M_impl.D.265084._M_start, prephitmp_338
.LVL379:
	.loc 6 1046 25 view .LVU1179
	jmp	.L213	#
.LVL380:
	.p2align 4,,10
	.p2align 3
.L214:
	.loc 6 1046 25 view .LVU1180
.LBE4232:
.LBE4244:
.LBB4245:
.LBB4240:
.LBB4238:
.LBI4238:
	.loc 6 829 7 is_stmt 1 view .LVU1181
.LBB4239:
.LBI4239:
	.loc 7 1027 7 view .LVU1182
	.loc 7 1027 7 is_stmt 0 view .LVU1183
.LBE4239:
.LBE4238:
# /usr/include/c++/11/bits/stl_vector.h:1198: 	  _M_realloc_insert(end(), __x);
	.loc 6 1198 21 view .LVU1184
	leaq	112(%rsp), %rdx	#, tmp240
.LVL381:
	.loc 6 1198 21 view .LVU1185
	call	_ZNSt6vectorIxSaIxEE17_M_realloc_insertIJRKxEEEvN9__gnu_cxx17__normal_iteratorIPxS1_EEDpOT_	#
.LVL382:
	.loc 6 1198 21 view .LVU1186
	jmp	.L215	#
.LVL383:
.L253:
	.loc 6 1198 21 view .LVU1187
.LBE4240:
.LBE4245:
.LBE4249:
.LBE4188:
	.loc 5 66 3 is_stmt 1 view .LVU1188
# foo.cc:66:   ll root = rand.range(0, N);
	.loc 5 66 23 is_stmt 0 view .LVU1189
	movl	$65536, %edx	#,
	xorl	%esi, %esi	#
	movq	%rbp, %rdi	# tmp318,
	call	_ZN6Random5rangeExx	#
.LVL384:
.LBB4252:
.LBB4253:
.LBB4254:
.LBB4255:
.LBB4256:
.LBB4257:
.LBB4258:
.LBB4259:
.LBB4260:
.LBB4261:
.LBB4262:
.LBB4263:
# /usr/include/c++/11/ext/new_allocator.h:127: 	return static_cast<_Tp*>(::operator new(__n * sizeof(_Tp)));
	.loc 9 127 41 view .LVU1190
	movl	$524288, %edi	#,
.LBE4263:
.LBE4262:
.LBE4261:
.LBE4260:
.LBE4259:
.LBE4258:
.LBE4257:
.LBE4256:
.LBE4255:
.LBE4254:
.LBE4253:
.LBE4252:
# foo.cc:66:   ll root = rand.range(0, N);
	.loc 5 66 23 view .LVU1191
	movq	%rax, %r12	# tmp333, _51
.LVL385:
	.loc 5 67 3 is_stmt 1 view .LVU1192
.LBB4299:
.LBI4299:
	.loc 8 156 7 view .LVU1193
.LBB4300:
.LBI4300:
	.loc 9 79 7 view .LVU1194
	.loc 9 79 7 is_stmt 0 view .LVU1195
.LBE4300:
.LBE4299:
.LBB4301:
.LBI4252:
	.loc 6 522 7 is_stmt 1 view .LVU1196
.LBB4280:
.LBI4280:
	.loc 6 1767 7 view .LVU1197
.LBB4281:
.LBI4281:
	.loc 8 159 7 view .LVU1198
.LBB4282:
.LBI4282:
	.loc 9 82 7 view .LVU1199
	.loc 9 82 7 is_stmt 0 view .LVU1200
.LBE4282:
.LBE4281:
.LBB4283:
.LBI4283:
	.loc 8 174 7 is_stmt 1 view .LVU1201
	.loc 8 174 7 is_stmt 0 view .LVU1202
.LBE4283:
.LBE4280:
.LBB4284:
.LBI4253:
	.loc 6 303 7 is_stmt 1 view .LVU1203
.LBB4273:
.LBI4273:
	.loc 6 136 2 view .LVU1204
.LBB4274:
.LBI4274:
	.loc 8 159 7 view .LVU1205
.LBB4275:
.LBI4275:
	.loc 9 82 7 view .LVU1206
	.loc 9 82 7 is_stmt 0 view .LVU1207
.LBE4275:
.LBE4274:
.LBB4276:
.LBI4276:
	.loc 6 97 2 is_stmt 1 view .LVU1208
.LBB4277:
.LBB4278:
# /usr/include/c++/11/bits/stl_vector.h:98: 	: _M_start(), _M_finish(), _M_end_of_storage()
	.loc 6 98 4 is_stmt 0 view .LVU1209
	movq	$0, 80(%rsp)	#, MEM[(struct _Vector_impl_data *)&vec1]._M_start
# /usr/include/c++/11/bits/stl_vector.h:98: 	: _M_start(), _M_finish(), _M_end_of_storage()
	.loc 6 98 16 view .LVU1210
	movq	$0, 88(%rsp)	#, MEM[(struct _Vector_impl_data *)&vec1]._M_finish
# /usr/include/c++/11/bits/stl_vector.h:98: 	: _M_start(), _M_finish(), _M_end_of_storage()
	.loc 6 98 29 view .LVU1211
	movq	$0, 96(%rsp)	#, MEM[(struct _Vector_impl_data *)&vec1]._M_end_of_storage
.LVL386:
	.loc 6 98 29 view .LVU1212
.LBE4278:
.LBE4277:
.LBE4276:
.LBE4273:
.LBB4279:
.LBI4254:
	.loc 6 359 7 is_stmt 1 view .LVU1213
.LBB4272:
.LBB4271:
.LBI4256:
	.loc 6 343 7 view .LVU1214
.LBB4270:
.LBB4269:
.LBI4258:
	.loc 6 343 7 view .LVU1215
.LBB4268:
.LBB4267:
.LBI4260:
	.loc 13 463 7 view .LVU1216
.LBB4266:
.LBI4261:
	.loc 8 179 7 view .LVU1217
.LBB4265:
.LBI4262:
	.loc 9 103 7 view .LVU1218
.LBB4264:
# /usr/include/c++/11/ext/new_allocator.h:127: 	return static_cast<_Tp*>(::operator new(__n * sizeof(_Tp)));
	.loc 9 127 41 is_stmt 0 view .LVU1219
	call	_Znwm@PLT	#
.LVL387:
.LEHE5:
	.loc 9 127 41 view .LVU1220
.LBE4264:
.LBE4265:
.LBE4266:
.LBE4267:
.LBE4268:
.LBE4269:
.LBE4270:
.LBE4271:
# /usr/include/c++/11/bits/stl_vector.h:363: 	this->_M_impl._M_end_of_storage = this->_M_impl._M_start + __n;
	.loc 6 363 59 discriminator 1 view .LVU1221
	leaq	524288(%rax), %rdx	#, _255
# /usr/include/c++/11/bits/stl_vector.h:361: 	this->_M_impl._M_start = this->_M_allocate(__n);
	.loc 6 361 25 discriminator 1 view .LVU1222
	movq	%rax, 80(%rsp)	# __first, MEM[(struct _Vector_base *)&vec1]._M_impl.D.266142._M_start
# /usr/include/c++/11/bits/stl_vector.h:363: 	this->_M_impl._M_end_of_storage = this->_M_impl._M_start + __n;
	.loc 6 363 34 discriminator 1 view .LVU1223
	movq	%rdx, 96(%rsp)	# _255, MEM[(struct _Vector_base *)&vec1]._M_impl.D.266142._M_end_of_storage
.LVL388:
	.loc 6 363 34 discriminator 1 view .LVU1224
.LBE4272:
.LBE4279:
.LBE4284:
.LBB4285:
.LBI4285:
	.loc 6 1593 7 is_stmt 1 discriminator 1 view .LVU1225
.LBB4286:
.LBB4287:
.LBI4287:
	.loc 17 408 5 discriminator 1 view .LVU1226
.LBB4288:
.LBI4288:
	.loc 17 273 5 discriminator 1 view .LVU1227
.LBB4289:
.LBB4290:
.LBI4290:
	.loc 17 253 9 discriminator 1 view .LVU1228
.LBB4291:
.LBI4291:
	.file 22 "/usr/include/c++/11/bits/stl_algobase.h"
	.loc 22 1144 5 discriminator 1 view .LVU1229
.LBB4292:
.LBI4292:
	.loc 22 1109 5 discriminator 1 view .LVU1230
.LBB4293:
.LBI4293:
	.loc 22 1109 5 discriminator 1 view .LVU1231
.LBB4294:
.LBI4294:
	.loc 22 968 5 discriminator 1 view .LVU1232
.LBB4295:
.LBI4295:
	.loc 22 919 5 discriminator 1 view .LVU1233
.LBB4296:
	.loc 22 923 22 discriminator 1 view .LVU1234
	.p2align 4,,10
	.p2align 3
.L217:
# /usr/include/c++/11/bits/stl_algobase.h:924: 	*__first = __tmp;
	.loc 22 924 11 is_stmt 0 view .LVU1235
	movq	$1, (%rax)	#, MEM[(long long int *)__first_181]
	.loc 22 923 7 is_stmt 1 view .LVU1236
	addq	$8, %rax	#, __first
.LVL389:
	.loc 22 923 22 view .LVU1237
	cmpq	%rax, %rdx	# __first, _255
	jne	.L217	#,
.LVL390:
	.loc 22 923 22 is_stmt 0 view .LVU1238
.LBE4296:
.LBE4295:
.LBE4294:
.LBE4293:
.LBE4292:
.LBE4291:
.LBE4290:
.LBE4289:
.LBE4288:
.LBE4287:
.LBE4286:
.LBE4285:
.LBE4301:
.LBB4302:
.LBB4303:
.LBB4304:
.LBB4305:
.LBB4306:
.LBB4307:
.LBB4308:
.LBB4309:
.LBB4310:
.LBB4311:
.LBB4312:
.LBB4313:
# /usr/include/c++/11/ext/new_allocator.h:127: 	return static_cast<_Tp*>(::operator new(__n * sizeof(_Tp)));
	.loc 9 127 41 view .LVU1239
	movl	$524288, %edi	#,
.LBE4313:
.LBE4312:
.LBE4311:
.LBE4310:
.LBE4309:
.LBE4308:
.LBE4307:
.LBE4306:
.LBE4305:
.LBE4304:
.LBE4303:
.LBE4302:
.LBB4357:
.LBB4298:
.LBB4297:
# /usr/include/c++/11/bits/stl_vector.h:1595: 	this->_M_impl._M_finish =
	.loc 6 1595 26 view .LVU1240
	movq	%rdx, 88(%rsp)	# _255, vec1.D.266787._M_impl.D.266142._M_finish
.LVL391:
	.loc 6 1595 26 view .LVU1241
.LBE4297:
.LBE4298:
.LBE4357:
.LBB4358:
.LBI4358:
	.loc 8 174 7 is_stmt 1 view .LVU1242
	.loc 8 174 7 is_stmt 0 view .LVU1243
.LBE4358:
.LBB4359:
.LBI4359:
	.loc 8 156 7 is_stmt 1 view .LVU1244
.LBB4360:
.LBI4360:
	.loc 9 79 7 view .LVU1245
	.loc 9 79 7 is_stmt 0 view .LVU1246
.LBE4360:
.LBE4359:
.LBB4361:
.LBI4302:
	.loc 6 522 7 is_stmt 1 view .LVU1247
.LBB4338:
.LBI4338:
	.loc 6 1767 7 view .LVU1248
.LBB4339:
.LBI4339:
	.loc 8 159 7 view .LVU1249
.LBB4340:
.LBI4340:
	.loc 9 82 7 view .LVU1250
	.loc 9 82 7 is_stmt 0 view .LVU1251
.LBE4340:
.LBE4339:
.LBB4341:
.LBI4341:
	.loc 8 174 7 is_stmt 1 view .LVU1252
	.loc 8 174 7 is_stmt 0 view .LVU1253
.LBE4341:
.LBE4338:
.LBB4342:
.LBI4303:
	.loc 6 303 7 is_stmt 1 view .LVU1254
.LBB4331:
.LBI4331:
	.loc 6 136 2 view .LVU1255
.LBB4332:
.LBI4332:
	.loc 8 159 7 view .LVU1256
.LBB4333:
.LBI4333:
	.loc 9 82 7 view .LVU1257
	.loc 9 82 7 is_stmt 0 view .LVU1258
.LBE4333:
.LBE4332:
.LBB4334:
.LBI4334:
	.loc 6 97 2 is_stmt 1 view .LVU1259
.LBB4335:
.LBB4336:
# /usr/include/c++/11/bits/stl_vector.h:98: 	: _M_start(), _M_finish(), _M_end_of_storage()
	.loc 6 98 16 is_stmt 0 view .LVU1260
	movq	$0, 120(%rsp)	#, MEM[(struct _Vector_impl_data *)_280]._M_finish
# /usr/include/c++/11/bits/stl_vector.h:98: 	: _M_start(), _M_finish(), _M_end_of_storage()
	.loc 6 98 29 view .LVU1261
	movq	$0, 128(%rsp)	#, MEM[(struct _Vector_impl_data *)_280]._M_end_of_storage
.LVL392:
	.loc 6 98 29 view .LVU1262
.LBE4336:
.LBE4335:
.LBE4334:
.LBE4331:
.LBB4337:
.LBI4304:
	.loc 6 359 7 is_stmt 1 view .LVU1263
.LBB4330:
.LBB4328:
.LBI4306:
	.loc 6 343 7 view .LVU1264
.LBB4326:
.LBB4324:
.LBI4308:
	.loc 6 343 7 view .LVU1265
.LBB4322:
.LBB4320:
.LBI4310:
	.loc 13 463 7 view .LVU1266
.LBB4318:
.LBI4311:
	.loc 8 179 7 view .LVU1267
.LBB4316:
.LBI4312:
	.loc 9 103 7 view .LVU1268
.LEHB6:
.LBB4314:
# /usr/include/c++/11/ext/new_allocator.h:127: 	return static_cast<_Tp*>(::operator new(__n * sizeof(_Tp)));
	.loc 9 127 41 is_stmt 0 view .LVU1269
	call	_Znwm@PLT	#
.LVL393:
.LEHE6:
.LBE4314:
.LBE4316:
.LBE4318:
.LBE4320:
.LBE4322:
.LBE4324:
.LBE4326:
.LBE4328:
# /usr/include/c++/11/bits/stl_vector.h:363: 	this->_M_impl._M_end_of_storage = this->_M_impl._M_start + __n;
	.loc 6 363 59 view .LVU1270
	leaq	524288(%rax), %rdx	#, _279
# /usr/include/c++/11/bits/stl_vector.h:361: 	this->_M_impl._M_start = this->_M_allocate(__n);
	.loc 6 361 25 view .LVU1271
	movq	%rax, 112(%rsp)	# _288, MEM[(struct _Vector_base *)_280]._M_impl.D.266142._M_start
.LBB4329:
.LBB4327:
.LBB4325:
.LBB4323:
.LBB4321:
.LBB4319:
.LBB4317:
.LBB4315:
# /usr/include/c++/11/ext/new_allocator.h:127: 	return static_cast<_Tp*>(::operator new(__n * sizeof(_Tp)));
	.loc 9 127 41 view .LVU1272
	movq	%rax, %rbx	# tmp335, _288
.LVL394:
	.loc 9 127 41 view .LVU1273
.LBE4315:
.LBE4317:
.LBE4319:
.LBE4321:
.LBE4323:
.LBE4325:
.LBE4327:
.LBE4329:
# /usr/include/c++/11/bits/stl_vector.h:363: 	this->_M_impl._M_end_of_storage = this->_M_impl._M_start + __n;
	.loc 6 363 34 view .LVU1274
	movq	%rdx, 128(%rsp)	# _279, MEM[(struct _Vector_base *)_280]._M_impl.D.266142._M_end_of_storage
.LVL395:
	.loc 6 363 34 view .LVU1275
.LBE4330:
.LBE4337:
.LBE4342:
.LBB4343:
.LBI4343:
	.loc 6 1593 7 is_stmt 1 view .LVU1276
.LBB4344:
.LBB4345:
.LBI4345:
	.loc 17 408 5 view .LVU1277
.LBB4346:
.LBI4346:
	.loc 17 273 5 view .LVU1278
.LBB4347:
.LBB4348:
.LBI4348:
	.loc 17 253 9 view .LVU1279
.LBB4349:
.LBI4349:
	.loc 22 1144 5 view .LVU1280
.LBB4350:
.LBI4350:
	.loc 22 1109 5 view .LVU1281
.LBB4351:
.LBI4351:
	.loc 22 1109 5 view .LVU1282
.LBB4352:
.LBI4352:
	.loc 22 968 5 view .LVU1283
.LBB4353:
.LBI4353:
	.loc 22 919 5 view .LVU1284
.LBB4354:
	.loc 22 923 22 view .LVU1285
	.p2align 4,,10
	.p2align 3
.L218:
# /usr/include/c++/11/bits/stl_algobase.h:924: 	*__first = __tmp;
	.loc 22 924 11 is_stmt 0 view .LVU1286
	movq	$1, (%rax)	#, MEM[(long long int *)__first_38]
	.loc 22 923 7 is_stmt 1 view .LVU1287
	addq	$8, %rax	#, __first
.LVL396:
	.loc 22 923 22 view .LVU1288
	cmpq	%rax, %rdx	# __first, _279
	jne	.L218	#,
.LVL397:
	.loc 22 923 22 is_stmt 0 view .LVU1289
.LBE4354:
.LBE4353:
.LBE4352:
.LBE4351:
.LBE4350:
.LBE4349:
.LBE4348:
.LBE4347:
.LBE4346:
.LBE4345:
.LBE4344:
.LBE4343:
.LBE4361:
# foo.cc:74:   };
	.loc 5 74 3 view .LVU1290
	leaq	48(%rsp), %rbp	#, tmp319
	leaq	80(%rsp), %r13	#, tmp320
.LBB4362:
.LBB4356:
.LBB4355:
# /usr/include/c++/11/bits/stl_vector.h:1595: 	this->_M_impl._M_finish =
	.loc 6 1595 26 view .LVU1291
	movq	%rdx, 120(%rsp)	# _279, MEM[(struct vector *)_280].D.266787._M_impl.D.266142._M_finish
.LVL398:
	.loc 6 1595 26 view .LVU1292
.LBE4355:
.LBE4356:
.LBE4362:
.LBB4363:
.LBI4363:
	.loc 8 174 7 is_stmt 1 view .LVU1293
.LBE4363:
	.loc 5 68 3 view .LVU1294
# foo.cc:74:   };
	.loc 5 74 3 is_stmt 0 view .LVU1295
	movq	%rbp, 32(%rsp)	# tmp319, dfs.__nbr
	leaq	144(%rsp), %r14	#, tmp324
	movq	%r13, 40(%rsp)	# tmp320, dfs.__vec1
	.loc 5 76 3 is_stmt 1 view .LVU1296
.LBB4364:
.LBI4364:
	.loc 5 21 8 view .LVU1297
.LBB4365:
	.loc 5 22 3 view .LVU1298
	.loc 5 23 3 view .LVU1299
# foo.cc:23:   return static_cast<double>(duration_cast<nanoseconds>(steady_clock::now().time_since_epoch()).count())/1000000000;
	.loc 5 23 74 is_stmt 0 view .LVU1300
	call	_ZNSt6chrono3_V212steady_clock3nowEv@PLT	#
.LVL399:
.LBB4366:
.LBI4366:
	.loc 14 898 2 is_stmt 1 view .LVU1301
	.loc 14 898 2 is_stmt 0 view .LVU1302
.LBE4366:
.LBB4367:
.LBI4367:
	.loc 14 267 7 is_stmt 1 view .LVU1303
.LBB4368:
.LBB4369:
.LBI4369:
	.loc 14 211 4 view .LVU1304
.LBB4370:
.LBB4371:
.LBI4371:
	.loc 14 521 23 view .LVU1305
.LBE4371:
.LBE4370:
.LBE4369:
.LBE4368:
.LBE4367:
# foo.cc:23:   return static_cast<double>(duration_cast<nanoseconds>(steady_clock::now().time_since_epoch()).count())/1000000000;
	.loc 5 23 10 is_stmt 0 view .LVU1306
	pxor	%xmm0, %xmm0	# tmp247
.LBE4365:
.LBE4364:
.LBB4375:
.LBB4376:
.LBB4377:
.LBB4378:
.LBB4379:
.LBB4380:
.LBB4381:
.LBB4382:
.LBB4383:
.LBB4384:
# /usr/include/c++/11/ext/new_allocator.h:127: 	return static_cast<_Tp*>(::operator new(__n * sizeof(_Tp)));
	.loc 9 127 41 view .LVU1307
	movl	$1572864, %edi	#,
.LBE4384:
.LBE4383:
.LBE4382:
.LBE4381:
.LBE4380:
.LBE4379:
.LBE4378:
.LBE4377:
.LBE4376:
.LBE4375:
.LBB4402:
.LBB4403:
.LBB4404:
.LBB4405:
.LBB4406:
.LBB4407:
# /usr/include/c++/11/bits/stl_vector.h:98: 	: _M_start(), _M_finish(), _M_end_of_storage()
	.loc 6 98 4 view .LVU1308
	movq	$0, 144(%rsp)	#, MEM[(struct _Vector_impl_data *)_256]._M_start
.LBE4407:
.LBE4406:
.LBE4405:
.LBE4404:
.LBE4403:
.LBE4402:
.LBB4423:
.LBB4372:
# foo.cc:23:   return static_cast<double>(duration_cast<nanoseconds>(steady_clock::now().time_since_epoch()).count())/1000000000;
	.loc 5 23 10 view .LVU1309
	cvtsi2sdq	%rax, %xmm0	# tmp336, tmp247
.LBE4372:
.LBE4423:
.LBB4424:
.LBB4420:
.LBB4417:
.LBB4412:
.LBB4410:
.LBB4408:
# /usr/include/c++/11/bits/stl_vector.h:98: 	: _M_start(), _M_finish(), _M_end_of_storage()
	.loc 6 98 16 view .LVU1310
	movq	$0, 152(%rsp)	#, MEM[(struct _Vector_impl_data *)_256]._M_finish
.LBE4408:
.LBE4410:
.LBE4412:
.LBE4417:
.LBE4420:
.LBE4424:
.LBB4425:
.LBB4373:
# foo.cc:23:   return static_cast<double>(duration_cast<nanoseconds>(steady_clock::now().time_since_epoch()).count())/1000000000;
	.loc 5 23 106 view .LVU1311
	divsd	.LC0(%rip), %xmm0	#, tmp247
.LBE4373:
.LBE4425:
.LBB4426:
.LBB4421:
.LBB4418:
.LBB4413:
.LBB4411:
.LBB4409:
# /usr/include/c++/11/bits/stl_vector.h:98: 	: _M_start(), _M_finish(), _M_end_of_storage()
	.loc 6 98 29 view .LVU1312
	movq	$0, 160(%rsp)	#, MEM[(struct _Vector_impl_data *)_256]._M_end_of_storage
.LBE4409:
.LBE4411:
.LBE4413:
.LBE4418:
.LBE4421:
.LBE4426:
.LBB4427:
.LBB4374:
# foo.cc:23:   return static_cast<double>(duration_cast<nanoseconds>(steady_clock::now().time_since_epoch()).count())/1000000000;
	.loc 5 23 106 view .LVU1313
	movsd	%xmm0, 8(%rsp)	# tmp247, %sfp
.LVL400:
	.loc 5 23 106 view .LVU1314
.LBE4374:
.LBE4427:
	.loc 5 77 3 is_stmt 1 view .LVU1315
.LBB4428:
.LBI4402:
	.loc 6 487 7 view .LVU1316
.LBB4422:
.LBI4403:
	.loc 6 288 7 view .LVU1317
.LBB4419:
.LBI4404:
	.loc 6 131 2 view .LVU1318
.LBB4414:
.LBI4414:
	.loc 8 156 7 view .LVU1319
.LBB4415:
.LBI4415:
	.loc 9 79 7 view .LVU1320
	.loc 9 79 7 is_stmt 0 view .LVU1321
.LBE4415:
.LBE4414:
.LBB4416:
.LBI4405:
	.loc 6 97 2 is_stmt 1 view .LVU1322
	.loc 6 97 2 is_stmt 0 view .LVU1323
.LBE4416:
.LBE4419:
.LBE4422:
.LBE4428:
	.loc 5 78 3 is_stmt 1 view .LVU1324
.LBB4429:
.LBI4375:
	.loc 16 66 5 view .LVU1325
.LBB4399:
.LBB4392:
.LBI4377:
	.loc 6 343 7 view .LVU1326
.LBB4391:
.LBB4390:
.LBI4379:
	.loc 6 343 7 view .LVU1327
.LBB4389:
.LBB4388:
.LBI4381:
	.loc 13 463 7 view .LVU1328
.LBB4387:
.LBI4382:
	.loc 8 179 7 view .LVU1329
.LBB4386:
.LBI4383:
	.loc 9 103 7 view .LVU1330
.LEHB7:
.LBB4385:
# /usr/include/c++/11/ext/new_allocator.h:127: 	return static_cast<_Tp*>(::operator new(__n * sizeof(_Tp)));
	.loc 9 127 41 is_stmt 0 view .LVU1331
	call	_Znwm@PLT	#
.LVL401:
	.loc 9 127 41 view .LVU1332
.LBE4385:
.LBE4386:
.LBE4387:
.LBE4388:
.LBE4389:
.LBE4390:
.LBE4391:
.LBE4392:
.LBB4393:
.LBI4393:
	.loc 6 465 7 is_stmt 1 view .LVU1333
.LBB4394:
.LBB4395:
.LBB4396:
.LBB4397:
.LBB4398:
	.loc 17 1031 22 view .LVU1334
	.loc 17 1031 22 is_stmt 0 view .LVU1335
.LBE4398:
.LBE4397:
.LBE4396:
.LBE4395:
.LBE4394:
.LBE4393:
# /usr/include/c++/11/bits/vector.tcc:97: 	  this->_M_impl._M_end_of_storage = this->_M_impl._M_start + __n;
	.loc 16 97 61 view .LVU1336
	leaq	1572864(%rax), %rdx	#, tmp250
.LBE4399:
.LBE4429:
.LBB4430:
.LBB4431:
# /usr/include/c++/11/bits/vector.tcc:117: 	    ++this->_M_impl._M_finish;
	.loc 16 117 6 view .LVU1337
	leaq	24(%rax), %rsi	#, _180
.LBE4431:
.LBE4430:
.LBB4481:
.LBB4400:
# /usr/include/c++/11/bits/vector.tcc:95: 	  this->_M_impl._M_start = __tmp;
	.loc 16 95 27 view .LVU1338
	movq	%rax, 144(%rsp)	# tmp249, MEM[(struct vector *)_256].D.267922._M_impl.D.267267._M_start
.LBE4400:
.LBE4481:
.LBB4482:
.LBB4478:
# /usr/include/c++/11/bits/vector.tcc:117: 	    ++this->_M_impl._M_finish;
	.loc 16 117 6 view .LVU1339
	movq	%r12, %rcx	# _51, prephitmp_314
.LBB4432:
.LBB4433:
.LBB4434:
.LBB4435:
.LBB4436:
.LBB4437:
.LBB4438:
.LBB4439:
# /usr/include/c++/11/tuple:200: 	: _M_head_impl(std::forward<_UHead>(__h)) { }
	.loc 18 200 4 view .LVU1340
	movq	$-1, (%rax)	#, MEM[(struct _Head_base *)_332]._M_head_impl
.LBE4439:
.LBE4438:
.LBE4437:
.LBE4436:
.LBE4435:
.LBE4434:
.LBE4433:
.LBE4432:
.LBE4478:
.LBE4482:
.LBB4483:
.LBB4484:
.LBB4485:
# /usr/include/c++/11/bits/vector.tcc:121: 	  _M_realloc_insert(end(), std::forward<_Args>(__args)...);
	.loc 16 121 21 view .LVU1341
	leaq	28(%rsp), %r15	#, tmp325
.LBE4485:
.LBE4484:
.LBE4483:
.LBB4561:
.LBB4479:
.LBB4471:
.LBB4469:
.LBB4467:
.LBB4462:
.LBB4452:
.LBB4444:
.LBB4445:
# /usr/include/c++/11/tuple:200: 	: _M_head_impl(std::forward<_UHead>(__h)) { }
	.loc 18 200 4 view .LVU1342
	movq	$-1, 8(%rax)	#, MEM[(struct _Head_base *)_332 + 8B]._M_head_impl
.LBE4445:
.LBE4444:
.LBE4452:
.LBB4453:
.LBB4454:
	movq	%r12, 16(%rax)	# _51, MEM[(struct _Head_base *)_332 + 16B]._M_head_impl
.LBE4454:
.LBE4453:
.LBE4462:
.LBE4467:
.LBE4469:
.LBE4471:
# /usr/include/c++/11/bits/vector.tcc:117: 	    ++this->_M_impl._M_finish;
	.loc 16 117 6 view .LVU1343
	movq	$-1, %rax	#, prephitmp_313
.LVL402:
	.loc 16 117 6 view .LVU1344
.LBE4479:
.LBE4561:
.LBB4562:
.LBB4401:
# /usr/include/c++/11/bits/vector.tcc:97: 	  this->_M_impl._M_end_of_storage = this->_M_impl._M_start + __n;
	.loc 16 97 61 view .LVU1345
	movq	%rdx, 160(%rsp)	# tmp250, MEM[(struct vector *)_256].D.267922._M_impl.D.267267._M_end_of_storage
.LVL403:
	.loc 16 97 61 view .LVU1346
.LBE4401:
.LBE4562:
	.loc 5 79 3 is_stmt 1 view .LVU1347
.LBB4563:
.LBI4430:
	.loc 16 109 7 view .LVU1348
.LBB4480:
.LBB4472:
.LBI4432:
	.loc 13 511 2 view .LVU1349
.LBB4470:
.LBI4433:
	.loc 15 94 5 view .LVU1350
.LBB4468:
.LBI4434:
	.loc 18 742 2 view .LVU1351
.LBB4463:
.LBI4463:
	.loc 19 77 5 view .LVU1352
	.loc 19 77 5 is_stmt 0 view .LVU1353
.LBE4463:
.LBB4464:
.LBI4464:
	.loc 19 77 5 is_stmt 1 view .LVU1354
	.loc 19 77 5 is_stmt 0 view .LVU1355
.LBE4464:
.LBB4465:
.LBI4465:
	.loc 19 77 5 is_stmt 1 view .LVU1356
	.loc 19 77 5 is_stmt 0 view .LVU1357
.LBE4465:
.LBB4466:
.LBI4435:
	.loc 18 290 2 is_stmt 1 view .LVU1358
.LBB4457:
.LBI4457:
	.loc 19 77 5 view .LVU1359
	.loc 19 77 5 is_stmt 0 view .LVU1360
.LBE4457:
.LBB4458:
.LBI4458:
	.loc 19 77 5 is_stmt 1 view .LVU1361
	.loc 19 77 5 is_stmt 0 view .LVU1362
.LBE4458:
.LBB4459:
.LBI4436:
	.loc 18 290 2 is_stmt 1 view .LVU1363
.LBB4448:
.LBI4448:
	.loc 19 77 5 view .LVU1364
	.loc 19 77 5 is_stmt 0 view .LVU1365
.LBE4448:
.LBB4449:
.LBI4437:
	.loc 18 440 2 is_stmt 1 view .LVU1366
.LBB4442:
.LBI4442:
	.loc 19 77 5 view .LVU1367
	.loc 19 77 5 is_stmt 0 view .LVU1368
.LBE4442:
.LBB4443:
.LBI4438:
	.loc 18 199 19 is_stmt 1 view .LVU1369
.LBB4441:
.LBB4440:
.LBI4440:
	.loc 19 77 5 view .LVU1370
	.loc 19 77 5 is_stmt 0 view .LVU1371
.LBE4440:
.LBE4441:
.LBE4443:
.LBE4449:
.LBB4450:
.LBI4450:
	.loc 19 77 5 is_stmt 1 view .LVU1372
	.loc 19 77 5 is_stmt 0 view .LVU1373
.LBE4450:
.LBB4451:
.LBI4444:
	.loc 18 199 19 is_stmt 1 view .LVU1374
.LBB4447:
.LBB4446:
.LBI4446:
	.loc 19 77 5 view .LVU1375
	.loc 19 77 5 is_stmt 0 view .LVU1376
.LBE4446:
.LBE4447:
.LBE4451:
.LBE4459:
.LBB4460:
.LBI4460:
	.loc 19 77 5 is_stmt 1 view .LVU1377
	.loc 19 77 5 is_stmt 0 view .LVU1378
.LBE4460:
.LBB4461:
.LBI4453:
	.loc 18 199 19 is_stmt 1 view .LVU1379
.LBB4456:
.LBB4455:
.LBI4455:
	.loc 19 77 5 view .LVU1380
	.loc 19 77 5 is_stmt 0 view .LVU1381
.LBE4455:
.LBE4456:
.LBE4461:
.LBE4466:
.LBE4468:
.LBE4470:
.LBE4472:
# /usr/include/c++/11/bits/vector.tcc:117: 	    ++this->_M_impl._M_finish;
	.loc 16 117 6 view .LVU1382
	movq	%rsi, 152(%rsp)	# _180, MEM[(struct vector *)_256].D.267922._M_impl.D.267267._M_finish
.LVL404:
.LBB4473:
.LBI4473:
	.loc 6 1143 7 is_stmt 1 view .LVU1383
.LBB4474:
.LBI4474:
	.loc 6 829 7 view .LVU1384
.LBB4475:
.LBI4475:
	.loc 7 1027 7 view .LVU1385
	.loc 7 1027 7 is_stmt 0 view .LVU1386
.LBE4475:
.LBE4474:
.LBB4476:
.LBI4476:
	.loc 7 1100 7 is_stmt 1 view .LVU1387
.LBB4477:
.LBI4477:
	.loc 7 1027 7 view .LVU1388
	.loc 7 1027 7 is_stmt 0 view .LVU1389
.LBE4477:
.LBE4476:
.LBE4473:
.LBE4480:
.LBE4563:
	.loc 5 80 3 is_stmt 1 view .LVU1390
	.loc 5 80 10 view .LVU1391
.LBB4564:
.LBI4564:
	.loc 6 1007 7 view .LVU1392
.LBB4565:
.LBI4565:
	.loc 6 838 7 view .LVU1393
.LBB4566:
.LBI4566:
	.loc 7 1027 7 view .LVU1394
	.loc 7 1027 7 is_stmt 0 view .LVU1395
.LBE4566:
.LBE4565:
.LBB4571:
.LBI4571:
	.loc 6 820 7 is_stmt 1 view .LVU1396
.LBB4572:
.LBI4572:
	.loc 7 1027 7 view .LVU1397
	.loc 7 1027 7 is_stmt 0 view .LVU1398
	jmp	.L226	#
.LVL405:
	.p2align 4,,10
	.p2align 3
.L254:
	.loc 7 1027 7 view .LVU1399
.LBE4572:
.LBE4571:
.LBE4564:
.LBB4580:
	.loc 5 90 7 is_stmt 1 view .LVU1400
.LBB4527:
.LBI4527:
	.loc 6 1043 7 view .LVU1401
	.loc 6 1043 7 is_stmt 0 view .LVU1402
.LBE4527:
# foo.cc:90:       c = nbr[nd][cidx];
	.loc 5 90 9 view .LVU1403
	movq	(%rdi,%rax,8), %rax	# *_133, *_133
	movl	%eax, 24(%rsp)	# *_133, c
	.loc 5 91 7 is_stmt 1 view .LVU1404
# foo.cc:91:       if (c != pt) stack.emplace_back(c, -1, nd);
	.loc 5 91 11 is_stmt 0 view .LVU1405
	cltq
# foo.cc:91:       if (c != pt) stack.emplace_back(c, -1, nd);
	.loc 5 91 7 view .LVU1406
	cmpq	-24(%rsi), %rax	# MEM[(type &)_180 + 18446744073709551592], _25
	je	.L250	#,
	.loc 5 91 20 is_stmt 1 discriminator 1 view .LVU1407
# foo.cc:91:       if (c != pt) stack.emplace_back(c, -1, nd);
	.loc 5 91 42 is_stmt 0 discriminator 1 view .LVU1408
	movl	$-1, 28(%rsp)	#, D.270846
.LVL406:
.LBB4528:
.LBI4484:
	.loc 16 109 7 is_stmt 1 discriminator 1 view .LVU1409
.LBB4524:
# /usr/include/c++/11/bits/vector.tcc:112: 	if (this->_M_impl._M_finish != this->_M_impl._M_end_of_storage)
	.loc 16 112 2 is_stmt 0 discriminator 1 view .LVU1410
	cmpq	160(%rsp), %rsi	# MEM[(struct vector *)_256].D.267922._M_impl.D.267267._M_end_of_storage, _180
	je	.L223	#,
.LVL407:
.LBB4486:
.LBI4486:
	.loc 13 511 2 is_stmt 1 view .LVU1411
.LBB4487:
.LBI4487:
	.loc 15 94 5 view .LVU1412
.LBB4488:
.LBI4488:
	.loc 18 742 2 view .LVU1413
.LBB4489:
.LBI4489:
	.loc 19 77 5 view .LVU1414
	.loc 19 77 5 is_stmt 0 view .LVU1415
.LBE4489:
.LBB4490:
.LBI4490:
	.loc 19 77 5 is_stmt 1 view .LVU1416
	.loc 19 77 5 is_stmt 0 view .LVU1417
.LBE4490:
.LBB4491:
.LBI4491:
	.loc 19 77 5 is_stmt 1 view .LVU1418
	.loc 19 77 5 is_stmt 0 view .LVU1419
.LBE4491:
.LBB4492:
.LBI4492:
	.loc 18 290 2 is_stmt 1 view .LVU1420
.LBB4493:
.LBI4493:
	.loc 19 77 5 view .LVU1421
	.loc 19 77 5 is_stmt 0 view .LVU1422
.LBE4493:
.LBB4494:
.LBI4494:
	.loc 19 77 5 is_stmt 1 view .LVU1423
	.loc 19 77 5 is_stmt 0 view .LVU1424
.LBE4494:
.LBB4495:
.LBI4495:
	.loc 18 290 2 is_stmt 1 view .LVU1425
.LBB4496:
.LBI4496:
	.loc 19 77 5 view .LVU1426
	.loc 19 77 5 is_stmt 0 view .LVU1427
.LBE4496:
.LBB4497:
.LBI4497:
	.loc 18 440 2 is_stmt 1 view .LVU1428
.LBB4498:
.LBI4498:
	.loc 19 77 5 view .LVU1429
	.loc 19 77 5 is_stmt 0 view .LVU1430
.LBE4498:
.LBB4499:
.LBI4499:
	.loc 18 199 19 is_stmt 1 view .LVU1431
.LBB4500:
.LBB4501:
.LBI4501:
	.loc 19 77 5 view .LVU1432
	.loc 19 77 5 is_stmt 0 view .LVU1433
.LBE4501:
# /usr/include/c++/11/tuple:200: 	: _M_head_impl(std::forward<_UHead>(__h)) { }
	.loc 18 200 4 view .LVU1434
	movq	%rcx, (%rsi)	# prephitmp_314, MEM[(struct _Head_base *)_180]._M_head_impl
.LVL408:
	.loc 18 200 4 view .LVU1435
.LBE4500:
.LBE4499:
.LBE4497:
.LBB4502:
.LBI4502:
	.loc 19 77 5 is_stmt 1 view .LVU1436
	.loc 19 77 5 is_stmt 0 view .LVU1437
.LBE4502:
.LBB4503:
.LBI4503:
	.loc 18 199 19 is_stmt 1 view .LVU1438
.LBB4504:
.LBB4505:
.LBI4505:
	.loc 19 77 5 view .LVU1439
	.loc 19 77 5 is_stmt 0 view .LVU1440
.LBE4505:
.LBE4504:
.LBE4503:
.LBE4495:
.LBE4492:
.LBE4488:
.LBE4487:
.LBE4486:
# /usr/include/c++/11/bits/vector.tcc:117: 	    ++this->_M_impl._M_finish;
	.loc 16 117 6 view .LVU1441
	addq	$24, %rsi	#, _180
.LVL409:
.LBB4516:
.LBB4515:
.LBB4514:
.LBB4513:
.LBB4508:
.LBB4507:
.LBB4506:
# /usr/include/c++/11/tuple:200: 	: _M_head_impl(std::forward<_UHead>(__h)) { }
	.loc 18 200 4 view .LVU1442
	movq	$-1, -16(%rsi)	#, MEM[(struct _Head_base *)_180 + 8B]._M_head_impl
.LVL410:
	.loc 18 200 4 view .LVU1443
.LBE4506:
.LBE4507:
.LBE4508:
.LBB4509:
.LBI4509:
	.loc 19 77 5 is_stmt 1 view .LVU1444
	.loc 19 77 5 is_stmt 0 view .LVU1445
.LBE4509:
.LBB4510:
.LBI4510:
	.loc 18 199 19 is_stmt 1 view .LVU1446
.LBB4511:
.LBB4512:
.LBI4512:
	.loc 19 77 5 view .LVU1447
	.loc 19 77 5 is_stmt 0 view .LVU1448
.LBE4512:
# /usr/include/c++/11/tuple:200: 	: _M_head_impl(std::forward<_UHead>(__h)) { }
	.loc 18 200 4 view .LVU1449
	movq	%rax, -8(%rsi)	# _25, MEM[(struct _Head_base *)_180 + 16B]._M_head_impl
.LVL411:
	.loc 18 200 4 view .LVU1450
.LBE4511:
.LBE4510:
.LBE4513:
.LBE4514:
.LBE4515:
.LBE4516:
# /usr/include/c++/11/bits/vector.tcc:117: 	    ++this->_M_impl._M_finish;
	.loc 16 117 6 view .LVU1451
	movq	%rsi, 152(%rsp)	# _180, MEM[(struct vector *)_256].D.267922._M_impl.D.267267._M_finish
.LVL412:
.L222:
	.loc 16 117 6 view .LVU1452
.LBE4524:
.LBE4528:
.LBE4580:
	.loc 5 80 10 is_stmt 1 discriminator 1 view .LVU1453
.LBB4581:
	.loc 6 1007 7 discriminator 1 view .LVU1454
.LBB4575:
	.loc 6 838 7 discriminator 1 view .LVU1455
.LBB4568:
	.loc 7 1027 7 discriminator 1 view .LVU1456
	.loc 7 1027 7 is_stmt 0 discriminator 1 view .LVU1457
.LBE4568:
.LBE4575:
.LBB4576:
	.loc 6 820 7 is_stmt 1 discriminator 1 view .LVU1458
.LBB4573:
	.loc 7 1027 7 discriminator 1 view .LVU1459
	.loc 7 1027 7 is_stmt 0 discriminator 1 view .LVU1460
.LBE4573:
.LBE4576:
.LBE4581:
# foo.cc:80:   while (not stack.empty()) {
	.loc 5 80 10 discriminator 1 view .LVU1461
	cmpq	%rsi, 144(%rsp)	# _180, MEM[(const struct tuple * const &)_256]
	je	.L225	#,
.L255:
.LBB4582:
# foo.cc:83:     if (cidx == -1) ;
	.loc 5 83 9 view .LVU1462
	movq	-16(%rsi), %rax	# MEM[(type &)prephitmp_302 + 18446744073709551600], prephitmp_313
# foo.cc:85:       c = nbr[nd][cidx];
	.loc 5 85 15 view .LVU1463
	movq	-8(%rsi), %rcx	# MEM[(type &)prephitmp_302 + 18446744073709551608], prephitmp_314
.L226:
	.loc 5 81 5 is_stmt 1 view .LVU1464
.LVL413:
.LBB4529:
.LBI4529:
	.loc 6 1143 7 view .LVU1465
.LBB4530:
.LBI4530:
	.loc 6 829 7 view .LVU1466
.LBB4531:
.LBI4531:
	.loc 7 1027 7 view .LVU1467
	.loc 7 1027 7 is_stmt 0 view .LVU1468
.LBE4531:
.LBE4530:
.LBB4532:
.LBI4532:
	.loc 7 1100 7 is_stmt 1 view .LVU1469
.LBB4533:
.LBI4533:
	.loc 7 1027 7 view .LVU1470
	.loc 7 1027 7 is_stmt 0 view .LVU1471
.LBE4533:
.LBE4532:
.LBE4529:
.LBB4534:
.LBI4534:
	.loc 18 1393 5 is_stmt 1 view .LVU1472
.LBB4535:
.LBI4535:
	.loc 18 1377 5 view .LVU1473
.LBB4536:
.LBI4536:
	.loc 18 268 7 view .LVU1474
.LBB4537:
.LBI4537:
	.loc 18 233 7 view .LVU1475
	.loc 18 233 7 is_stmt 0 view .LVU1476
.LBE4537:
.LBE4536:
.LBE4535:
.LBE4534:
	.loc 5 82 5 is_stmt 1 view .LVU1477
	.loc 5 83 5 view .LVU1478
.LBB4538:
.LBB4539:
# /usr/include/c++/11/bits/stl_vector.h:1046: 	return *(this->_M_impl._M_start + __n);
	.loc 6 1046 34 is_stmt 0 view .LVU1479
	leaq	(%rcx,%rcx,2), %r8	#, tmp255
	movq	48(%rsp), %rdx	# nbr.D.265739._M_impl.D.265084._M_start, nbr.D.265739._M_impl.D.265084._M_start
	leaq	0(,%r8,8), %rdi	#, prephitmp_304
.LBE4539:
.LBE4538:
# foo.cc:83:     if (cidx == -1) ;
	.loc 5 83 5 view .LVU1480
	cmpq	$-1, %rax	#, prephitmp_313
	je	.L219	#,
	.loc 5 85 7 is_stmt 1 view .LVU1481
.LVL414:
.LBB4540:
.LBI4538:
	.loc 6 1043 7 view .LVU1482
	.loc 6 1043 7 is_stmt 0 view .LVU1483
.LBE4540:
.LBB4541:
.LBI4541:
	.loc 6 1043 7 is_stmt 1 view .LVU1484
	.loc 6 1043 7 is_stmt 0 view .LVU1485
.LBE4541:
# foo.cc:85:       c = nbr[nd][cidx];
	.loc 5 85 9 view .LVU1486
	movq	(%rdx,%r8,8), %r8	# MEM[(struct vector *)_58].D.266787._M_impl.D.266142._M_start, MEM[(struct vector *)_58].D.266787._M_impl.D.266142._M_start
	.loc 5 86 7 is_stmt 1 view .LVU1487
# foo.cc:86:       if (c != pt) vec2[nd] += vec2[c];
	.loc 5 86 11 is_stmt 0 view .LVU1488
	movslq	(%r8,%rax,8), %r8	# *_87, _12
# foo.cc:86:       if (c != pt) vec2[nd] += vec2[c];
	.loc 5 86 7 view .LVU1489
	cmpq	-24(%rsi), %r8	# MEM[(type &)_180 + 18446744073709551592], _12
	je	.L219	#,
	.loc 5 86 20 is_stmt 1 discriminator 1 view .LVU1490
.LVL415:
.LBB4542:
.LBI4542:
	.loc 6 1043 7 discriminator 1 view .LVU1491
	.loc 6 1043 7 is_stmt 0 discriminator 1 view .LVU1492
.LBE4542:
.LBB4543:
.LBI4543:
	.loc 6 1043 7 is_stmt 1 discriminator 1 view .LVU1493
	.loc 6 1043 7 is_stmt 0 discriminator 1 view .LVU1494
.LBE4543:
# foo.cc:86:       if (c != pt) vec2[nd] += vec2[c];
	.loc 5 86 29 discriminator 1 view .LVU1495
	movq	(%rbx,%r8,8), %rax	# *_44, *_44
	addq	%rax, (%rbx,%rcx,8)	# *_44, *_117
# foo.cc:89:     if (cidx < ssize(nbr[nd])) {
	.loc 5 89 26 discriminator 1 view .LVU1496
	movq	-8(%rsi), %rcx	# MEM[(type &)_180 + 18446744073709551608], prephitmp_314
# foo.cc:88:     cidx++;
	.loc 5 88 5 discriminator 1 view .LVU1497
	movq	-16(%rsi), %rax	# MEM[(type &)_180 + 18446744073709551600], prephitmp_313
.LBB4544:
.LBB4545:
# /usr/include/c++/11/bits/stl_vector.h:1046: 	return *(this->_M_impl._M_start + __n);
	.loc 6 1046 34 discriminator 1 view .LVU1498
	leaq	(%rcx,%rcx,2), %rdi	#, tmp266
	salq	$3, %rdi	#, prephitmp_304
.L219:
.LVL416:
	.loc 6 1046 34 discriminator 1 view .LVU1499
.LBE4545:
.LBE4544:
	.loc 5 88 5 is_stmt 1 view .LVU1500
.LBB4547:
.LBB4546:
# /usr/include/c++/11/bits/stl_vector.h:1046: 	return *(this->_M_impl._M_start + __n);
	.loc 6 1046 39 is_stmt 0 view .LVU1501
	addq	%rdi, %rdx	# prephitmp_304, _131
.LBE4546:
.LBE4547:
# foo.cc:88:     cidx++;
	.loc 5 88 9 view .LVU1502
	addq	$1, %rax	#, _19
.LBB4548:
.LBB4549:
.LBB4550:
.LBB4551:
# /usr/include/c++/11/bits/stl_vector.h:919:       { return size_type(this->_M_impl._M_finish - this->_M_impl._M_start); }
	.loc 6 919 66 view .LVU1503
	movq	(%rdx), %rdi	# MEM[(const struct vector *)_131].D.266787._M_impl.D.266142._M_start, _126
# /usr/include/c++/11/bits/stl_vector.h:919:       { return size_type(this->_M_impl._M_finish - this->_M_impl._M_start); }
	.loc 6 919 50 view .LVU1504
	movq	8(%rdx), %rdx	# MEM[(const struct vector *)_131].D.266787._M_impl.D.266142._M_finish, MEM[(const struct vector *)_131].D.266787._M_impl.D.266142._M_finish
.LBE4551:
.LBE4550:
.LBE4549:
.LBE4548:
# foo.cc:88:     cidx++;
	.loc 5 88 9 view .LVU1505
	movq	%rax, -16(%rsi)	# _19, MEM[(type &)_180 + 18446744073709551600]
	.loc 5 89 5 is_stmt 1 view .LVU1506
.LVL417:
.LBB4555:
.LBI4544:
	.loc 6 1043 7 view .LVU1507
	.loc 6 1043 7 is_stmt 0 view .LVU1508
.LBE4555:
.LBB4556:
.LBI4548:
	.file 23 "/usr/include/c++/11/bits/range_access.h"
	.loc 23 326 5 is_stmt 1 view .LVU1509
.LBB4554:
.LBB4553:
.LBI4550:
	.loc 6 918 7 view .LVU1510
.LBB4552:
# /usr/include/c++/11/bits/stl_vector.h:919:       { return size_type(this->_M_impl._M_finish - this->_M_impl._M_start); }
	.loc 6 919 50 is_stmt 0 view .LVU1511
	subq	%rdi, %rdx	# _126, tmp269
	sarq	$3, %rdx	#, tmp272
.LBE4552:
.LBE4553:
.LBE4554:
.LBE4556:
# foo.cc:89:     if (cidx < ssize(nbr[nd])) {
	.loc 5 89 5 view .LVU1512
	cmpq	%rdx, %rax	# tmp272, _19
	jl	.L254	#,
	.loc 5 93 7 is_stmt 1 view .LVU1513
.LVL418:
.LBB4557:
.LBI4557:
	.loc 6 1225 7 view .LVU1514
.LBB4558:
# /usr/include/c++/11/bits/stl_vector.h:1228: 	--this->_M_impl._M_finish;
	.loc 6 1228 2 is_stmt 0 view .LVU1515
	subq	$24, %rsi	#, _180
	movq	%rsi, 152(%rsp)	# _180, MEM[(struct vector *)_256].D.267922._M_impl.D.267267._M_finish
.LVL419:
	.loc 6 1228 2 view .LVU1516
.LBE4558:
.LBE4557:
.LBE4582:
	.loc 5 80 10 is_stmt 1 view .LVU1517
.LBB4583:
	.loc 6 1007 7 view .LVU1518
.LBB4577:
	.loc 6 838 7 view .LVU1519
.LBB4569:
	.loc 7 1027 7 view .LVU1520
	.loc 7 1027 7 is_stmt 0 view .LVU1521
.LBE4569:
.LBE4577:
.LBB4578:
	.loc 6 820 7 is_stmt 1 view .LVU1522
.LBB4574:
	.loc 7 1027 7 view .LVU1523
	.loc 7 1027 7 is_stmt 0 view .LVU1524
.LBE4574:
.LBE4578:
.LBE4583:
# foo.cc:80:   while (not stack.empty()) {
	.loc 5 80 10 view .LVU1525
	cmpq	%rsi, 144(%rsp)	# _180, MEM[(const struct tuple * const &)_256]
	jne	.L255	#,
.L225:
	.loc 5 96 3 is_stmt 1 view .LVU1526
.LBB4584:
.LBI4584:
	.loc 5 21 8 view .LVU1527
.LBB4585:
	.loc 5 22 3 view .LVU1528
	.loc 5 23 3 view .LVU1529
# foo.cc:23:   return static_cast<double>(duration_cast<nanoseconds>(steady_clock::now().time_since_epoch()).count())/1000000000;
	.loc 5 23 74 is_stmt 0 view .LVU1530
	call	_ZNSt6chrono3_V212steady_clock3nowEv@PLT	#
.LVL420:
.LBB4586:
.LBI4586:
	.loc 14 898 2 is_stmt 1 view .LVU1531
	.loc 14 898 2 is_stmt 0 view .LVU1532
.LBE4586:
.LBB4587:
.LBI4587:
	.loc 14 267 7 is_stmt 1 view .LVU1533
.LBB4588:
.LBB4589:
.LBI4589:
	.loc 14 211 4 view .LVU1534
.LBB4590:
.LBB4591:
.LBI4591:
	.loc 14 521 23 view .LVU1535
.LBE4591:
.LBE4590:
.LBE4589:
.LBE4588:
.LBE4587:
.LBE4585:
.LBE4584:
# foo.cc:97:   dfs(dfs, root, -1);
	.loc 5 97 6 is_stmt 0 view .LVU1536
	movq	40(%rsp), %rdx	# dfs,
	movq	32(%rsp), %rsi	# dfs,
	movq	%r12, %rcx	# _51,
	leaq	32(%rsp), %rdi	#, tmp283
	movq	$-1, %r8	#,
.LBB4593:
.LBB4592:
# foo.cc:23:   return static_cast<double>(duration_cast<nanoseconds>(steady_clock::now().time_since_epoch()).count())/1000000000;
	.loc 5 23 10 view .LVU1537
	pxor	%xmm0, %xmm0	# tmp279
	cvtsi2sdq	%rax, %xmm0	# tmp338, tmp279
# foo.cc:23:   return static_cast<double>(duration_cast<nanoseconds>(steady_clock::now().time_since_epoch()).count())/1000000000;
	.loc 5 23 106 view .LVU1538
	divsd	.LC0(%rip), %xmm0	#, tmp279
	movsd	%xmm0, (%rsp)	# tmp279, %sfp
.LVL421:
	.loc 5 23 106 view .LVU1539
.LBE4592:
.LBE4593:
	.loc 5 97 3 is_stmt 1 view .LVU1540
# foo.cc:97:   dfs(dfs, root, -1);
	.loc 5 97 6 is_stmt 0 view .LVU1541
	call	_ZZ4mainENKUlT_xxE_clIS0_EEvS_xx	#
.LVL422:
	.loc 5 98 3 is_stmt 1 view .LVU1542
.LBB4594:
.LBI4594:
	.loc 5 21 8 view .LVU1543
.LBB4595:
	.loc 5 22 3 view .LVU1544
	.loc 5 23 3 view .LVU1545
# foo.cc:23:   return static_cast<double>(duration_cast<nanoseconds>(steady_clock::now().time_since_epoch()).count())/1000000000;
	.loc 5 23 74 is_stmt 0 view .LVU1546
	call	_ZNSt6chrono3_V212steady_clock3nowEv@PLT	#
.LVL423:
.LBB4596:
.LBI4596:
	.loc 14 898 2 is_stmt 1 view .LVU1547
	.loc 14 898 2 is_stmt 0 view .LVU1548
.LBE4596:
.LBB4597:
.LBI4597:
	.loc 14 267 7 is_stmt 1 view .LVU1549
.LBB4598:
.LBB4599:
.LBI4599:
	.loc 14 211 4 view .LVU1550
.LBB4600:
.LBB4601:
.LBI4601:
	.loc 14 521 23 view .LVU1551
.LBE4601:
.LBE4600:
.LBE4599:
.LBE4598:
.LBE4597:
# foo.cc:23:   return static_cast<double>(duration_cast<nanoseconds>(steady_clock::now().time_since_epoch()).count())/1000000000;
	.loc 5 23 10 is_stmt 0 view .LVU1552
	pxor	%xmm0, %xmm0	# tmp284
.LBE4595:
.LBE4594:
.LBB4604:
.LBB4605:
.LBB4606:
# /usr/include/c++/11/bits/stl_vector.h:1046: 	return *(this->_M_impl._M_start + __n);
	.loc 6 1046 25 view .LVU1553
	movq	80(%rsp), %rdx	# vec1.D.266787._M_impl.D.266142._M_start, _145
.LBE4606:
.LBE4605:
.LBE4604:
.LBB4608:
.LBB4602:
# foo.cc:23:   return static_cast<double>(duration_cast<nanoseconds>(steady_clock::now().time_since_epoch()).count())/1000000000;
	.loc 5 23 10 view .LVU1554
	cvtsi2sdq	%rax, %xmm0	# tmp339, tmp284
.LBE4602:
.LBE4608:
.LBB4609:
# foo.cc:99:   REP(i, 0, N) {
	.loc 5 99 3 view .LVU1555
	xorl	%eax, %eax	# i
.LBE4609:
.LBB4610:
.LBB4603:
# foo.cc:23:   return static_cast<double>(duration_cast<nanoseconds>(steady_clock::now().time_since_epoch()).count())/1000000000;
	.loc 5 23 106 view .LVU1556
	divsd	.LC0(%rip), %xmm0	#, tmp284
	movq	%xmm0, %r12	# tmp284, _139
.LVL424:
	.loc 5 23 106 view .LVU1557
.LBE4603:
.LBE4610:
	.loc 5 99 3 is_stmt 1 view .LVU1558
.LBB4611:
	.loc 5 99 3 view .LVU1559
	.p2align 4,,10
	.p2align 3
.L228:
	.loc 5 100 5 view .LVU1560
.LBB4607:
.LBI4605:
	.loc 6 1043 7 view .LVU1561
	.loc 6 1043 7 is_stmt 0 view .LVU1562
.LBE4607:
# foo.cc:100:     assert(vec1[i] == vec2[i]);
	.loc 5 100 5 view .LVU1563
	movq	(%rbx,%rax,8), %rdi	# MEM[(value_type &)_288 + _382 * 8], tmp360
	cmpq	%rdi, (%rdx,%rax,8)	# tmp360, MEM[(value_type &)_145 + _382 * 8]
	jne	.L256	#,
	.loc 5 99 3 is_stmt 1 discriminator 2 view .LVU1564
	addq	$1, %rax	#, i
.LVL425:
	.loc 5 99 3 discriminator 2 view .LVU1565
	cmpq	$65536, %rax	#, i
	jne	.L228	#,
.LBE4611:
	.loc 5 102 3 view .LVU1566
.LVL426:
.LBB4612:
.LBI4612:
	.loc 3 220 7 view .LVU1567
.LBE4612:
# foo.cc:102:   cout << t2 - t1 << endl;
	.loc 5 102 16 is_stmt 0 view .LVU1568
	movsd	(%rsp), %xmm0	# %sfp, tmp290
.LVL427:
	.loc 5 102 16 view .LVU1569
	subsd	8(%rsp), %xmm0	# %sfp, tmp290
.LVL428:
.LBB4614:
.LBB4613:
# /usr/include/c++/11/ostream:221:       { return _M_insert(__f); }
	.loc 3 221 25 view .LVU1570
	leaq	_ZSt4cout(%rip), %r15	#, tmp322
	movq	%r15, %rdi	# tmp322,
	leaq	144(%rsp), %r14	#, tmp324
	call	_ZNSo9_M_insertIdEERSoT_@PLT	#
.LVL429:
	.loc 3 221 25 view .LVU1571
	movq	%rax, %rdi	# tmp340, _148
.LVL430:
	.loc 3 221 25 view .LVU1572
.LBE4613:
.LBE4614:
.LBB4615:
.LBI4615:
	.loc 3 108 7 is_stmt 1 view .LVU1573
.LBB4616:
# /usr/include/c++/11/ostream:113: 	return __pf(*this);
	.loc 3 113 13 is_stmt 0 view .LVU1574
	call	_ZSt4endlIcSt11char_traitsIcEERSt13basic_ostreamIT_T0_ES6_.isra.0	#
.LVL431:
	.loc 3 113 13 view .LVU1575
.LBE4616:
.LBE4615:
	.loc 5 103 3 is_stmt 1 view .LVU1576
.LBB4617:
.LBI4617:
	.loc 3 220 7 view .LVU1577
.LBE4617:
# foo.cc:103:   cout << t3 - t2 << endl;
	.loc 5 103 16 is_stmt 0 view .LVU1578
	movq	%r12, %xmm2	# _139, _139
	subsd	(%rsp), %xmm2	# %sfp, _139
.LVL432:
.LBB4620:
.LBB4618:
# /usr/include/c++/11/ostream:221:       { return _M_insert(__f); }
	.loc 3 221 25 view .LVU1579
	movq	%r15, %rdi	# tmp322,
.LBE4618:
.LBE4620:
# foo.cc:103:   cout << t3 - t2 << endl;
	.loc 5 103 16 view .LVU1580
	movapd	%xmm2, %xmm0	# _139, tmp292
.LBB4621:
.LBB4619:
# /usr/include/c++/11/ostream:221:       { return _M_insert(__f); }
	.loc 3 221 25 view .LVU1581
	call	_ZNSo9_M_insertIdEERSoT_@PLT	#
.LVL433:
	.loc 3 221 25 view .LVU1582
	movq	%rax, %rdi	# tmp341, _149
.LVL434:
	.loc 3 221 25 view .LVU1583
.LBE4619:
.LBE4621:
.LBB4622:
.LBI4622:
	.loc 3 108 7 is_stmt 1 view .LVU1584
.LBB4623:
# /usr/include/c++/11/ostream:113: 	return __pf(*this);
	.loc 3 113 13 is_stmt 0 view .LVU1585
	call	_ZSt4endlIcSt11char_traitsIcEERSt13basic_ostreamIT_T0_ES6_.isra.0	#
.LVL435:
	.loc 3 113 13 view .LVU1586
.LBE4623:
.LBE4622:
.LBB4624:
.LBI4624:
	.loc 6 678 7 is_stmt 1 view .LVU1587
.LBB4625:
.LBB4626:
.LBI4626:
	.loc 6 276 7 view .LVU1588
	.loc 6 276 7 is_stmt 0 view .LVU1589
.LBE4626:
.LBB4627:
.LBI4627:
	.loc 13 845 5 is_stmt 1 view .LVU1590
	.loc 13 845 5 is_stmt 0 view .LVU1591
.LBE4627:
# /usr/include/c++/11/bits/stl_vector.h:683:       }
	.loc 6 683 7 view .LVU1592
	movq	%r14, %rdi	# tmp324, tmp294
	call	_ZNSt12_Vector_baseISt5tupleIJxxxEESaIS1_EED2Ev	#
.LVL436:
	.loc 6 683 7 view .LVU1593
.LBE4625:
.LBE4624:
.LBB4628:
.LBI4628:
	.loc 6 678 7 is_stmt 1 view .LVU1594
.LBB4629:
.LBB4630:
.LBI4630:
	.loc 6 276 7 view .LVU1595
	.loc 6 276 7 is_stmt 0 view .LVU1596
.LBE4630:
.LBB4631:
.LBI4631:
	.loc 13 845 5 is_stmt 1 view .LVU1597
	.loc 13 845 5 is_stmt 0 view .LVU1598
.LBE4631:
# /usr/include/c++/11/bits/stl_vector.h:683:       }
	.loc 6 683 7 view .LVU1599
	leaq	112(%rsp), %rdi	#, tmp295
.LVL437:
	.loc 6 683 7 view .LVU1600
	call	_ZNSt12_Vector_baseIxSaIxEED2Ev	#
.LVL438:
	.loc 6 683 7 view .LVU1601
.LBE4629:
.LBE4628:
.LBB4632:
.LBI4632:
	.loc 6 678 7 is_stmt 1 view .LVU1602
.LBB4633:
.LBB4634:
.LBI4634:
	.loc 6 276 7 view .LVU1603
	.loc 6 276 7 is_stmt 0 view .LVU1604
.LBE4634:
.LBB4635:
.LBI4635:
	.loc 13 845 5 is_stmt 1 view .LVU1605
	.loc 13 845 5 is_stmt 0 view .LVU1606
.LBE4635:
# /usr/include/c++/11/bits/stl_vector.h:683:       }
	.loc 6 683 7 view .LVU1607
	movq	%r13, %rdi	# tmp320,
	call	_ZNSt12_Vector_baseIxSaIxEED2Ev	#
.LVL439:
	.loc 6 683 7 view .LVU1608
.LBE4633:
.LBE4632:
# foo.cc:105: }
	.loc 5 105 1 view .LVU1609
	movq	%rbp, %rdi	# tmp319,
	call	_ZNSt6vectorIS_IxSaIxEESaIS1_EED1Ev	#
.LVL440:
	.loc 5 105 1 view .LVU1610
	movq	2680(%rsp), %rax	# D.302207, tmp346
	subq	%fs:40, %rax	# MEM[(<address-space-1> long unsigned int *)40B], tmp346
	jne	.L257	#,
	addq	$2696, %rsp	#,
	.cfi_remember_state
	.cfi_def_cfa_offset 56
	xorl	%eax, %eax	#
	popq	%rbx	#
	.cfi_def_cfa_offset 48
	popq	%rbp	#
	.cfi_def_cfa_offset 40
	popq	%r12	#
	.cfi_def_cfa_offset 32
.LVL441:
	.loc 5 105 1 view .LVU1611
	popq	%r13	#
	.cfi_def_cfa_offset 24
	popq	%r14	#
	.cfi_def_cfa_offset 16
	popq	%r15	#
	.cfi_def_cfa_offset 8
	ret	
.LVL442:
.L223:
	.cfi_restore_state
.LBB4636:
.LBB4559:
.LBB4525:
.LBB4517:
.LBI4517:
	.loc 6 829 7 is_stmt 1 view .LVU1612
.LBB4518:
.LBI4518:
	.loc 7 1027 7 view .LVU1613
	.loc 7 1027 7 is_stmt 0 view .LVU1614
.LBE4518:
.LBE4517:
# /usr/include/c++/11/bits/vector.tcc:121: 	  _M_realloc_insert(end(), std::forward<_Args>(__args)...);
	.loc 16 121 21 view .LVU1615
	leaq	144(%rsp), %r14	#, tmp324
	.loc 16 121 21 view .LVU1616
	leaq	24(%rsp), %rdx	#, tmp277
.LVL443:
	.loc 16 121 21 view .LVU1617
	movq	%r15, %rcx	# tmp325,
	leaq	-8(%rsi), %r8	#,
	movq	%r14, %rdi	# tmp324,
	call	_ZNSt6vectorISt5tupleIJxxxEESaIS1_EE17_M_realloc_insertIJRiiRxEEEvN9__gnu_cxx17__normal_iteratorIPS1_S3_EEDpOT_	#
.LVL444:
.LEHE7:
	.p2align 4,,10
	.p2align 3
.L250:
	.loc 16 121 21 view .LVU1618
.LBE4525:
.LBE4559:
.LBE4636:
.LBB4637:
.LBB4579:
.LBB4570:
.LBB4567:
# /usr/include/c++/11/bits/stl_iterator.h:1028:       : _M_current(__i) { }
	.loc 7 1028 9 view .LVU1619
	movq	152(%rsp), %rsi	# MEM[(const struct tuple * const &)_256], _180
.LVL445:
	.loc 7 1028 9 view .LVU1620
.LBE4567:
.LBE4570:
.LBE4579:
.LBE4637:
.LBB4638:
.LBB4560:
.LBB4526:
.LBB4519:
.LBI4519:
	.loc 6 1143 7 is_stmt 1 view .LVU1621
.LBB4520:
.LBI4520:
	.loc 6 829 7 view .LVU1622
.LBB4521:
.LBI4521:
	.loc 7 1027 7 view .LVU1623
	.loc 7 1027 7 is_stmt 0 view .LVU1624
.LBE4521:
.LBE4520:
.LBB4522:
.LBI4522:
	.loc 7 1100 7 is_stmt 1 view .LVU1625
.LBB4523:
.LBI4523:
	.loc 7 1027 7 view .LVU1626
	.loc 7 1027 7 is_stmt 0 view .LVU1627
	jmp	.L222	#
.LVL446:
.L256:
	.loc 7 1027 7 view .LVU1628
.LBE4523:
.LBE4522:
.LBE4519:
.LBE4526:
.LBE4560:
.LBE4638:
.LBB4639:
# foo.cc:100:     assert(vec1[i] == vec2[i]);
	.loc 5 100 5 discriminator 1 view .LVU1629
	leaq	.LC3(%rip), %rcx	#, tmp287
	movl	$100, %edx	#,
	leaq	.LC4(%rip), %rsi	#, tmp288
	leaq	.LC5(%rip), %rdi	#, tmp289
	call	__assert_fail@PLT	#
.LVL447:
.L257:
	.loc 5 100 5 discriminator 1 view .LVU1630
.LBE4639:
# foo.cc:105: }
	.loc 5 105 1 view .LVU1631
	call	__stack_chk_fail@PLT	#
.LVL448:
.L233:
	.loc 5 105 1 view .LVU1632
	endbr64	
.LBB4640:
.LBB4641:
# /usr/include/c++/11/bits/stl_vector.h:683:       }
	.loc 6 683 7 view .LVU1633
	movq	%rax, %r12	# tmp343, tmp305
.LVL449:
	.loc 6 683 7 view .LVU1634
	leaq	48(%rsp), %rbp	#, tmp319
	leaq	80(%rsp), %r13	#, tmp320
	jmp	.L230	#
.LVL450:
.L243:
	.loc 6 683 7 view .LVU1635
	endbr64	
	jmp	.L244	#
.LVL451:
.L234:
	.loc 6 683 7 view .LVU1636
	endbr64	
.LBE4641:
.LBE4640:
.LBB4645:
.LBB4646:
	movq	%rax, %r12	# tmp342, tmp301
	jmp	.L229	#
.LVL452:
	.loc 6 683 7 view .LVU1637
.LBE4646:
.LBE4645:
	.section	.gcc_except_table,"a",@progbits
.LLSDA11922:
	.byte	0xff
	.byte	0xff
	.byte	0x1
	.uleb128 .LLSDACSE11922-.LLSDACSB11922
.LLSDACSB11922:
	.uleb128 .LEHB4-.LFB11922
	.uleb128 .LEHE4-.LEHB4
	.uleb128 0
	.uleb128 0
	.uleb128 .LEHB5-.LFB11922
	.uleb128 .LEHE5-.LEHB5
	.uleb128 .L243-.LFB11922
	.uleb128 0
	.uleb128 .LEHB6-.LFB11922
	.uleb128 .LEHE6-.LEHB6
	.uleb128 .L233-.LFB11922
	.uleb128 0
	.uleb128 .LEHB7-.LFB11922
	.uleb128 .LEHE7-.LEHB7
	.uleb128 .L234-.LFB11922
	.uleb128 0
.LLSDACSE11922:
	.section	.text.startup
	.cfi_endproc
	.section	.text.unlikely
	.cfi_startproc
	.cfi_personality 0x9b,DW.ref.__gxx_personality_v0
	.cfi_lsda 0x1b,.LLSDAC11922
	.type	main.cold, @function
main.cold:
.LFSB11922:
.LBB4651:
.LBB4649:
.L245:
	.cfi_def_cfa_offset 2752
	.cfi_offset 3, -56
	.cfi_offset 6, -48
	.cfi_offset 12, -40
	.cfi_offset 13, -32
	.cfi_offset 14, -24
	.cfi_offset 15, -16
.LBE4649:
.LBE4651:
.LBB4652:
.LBB4250:
.LBB4246:
.LBB4221:
	.loc 5 40 7 is_stmt 1 view -0
# foo.cc:40:       throw runtime_error("Random.range: invalid range");
	.loc 5 40 56 is_stmt 0 view .LVU1639
	movl	$16, %edi	#,
	call	__cxa_allocate_exception@PLT	#
.LVL453:
# foo.cc:40:       throw runtime_error("Random.range: invalid range");
	.loc 5 40 7 view .LVU1640
	leaq	.LC2(%rip), %rsi	#, tmp205
	movq	%rax, %rdi	# _210,
# foo.cc:40:       throw runtime_error("Random.range: invalid range");
	.loc 5 40 56 view .LVU1641
	movq	%rax, %rbp	# tmp329, _210
.LVL454:
.LEHB8:
# foo.cc:40:       throw runtime_error("Random.range: invalid range");
	.loc 5 40 7 view .LVU1642
	call	_ZNSt13runtime_errorC1EPKc@PLT	#
.LVL455:
.LEHE8:
# foo.cc:40:       throw runtime_error("Random.range: invalid range");
	.loc 5 40 56 view .LVU1643
	movq	_ZNSt13runtime_errorD1Ev@GOTPCREL(%rip), %rdx	#,
	leaq	_ZTISt13runtime_error(%rip), %rsi	#, tmp208
	movq	%rbp, %rdi	# _210,
.LEHB9:
	call	__cxa_throw@PLT	#
.LVL456:
.LEHE9:
.L229:
	.loc 5 40 56 view .LVU1644
.LBE4221:
.LBE4246:
.LBE4250:
.LBE4652:
.LBB4653:
.LBI4645:
	.loc 6 678 7 is_stmt 1 view .LVU1645
.LBB4650:
.LBB4647:
.LBI4647:
	.loc 6 276 7 view .LVU1646
	.loc 6 276 7 is_stmt 0 view .LVU1647
.LBE4647:
.LBB4648:
.LBI4648:
	.loc 13 845 5 is_stmt 1 view .LVU1648
	.loc 13 845 5 is_stmt 0 view .LVU1649
.LBE4648:
# /usr/include/c++/11/bits/stl_vector.h:683:       }
	.loc 6 683 7 view .LVU1650
	movq	%r14, %rdi	# tmp324,
	call	_ZNSt12_Vector_baseISt5tupleIJxxxEESaIS1_EED2Ev	#
.LVL457:
	.loc 6 683 7 view .LVU1651
.LBE4650:
.LBE4653:
.LBB4654:
.LBI4654:
	.loc 6 678 7 is_stmt 1 view .LVU1652
.LBB4655:
.LBB4656:
.LBI4656:
	.loc 6 276 7 view .LVU1653
	.loc 6 276 7 is_stmt 0 view .LVU1654
.LBE4656:
.LBB4657:
.LBI4657:
	.loc 13 845 5 is_stmt 1 view .LVU1655
	.loc 13 845 5 is_stmt 0 view .LVU1656
.LBE4657:
# /usr/include/c++/11/bits/stl_vector.h:683:       }
	.loc 6 683 7 view .LVU1657
	leaq	112(%rsp), %rdi	#, tmp304
.LVL458:
	.loc 6 683 7 view .LVU1658
	call	_ZNSt12_Vector_baseIxSaIxEED2Ev	#
.LVL459:
.L230:
	.loc 6 683 7 view .LVU1659
.LBE4655:
.LBE4654:
.LBB4658:
.LBI4640:
	.loc 6 678 7 is_stmt 1 view .LVU1660
.LBB4644:
.LBB4642:
.LBI4642:
	.loc 6 276 7 view .LVU1661
	.loc 6 276 7 is_stmt 0 view .LVU1662
.LBE4642:
.LBB4643:
.LBI4643:
	.loc 13 845 5 is_stmt 1 view .LVU1663
	.loc 13 845 5 is_stmt 0 view .LVU1664
.LBE4643:
# /usr/include/c++/11/bits/stl_vector.h:683:       }
	.loc 6 683 7 view .LVU1665
	movq	%r13, %rdi	# tmp320,
	call	_ZNSt12_Vector_baseIxSaIxEED2Ev	#
.LVL460:
.L212:
	.loc 6 683 7 view .LVU1666
.LBE4644:
.LBE4658:
# foo.cc:105: }
	.loc 5 105 1 view .LVU1667
	movq	%rbp, %rdi	# tmp319,
	call	_ZNSt6vectorIS_IxSaIxEESaIS1_EED1Ev	#
.LVL461:
	movq	%r12, %rdi	# tmp229,
.LEHB10:
	call	_Unwind_Resume@PLT	#
.LVL462:
.LEHE10:
.L232:
	.loc 5 105 1 view .LVU1668
	endbr64	
.LVL463:
.L244:
	.loc 5 105 1 view .LVU1669
	movq	%rax, %r12	# tmp344, tmp229
	leaq	48(%rsp), %rbp	#, tmp319
	jmp	.L212	#
.LVL464:
.L235:
	.loc 5 105 1 view .LVU1670
	endbr64	
.LBB4659:
.LBB4251:
.LBB4247:
.LBB4222:
# foo.cc:40:       throw runtime_error("Random.range: invalid range");
	.loc 5 40 56 view .LVU1671
	movq	%rbp, %rdi	# _210,
	movq	%rax, %r12	# tmp332, tmp230
	leaq	48(%rsp), %rbp	#, tmp319
	call	__cxa_free_exception@PLT	#
.LVL465:
	jmp	.L212	#
.LBE4222:
.LBE4247:
.LBE4251:
.LBE4659:
	.cfi_endproc
.LFE11922:
	.section	.gcc_except_table
.LLSDAC11922:
	.byte	0xff
	.byte	0xff
	.byte	0x1
	.uleb128 .LLSDACSEC11922-.LLSDACSBC11922
.LLSDACSBC11922:
	.uleb128 .LEHB8-.LCOLDB6
	.uleb128 .LEHE8-.LEHB8
	.uleb128 .L235-.LCOLDB6
	.uleb128 0
	.uleb128 .LEHB9-.LCOLDB6
	.uleb128 .LEHE9-.LEHB9
	.uleb128 .L232-.LCOLDB6
	.uleb128 0
	.uleb128 .LEHB10-.LCOLDB6
	.uleb128 .LEHE10-.LEHB10
	.uleb128 0
	.uleb128 0
.LLSDACSEC11922:
	.section	.text.unlikely
	.section	.text.startup
	.size	main, .-main
	.section	.text.unlikely
	.size	main.cold, .-main.cold
.LCOLDE6:
	.section	.text.startup
.LHOTE6:
	.p2align 4
	.type	_GLOBAL__sub_I__Z12get_time_secv, @function
_GLOBAL__sub_I__Z12get_time_secv:
.LFB14213:
	.loc 5 105 1 is_stmt 1 view -0
	.cfi_startproc
	endbr64	
.LBB4662:
.LBI4662:
	.loc 5 105 1 view .LVU1673
.LVL466:
	.loc 5 105 1 is_stmt 0 view .LVU1674
.LBE4662:
	pushq	%r12	#
	.cfi_def_cfa_offset 16
	.cfi_offset 12, -16
.LBB4668:
.LBB4663:
# /usr/include/c++/11/iostream:74:   static ios_base::Init __ioinit;
	.file 24 "/usr/include/c++/11/iostream"
	.loc 24 74 25 view .LVU1675
	leaq	__dso_handle(%rip), %r12	#, tmp83
.LBE4663:
.LBE4668:
# foo.cc:105: }
	.loc 5 105 1 view .LVU1676
	pushq	%rbp	#
	.cfi_def_cfa_offset 24
	.cfi_offset 6, -24
.LBB4669:
.LBB4664:
# /usr/include/c++/11/iostream:74:   static ios_base::Init __ioinit;
	.loc 24 74 25 view .LVU1677
	leaq	_ZStL8__ioinit(%rip), %rbp	#, tmp82
	movq	%rbp, %rdi	# tmp82,
.LBE4664:
.LBE4669:
# foo.cc:105: }
	.loc 5 105 1 view .LVU1678
	subq	$8, %rsp	#,
	.cfi_def_cfa_offset 32
.LBB4670:
.LBB4665:
# /usr/include/c++/11/iostream:74:   static ios_base::Init __ioinit;
	.loc 24 74 25 view .LVU1679
	call	_ZNSt8ios_base4InitC1Ev@PLT	#
.LVL467:
	movq	_ZNSt8ios_base4InitD1Ev@GOTPCREL(%rip), %rdi	#,
	movq	%r12, %rdx	# tmp83,
	movq	%rbp, %rsi	# tmp82,
# foo.cc:48: random_device Random::the_random_device;
	.loc 5 48 23 view .LVU1680
	leaq	_ZN6Random17the_random_deviceE(%rip), %rbp	#, tmp87
# /usr/include/c++/11/iostream:74:   static ios_base::Init __ioinit;
	.loc 24 74 25 view .LVU1681
	call	__cxa_atexit@PLT	#
.LVL468:
# foo.cc:48: random_device Random::the_random_device;
	.loc 5 48 23 view .LVU1682
	movq	%rbp, %rdi	# tmp87,
	call	_ZNSt13random_deviceC1Ev	#
.LVL469:
.LBE4665:
.LBE4670:
# foo.cc:105: }
	.loc 5 105 1 view .LVU1683
	addq	$8, %rsp	#,
	.cfi_def_cfa_offset 24
.LBB4671:
.LBB4666:
# foo.cc:48: random_device Random::the_random_device;
	.loc 5 48 15 view .LVU1684
	movq	%r12, %rdx	# tmp83,
	movq	%rbp, %rsi	# tmp87,
	leaq	_ZNSt13random_deviceD1Ev(%rip), %rdi	#, tmp90
.LBE4666:
.LBE4671:
# foo.cc:105: }
	.loc 5 105 1 view .LVU1685
	popq	%rbp	#
	.cfi_def_cfa_offset 16
	popq	%r12	#
	.cfi_def_cfa_offset 8
.LBB4672:
.LBB4667:
# foo.cc:48: random_device Random::the_random_device;
	.loc 5 48 15 view .LVU1686
	jmp	__cxa_atexit@PLT	#
.LVL470:
.LBE4667:
.LBE4672:
	.cfi_endproc
.LFE14213:
	.size	_GLOBAL__sub_I__Z12get_time_secv, .-_GLOBAL__sub_I__Z12get_time_secv
	.section	.init_array,"aw"
	.align 8
	.quad	_GLOBAL__sub_I__Z12get_time_secv
	.globl	_ZN6Random17the_random_deviceE
	.bss
	.align 32
	.type	_ZN6Random17the_random_deviceE, @object
	.size	_ZN6Random17the_random_deviceE, 5000
_ZN6Random17the_random_deviceE:
	.zero	5000
	.local	_ZStL8__ioinit
	.comm	_ZStL8__ioinit,1,1
	.section	.rodata.cst8,"aM",@progbits,8
	.align 8
.LC0:
	.long	0
	.long	1104006501
	.text
.Letext0:
	.section	.text.unlikely
.Letext_cold0:
	.file 25 "/usr/include/x86_64-linux-gnu/bits/types.h"
	.file 26 "/usr/include/locale.h"
	.file 27 "/usr/include/c++/11/clocale"
	.file 28 "/usr/include/c++/11/cmath"
	.file 29 "/usr/include/c++/11/type_traits"
	.file 30 "/usr/include/x86_64-linux-gnu/c++/11/bits/c++config.h"
	.file 31 "/usr/include/c++/11/concepts"
	.file 32 "/usr/include/c++/11/bits/iterator_concepts.h"
	.file 33 "/usr/include/c++/11/bits/ranges_cmp.h"
	.file 34 "/usr/include/c++/11/ranges"
	.file 35 "/usr/include/c++/11/compare"
	.file 36 "/usr/include/c++/11/bits/atomic_wait.h"
	.file 37 "/usr/include/c++/11/bits/regex_automaton.h"
	.file 38 "/usr/include/c++/11/bits/stl_iterator_base_types.h"
	.file 39 "/usr/include/c++/11/debug/debug.h"
	.file 40 "/usr/include/c++/11/csetjmp"
	.file 41 "/usr/include/c++/11/csignal"
	.file 42 "/usr/include/c++/11/cstdarg"
	.file 43 "/usr/include/c++/11/cstddef"
	.file 44 "/usr/include/c++/11/cstdio"
	.file 45 "/usr/include/c++/11/cstdlib"
	.file 46 "/usr/include/c++/11/cstring"
	.file 47 "/usr/include/c++/11/ctime"
	.file 48 "/usr/include/c++/11/cwchar"
	.file 49 "/usr/include/c++/11/cwctype"
	.file 50 "/usr/include/c++/11/bits/exception_ptr.h"
	.file 51 "/usr/include/c++/11/cstdint"
	.file 52 "/usr/include/c++/11/numbers"
	.file 53 "/usr/include/c++/11/string_view"
	.file 54 "/usr/include/c++/11/initializer_list"
	.file 55 "/usr/include/c++/11/bits/stringfwd.h"
	.file 56 "/usr/include/c++/11/bits/ios_base.h"
	.file 57 "/usr/include/c++/11/bits/ostream.tcc"
	.file 58 "/usr/include/c++/11/fenv.h"
	.file 59 "/usr/include/c++/11/cfenv"
	.file 60 "/usr/include/c++/11/cinttypes"
	.file 61 "/usr/include/c++/11/cuchar"
	.file 62 "/usr/include/c++/11/bits/uses_allocator.h"
	.file 63 "/usr/include/c++/11/functional"
	.file 64 "/usr/include/c++/11/iosfwd"
	.file 65 "/usr/include/c++/11/bits/shared_ptr_base.h"
	.file 66 "/usr/include/c++/11/ratio"
	.file 67 "/usr/include/c++/11/bits/parse_numbers.h"
	.file 68 "/usr/include/c++/11/bits/fs_fwd.h"
	.file 69 "/usr/include/c++/11/bits/fs_path.h"
	.file 70 "/usr/include/c++/11/bits/regex_constants.h"
	.file 71 "/usr/include/c++/11/bits/regex_error.h"
	.file 72 "/usr/include/c++/11/coroutine"
	.file 73 "/usr/include/c++/11/bits/ptr_traits.h"
	.file 74 "/usr/include/c++/11/bits/functexcept.h"
	.file 75 "/usr/include/c++/11/stdexcept"
	.file 76 "/usr/include/c++/11/bits/stl_iterator_base_funcs.h"
	.file 77 "/usr/include/c++/11/utility"
	.file 78 "/usr/include/c++/11/bits/cpp_type_traits.h"
	.file 79 "/usr/include/c++/11/bits/predefined_ops.h"
	.file 80 "/usr/include/c++/11/ext/alloc_traits.h"
	.file 81 "/usr/include/c++/11/ext/concurrence.h"
	.file 82 "/usr/include/c++/11/ext/type_traits.h"
	.file 83 "/usr/include/math.h"
	.file 84 "/usr/lib/gcc/x86_64-linux-gnu/11/include/stddef.h"
	.file 85 "/usr/include/stdlib.h"
	.file 86 "/usr/include/x86_64-linux-gnu/bits/types/clock_t.h"
	.file 87 "/usr/include/x86_64-linux-gnu/bits/types/time_t.h"
	.file 88 "/usr/include/x86_64-linux-gnu/bits/stdint-intn.h"
	.file 89 "/usr/include/x86_64-linux-gnu/bits/types/__sigset_t.h"
	.file 90 "/usr/include/x86_64-linux-gnu/bits/types/struct_timespec.h"
	.file 91 "/usr/include/x86_64-linux-gnu/bits/setjmp.h"
	.file 92 "/usr/include/x86_64-linux-gnu/bits/types/struct___jmp_buf_tag.h"
	.file 93 "/usr/include/setjmp.h"
	.file 94 "/usr/include/x86_64-linux-gnu/bits/setjmp2.h"
	.file 95 "/usr/include/x86_64-linux-gnu/bits/types/sig_atomic_t.h"
	.file 96 "/usr/include/signal.h"
	.file 97 "/usr/include/unistd.h"
	.file 98 "/usr/lib/gcc/x86_64-linux-gnu/11/include/stdarg.h"
	.file 99 "<built-in>"
	.file 100 "/usr/include/x86_64-linux-gnu/bits/types/__mbstate_t.h"
	.file 101 "/usr/include/x86_64-linux-gnu/bits/types/__fpos_t.h"
	.file 102 "/usr/include/x86_64-linux-gnu/bits/types/__FILE.h"
	.file 103 "/usr/include/x86_64-linux-gnu/bits/types/struct_FILE.h"
	.file 104 "/usr/include/x86_64-linux-gnu/bits/types/FILE.h"
	.file 105 "/usr/include/stdio.h"
	.file 106 "/usr/include/x86_64-linux-gnu/bits/stdio2.h"
	.file 107 "/usr/include/x86_64-linux-gnu/bits/stdio.h"
	.file 108 "/usr/include/x86_64-linux-gnu/bits/stdlib-float.h"
	.file 109 "/usr/include/x86_64-linux-gnu/bits/stdlib-bsearch.h"
	.file 110 "/usr/include/x86_64-linux-gnu/bits/stdlib.h"
	.file 111 "/usr/include/string.h"
	.file 112 "/usr/include/x86_64-linux-gnu/bits/types/struct_tm.h"
	.file 113 "/usr/include/time.h"
	.file 114 "/usr/include/x86_64-linux-gnu/bits/types/wint_t.h"
	.file 115 "/usr/include/x86_64-linux-gnu/bits/types/mbstate_t.h"
	.file 116 "/usr/include/wchar.h"
	.file 117 "/usr/include/x86_64-linux-gnu/bits/wchar2.h"
	.file 118 "/usr/include/x86_64-linux-gnu/bits/wctype-wchar.h"
	.file 119 "/usr/include/wctype.h"
	.file 120 "/usr/include/x86_64-linux-gnu/bits/stdint-uintn.h"
	.file 121 "/usr/include/stdint.h"
	.file 122 "/usr/include/x86_64-linux-gnu/bits/fenv.h"
	.file 123 "/usr/include/inttypes.h"
	.file 124 "/usr/include/uchar.h"
	.file 125 "/usr/include/c++/11/pstl/execution_defs.h"
	.file 126 "/usr/include/c++/11/new"
	.file 127 "/usr/include/assert.h"
	.file 128 "/usr/include/c++/11/bits/algorithmfwd.h"
	.file 129 "/usr/include/c++/11/future"
	.file 130 "/usr/include/c++/11/string"