	.file	"foo.cc"
# GNU C++20 (Ubuntu 11.4.0-1ubuntu1~22.04) version 11.4.0 (x86_64-linux-gnu)
#	compiled by GNU C version 11.4.0, GMP version 6.2.1, MPFR version 4.1.0, MPC version 1.2.1, isl version isl-0.24-GMP

# GGC heuristics: --param ggc-min-expand=100 --param ggc-min-heapsize=131072
# options passed: -mtune=generic -march=x86-64 -g -std=gnu++20 -fconcepts -fasynchronous-unwind-tables -fstack-protector-strong -fstack-clash-protection -fcf-protection
	.text
.Ltext0:
	.file 0 "/home/y-tanabe/proj/compprog/clib/tmp_tree/test" "foo.cc"
	.section	.text._ZSt21is_constant_evaluatedv,"axG",@progbits,_ZSt21is_constant_evaluatedv,comdat
	.weak	_ZSt21is_constant_evaluatedv
	.type	_ZSt21is_constant_evaluatedv, @function
_ZSt21is_constant_evaluatedv:
.LFB267:
	.file 1 "/usr/include/c++/11/type_traits"
	.loc 1 3420 3
	.cfi_startproc
	endbr64	
	pushq	%rbp	#
	.cfi_def_cfa_offset 16
	.cfi_offset 6, -16
	movq	%rsp, %rbp	#,
	.cfi_def_cfa_register 6
# /usr/include/c++/11/type_traits:3420:   { return __builtin_is_constant_evaluated(); }
	.loc 1 3420 44
	movl	$0, %eax	#, _1
# /usr/include/c++/11/type_traits:3420:   { return __builtin_is_constant_evaluated(); }
	.loc 1 3420 47
	popq	%rbp	#
	.cfi_def_cfa 7, 8
	ret	
	.cfi_endproc
.LFE267:
	.size	_ZSt21is_constant_evaluatedv, .-_ZSt21is_constant_evaluatedv
	.section	.text._ZnwmPv,"axG",@progbits,_ZnwmPv,comdat
	.weak	_ZnwmPv
	.type	_ZnwmPv, @function
_ZnwmPv:
.LFB430:
	.file 2 "/usr/include/c++/11/new"
	.loc 2 175 1
	.cfi_startproc
	endbr64	
	pushq	%rbp	#
	.cfi_def_cfa_offset 16
	.cfi_offset 6, -16
	movq	%rsp, %rbp	#,
	.cfi_def_cfa_register 6
	movq	%rdi, -8(%rbp)	# D.18354, D.18354
	movq	%rsi, -16(%rbp)	# __p, __p
# /usr/include/c++/11/new:175: { return __p; }
	.loc 2 175 10
	movq	-16(%rbp), %rax	# __p, _2
# /usr/include/c++/11/new:175: { return __p; }
	.loc 2 175 15
	popq	%rbp	#
	.cfi_def_cfa 7, 8
	ret	
	.cfi_endproc
.LFE430:
	.size	_ZnwmPv, .-_ZnwmPv
	.section	.text._ZSt17__size_to_integerm,"axG",@progbits,_ZSt17__size_to_integerm,comdat
	.weak	_ZSt17__size_to_integerm
	.type	_ZSt17__size_to_integerm, @function
_ZSt17__size_to_integerm:
.LFB723:
	.file 3 "/usr/include/c++/11/bits/stl_algobase.h"
	.loc 3 1010 40
	.cfi_startproc
	endbr64	
	pushq	%rbp	#
	.cfi_def_cfa_offset 16
	.cfi_offset 6, -16
	movq	%rsp, %rbp	#,
	.cfi_def_cfa_register 6
	movq	%rdi, -8(%rbp)	# __n, __n
# /usr/include/c++/11/bits/stl_algobase.h:1010:   __size_to_integer(unsigned long __n) { return __n; }
	.loc 3 1010 49
	movq	-8(%rbp), %rax	# __n, _2
# /usr/include/c++/11/bits/stl_algobase.h:1010:   __size_to_integer(unsigned long __n) { return __n; }
	.loc 3 1010 54
	popq	%rbp	#
	.cfi_def_cfa 7, 8
	ret	
	.cfi_endproc
.LFE723:
	.size	_ZSt17__size_to_integerm, .-_ZSt17__size_to_integerm
	.section	.text._ZNSt11char_traitsIcE6assignERcRKc,"axG",@progbits,_ZNSt11char_traitsIcE6assignERcRKc,comdat
	.weak	_ZNSt11char_traitsIcE6assignERcRKc
	.type	_ZNSt11char_traitsIcE6assignERcRKc, @function
_ZNSt11char_traitsIcE6assignERcRKc:
.LFB1245:
	.file 4 "/usr/include/c++/11/bits/char_traits.h"
	.loc 4 356 7
	.cfi_startproc
	endbr64	
	pushq	%rbp	#
	.cfi_def_cfa_offset 16
	.cfi_offset 6, -16
	movq	%rsp, %rbp	#,
	.cfi_def_cfa_register 6
	movq	%rdi, -8(%rbp)	# __c1, __c1
	movq	%rsi, -16(%rbp)	# __c2, __c2
# /usr/include/c++/11/bits/char_traits.h:357:       { __c1 = __c2; }
	.loc 4 357 16
	movq	-16(%rbp), %rax	# __c2, tmp83
	movzbl	(%rax), %edx	# *__c2_3(D), _1
# /usr/include/c++/11/bits/char_traits.h:357:       { __c1 = __c2; }
	.loc 4 357 14
	movq	-8(%rbp), %rax	# __c1, tmp84
	movb	%dl, (%rax)	# _1, *__c1_4(D)
# /usr/include/c++/11/bits/char_traits.h:357:       { __c1 = __c2; }
	.loc 4 357 22
	nop	
	popq	%rbp	#
	.cfi_def_cfa 7, 8
	ret	
	.cfi_endproc
.LFE1245:
	.size	_ZNSt11char_traitsIcE6assignERcRKc, .-_ZNSt11char_traitsIcE6assignERcRKc
	.section	.text._ZNSt11char_traitsIcE6lengthEPKc,"axG",@progbits,_ZNSt11char_traitsIcE6lengthEPKc,comdat
	.weak	_ZNSt11char_traitsIcE6lengthEPKc
	.type	_ZNSt11char_traitsIcE6lengthEPKc, @function
_ZNSt11char_traitsIcE6lengthEPKc:
.LFB1250:
	.loc 4 393 7
	.cfi_startproc
	endbr64	
	pushq	%rbp	#
	.cfi_def_cfa_offset 16
	.cfi_offset 6, -16
	movq	%rsp, %rbp	#,
	.cfi_def_cfa_register 6
	subq	$32, %rsp	#,
	movq	%rdi, -24(%rbp)	# __s, __s
	movq	-24(%rbp), %rax	# __s, tmp85
	movq	%rax, -8(%rbp)	# tmp85, __s
.LBB20:
.LBB21:
# /usr/include/c++/11/bits/char_traits.h:290:       return __builtin_is_constant_evaluated();
	.loc 4 290 46
	movl	$0, %eax	#, D.296533
.LBE21:
.LBE20:
# /usr/include/c++/11/bits/char_traits.h:396: 	if (__constant_string_p(__s))
	.loc 4 396 2
	testb	%al, %al	# D.296533
	je	.L10	#,
# /usr/include/c++/11/bits/char_traits.h:397: 	  return __gnu_cxx::char_traits<char_type>::length(__s);
	.loc 4 397 52
	movq	-24(%rbp), %rax	# __s, tmp86
	movq	%rax, %rdi	# tmp86,
	call	_ZN9__gnu_cxx11char_traitsIcE6lengthEPKc	#
# /usr/include/c++/11/bits/char_traits.h:397: 	  return __gnu_cxx::char_traits<char_type>::length(__s);
	.loc 4 397 56
	jmp	.L11	#
.L10:
# /usr/include/c++/11/bits/char_traits.h:399: 	return __builtin_strlen(__s);
	.loc 4 399 25
	movq	-24(%rbp), %rax	# __s, tmp88
	movq	%rax, %rdi	# tmp88,
	call	strlen@PLT	#
# /usr/include/c++/11/bits/char_traits.h:399: 	return __builtin_strlen(__s);
	.loc 4 399 29
	nop	
.L11:
# /usr/include/c++/11/bits/char_traits.h:400:       }
	.loc 4 400 7
	leave	
	.cfi_def_cfa 7, 8
	ret	
	.cfi_endproc
.LFE1250:
	.size	_ZNSt11char_traitsIcE6lengthEPKc, .-_ZNSt11char_traitsIcE6lengthEPKc
	.section	.text._ZNSt11char_traitsIcE4copyEPcPKcm,"axG",@progbits,_ZNSt11char_traitsIcE4copyEPcPKcm,comdat
	.weak	_ZNSt11char_traitsIcE4copyEPcPKcm
	.type	_ZNSt11char_traitsIcE4copyEPcPKcm, @function
_ZNSt11char_traitsIcE4copyEPcPKcm:
.LFB1254:
	.loc 4 429 7
	.cfi_startproc
	endbr64	
	pushq	%rbp	#
	.cfi_def_cfa_offset 16
	.cfi_offset 6, -16
	movq	%rsp, %rbp	#,
	.cfi_def_cfa_register 6
	subq	$32, %rsp	#,
	movq	%rdi, -8(%rbp)	# __s1, __s1
	movq	%rsi, -16(%rbp)	# __s2, __s2
	movq	%rdx, -24(%rbp)	# __n, __n
# /usr/include/c++/11/bits/char_traits.h:431: 	if (__n == 0)
	.loc 4 431 2
	cmpq	$0, -24(%rbp)	#, __n
	jne	.L13	#,
# /usr/include/c++/11/bits/char_traits.h:432: 	  return __s1;
	.loc 4 432 11
	movq	-8(%rbp), %rax	# __s1, _1
	jmp	.L14	#
.L13:
# /usr/include/c++/11/bits/char_traits.h:434: 	if (std::is_constant_evaluated())
	.loc 4 434 32
	call	_ZSt21is_constant_evaluatedv	#
# /usr/include/c++/11/bits/char_traits.h:434: 	if (std::is_constant_evaluated())
	.loc 4 434 2
	testb	%al, %al	# retval.68_6
	je	.L15	#,
# /usr/include/c++/11/bits/char_traits.h:435: 	  return __gnu_cxx::char_traits<char_type>::copy(__s1, __s2, __n);
	.loc 4 435 50
	movq	-24(%rbp), %rdx	# __n, tmp85
	movq	-16(%rbp), %rcx	# __s2, tmp86
	movq	-8(%rbp), %rax	# __s1, tmp87
	movq	%rcx, %rsi	# tmp86,
	movq	%rax, %rdi	# tmp87,
	call	_ZN9__gnu_cxx11char_traitsIcE4copyEPcPKcm	#
# /usr/include/c++/11/bits/char_traits.h:435: 	  return __gnu_cxx::char_traits<char_type>::copy(__s1, __s2, __n);
	.loc 4 435 66
	jmp	.L14	#
.L15:
# /usr/include/c++/11/bits/char_traits.h:437: 	return static_cast<char_type*>(__builtin_memcpy(__s1, __s2, __n));
	.loc 4 437 49
	movq	-8(%rbp), %rdx	# __s1, tmp88
	movq	-16(%rbp), %rax	# __s2, tmp89
	movq	%rdx, %rcx	# tmp88, tmp91
	movq	%rax, %rsi	# tmp89, tmp92
	movq	-24(%rbp), %rax	# __n, tmp93
	movq	%rax, %rdx	# tmp93,
	movq	%rcx, %rdi	# tmp91,
	call	memcpy@PLT	#
# /usr/include/c++/11/bits/char_traits.h:437: 	return static_cast<char_type*>(__builtin_memcpy(__s1, __s2, __n));
	.loc 4 437 66
	nop	
.L14:
# /usr/include/c++/11/bits/char_traits.h:438:       }
	.loc 4 438 7
	leave	
	.cfi_def_cfa 7, 8
	ret	
	.cfi_endproc
.LFE1254:
	.size	_ZNSt11char_traitsIcE4copyEPcPKcm, .-_ZNSt11char_traitsIcE4copyEPcPKcm
	.section	.text._ZSt3minImERKT_S2_S2_,"axG",@progbits,_ZSt3minImERKT_S2_S2_,comdat
	.weak	_ZSt3minImERKT_S2_S2_
	.type	_ZSt3minImERKT_S2_S2_, @function
_ZSt3minImERKT_S2_S2_:
.LFB3870:
	.loc 3 230 5
	.cfi_startproc
	endbr64	
	pushq	%rbp	#
	.cfi_def_cfa_offset 16
	.cfi_offset 6, -16
	movq	%rsp, %rbp	#,
	.cfi_def_cfa_register 6
	movq	%rdi, -8(%rbp)	# __a, __a
	movq	%rsi, -16(%rbp)	# __b, __b
# /usr/include/c++/11/bits/stl_algobase.h:235:       if (__b < __a)
	.loc 3 235 15
	movq	-16(%rbp), %rax	# __b, tmp86
	movq	(%rax), %rdx	# *__b_5(D), _1
	movq	-8(%rbp), %rax	# __a, tmp87
	movq	(%rax), %rax	# *__a_6(D), _2
# /usr/include/c++/11/bits/stl_algobase.h:235:       if (__b < __a)
	.loc 3 235 7
	cmpq	%rax, %rdx	# _2, _1
	jnb	.L17	#,
# /usr/include/c++/11/bits/stl_algobase.h:236: 	return __b;
	.loc 3 236 9
	movq	-16(%rbp), %rax	# __b, _3
	jmp	.L18	#
.L17:
# /usr/include/c++/11/bits/stl_algobase.h:237:       return __a;
	.loc 3 237 14
	movq	-8(%rbp), %rax	# __a, _3
.L18:
# /usr/include/c++/11/bits/stl_algobase.h:238:     }
	.loc 3 238 5
	popq	%rbp	#
	.cfi_def_cfa 7, 8
	ret	
	.cfi_endproc
.LFE3870:
	.size	_ZSt3minImERKT_S2_S2_, .-_ZSt3minImERKT_S2_S2_
	.section	.rodata
	.type	_ZN6__pstl9execution2v1L3seqE, @object
	.size	_ZN6__pstl9execution2v1L3seqE, 1
_ZN6__pstl9execution2v1L3seqE:
	.zero	1
	.type	_ZN6__pstl9execution2v1L3parE, @object
	.size	_ZN6__pstl9execution2v1L3parE, 1
_ZN6__pstl9execution2v1L3parE:
	.zero	1
	.type	_ZN6__pstl9execution2v1L9par_unseqE, @object
	.size	_ZN6__pstl9execution2v1L9par_unseqE, 1
_ZN6__pstl9execution2v1L9par_unseqE:
	.zero	1
	.type	_ZN6__pstl9execution2v1L5unseqE, @object
	.size	_ZN6__pstl9execution2v1L5unseqE, 1
_ZN6__pstl9execution2v1L5unseqE:
	.zero	1
	.local	_ZStL8__ioinit
	.comm	_ZStL8__ioinit,1,1
	.align 4
	.type	_ZN9__gnu_cxxL21__default_lock_policyE, @object
	.size	_ZN9__gnu_cxxL21__default_lock_policyE, 4
_ZN9__gnu_cxxL21__default_lock_policyE:
	.long	2
	.align 8
	.type	_ZNSt8__detailL25__platform_wait_alignmentE, @object
	.size	_ZNSt8__detailL25__platform_wait_alignmentE, 8
_ZNSt8__detailL25__platform_wait_alignmentE:
	.quad	4
	.align 4
	.type	_ZNSt8__detailL25__atomic_spin_count_relaxE, @object
	.size	_ZNSt8__detailL25__atomic_spin_count_relaxE, 4
_ZNSt8__detailL25__atomic_spin_count_relaxE:
	.long	12
	.align 4
	.type	_ZNSt8__detailL19__atomic_spin_countE, @object
	.size	_ZNSt8__detailL19__atomic_spin_countE, 4
_ZNSt8__detailL19__atomic_spin_countE:
	.long	16
	.section	.text._ZNKSt6chrono8durationIlSt5ratioILl1ELl1000000000EEE5countEv,"axG",@progbits,_ZNKSt6chrono8durationIlSt5ratioILl1ELl1000000000EEE5countEv,comdat
	.align 2
	.weak	_ZNKSt6chrono8durationIlSt5ratioILl1ELl1000000000EEE5countEv
	.type	_ZNKSt6chrono8durationIlSt5ratioILl1ELl1000000000EEE5countEv, @function
_ZNKSt6chrono8durationIlSt5ratioILl1ELl1000000000EEE5countEv:
.LFB7897:
	.file 5 "/usr/include/c++/11/chrono"
	.loc 5 537 2
	.cfi_startproc
	endbr64	
	pushq	%rbp	#
	.cfi_def_cfa_offset 16
	.cfi_offset 6, -16
	movq	%rsp, %rbp	#,
	.cfi_def_cfa_register 6
	movq	%rdi, -8(%rbp)	# this, this
# /usr/include/c++/11/chrono:538: 	{ return __r; }
	.loc 5 538 11
	movq	-8(%rbp), %rax	# this, tmp84
	movq	(%rax), %rax	# this_2(D)->__r, _3
# /usr/include/c++/11/chrono:538: 	{ return __r; }
	.loc 5 538 16
	popq	%rbp	#
	.cfi_def_cfa 7, 8
	ret	
	.cfi_endproc
.LFE7897:
	.size	_ZNKSt6chrono8durationIlSt5ratioILl1ELl1000000000EEE5countEv, .-_ZNKSt6chrono8durationIlSt5ratioILl1ELl1000000000EEE5countEv
	.section	.text._ZNSt6chrono8durationIlSt5ratioILl1ELl1000000000EEEC1IlvEERKT_,"axG",@progbits,_ZNSt6chrono8durationIlSt5ratioILl1ELl1000000000EEEC1IlvEERKT_,comdat
	.align 2
	.weak	_ZNSt6chrono8durationIlSt5ratioILl1ELl1000000000EEEC1IlvEERKT_
	.type	_ZNSt6chrono8durationIlSt5ratioILl1ELl1000000000EEEC1IlvEERKT_, @function
_ZNSt6chrono8durationIlSt5ratioILl1ELl1000000000EEEC1IlvEERKT_:
.LFB7902:
	.loc 5 521 23
	.cfi_startproc
	endbr64	
	pushq	%rbp	#
	.cfi_def_cfa_offset 16
	.cfi_offset 6, -16
	movq	%rsp, %rbp	#,
	.cfi_def_cfa_register 6
	movq	%rdi, -8(%rbp)	# this, this
	movq	%rsi, -16(%rbp)	# __rep, __rep
.LBB22:
# /usr/include/c++/11/chrono:522: 	  : __r(static_cast<rep>(__rep)) { }
	.loc 5 522 10
	movq	-16(%rbp), %rax	# __rep, tmp83
	movq	(%rax), %rdx	# *__rep_5(D), _1
# /usr/include/c++/11/chrono:522: 	  : __r(static_cast<rep>(__rep)) { }
	.loc 5 522 6
	movq	-8(%rbp), %rax	# this, tmp84
	movq	%rdx, (%rax)	# _1, this_3(D)->__r
.LBE22:
# /usr/include/c++/11/chrono:522: 	  : __r(static_cast<rep>(__rep)) { }
	.loc 5 522 37
	nop	
	popq	%rbp	#
	.cfi_def_cfa 7, 8
	ret	
	.cfi_endproc
.LFE7902:
	.size	_ZNSt6chrono8durationIlSt5ratioILl1ELl1000000000EEEC1IlvEERKT_, .-_ZNSt6chrono8durationIlSt5ratioILl1ELl1000000000EEEC1IlvEERKT_
	.section	.text._ZNSt6chrono13duration_castINS_8durationIlSt5ratioILl1ELl1000000000EEEElS3_EENSt9enable_ifIXsrNS_13__is_durationIT_EE5valueES7_E4typeERKNS1_IT0_T1_EE,"axG",@progbits,_ZNSt6chrono13duration_castINS_8durationIlSt5ratioILl1ELl1000000000EEEElS3_EENSt9enable_ifIXsrNS_13__is_durationIT_EE5valueES7_E4typeERKNS1_IT0_T1_EE,comdat
	.weak	_ZNSt6chrono13duration_castINS_8durationIlSt5ratioILl1ELl1000000000EEEElS3_EENSt9enable_ifIXsrNS_13__is_durationIT_EE5valueES7_E4typeERKNS1_IT0_T1_EE
	.type	_ZNSt6chrono13duration_castINS_8durationIlSt5ratioILl1ELl1000000000EEEElS3_EENSt9enable_ifIXsrNS_13__is_durationIT_EE5valueES7_E4typeERKNS1_IT0_T1_EE, @function
_ZNSt6chrono13duration_castINS_8durationIlSt5ratioILl1ELl1000000000EEEElS3_EENSt9enable_ifIXsrNS_13__is_durationIT_EE5valueES7_E4typeERKNS1_IT0_T1_EE:
.LFB8381:
	.loc 5 267 7
	.cfi_startproc
	endbr64	
	pushq	%rbp	#
	.cfi_def_cfa_offset 16
	.cfi_offset 6, -16
	movq	%rsp, %rbp	#,
	.cfi_def_cfa_register 6
	subq	$16, %rsp	#,
	movq	%rdi, -8(%rbp)	# __d, __d
# /usr/include/c++/11/chrono:276: 	return __dc::__cast(__d);
	.loc 5 276 21
	movq	-8(%rbp), %rax	# __d, tmp84
	movq	%rax, %rdi	# tmp84,
	call	_ZNSt6chrono20__duration_cast_implINS_8durationIlSt5ratioILl1ELl1000000000EEEES2_ILl1ELl1EElLb1ELb1EE6__castIlS3_EES4_RKNS1_IT_T0_EE	#
# /usr/include/c++/11/chrono:277:       }
	.loc 5 277 7
	leave	
	.cfi_def_cfa 7, 8
	ret	
	.cfi_endproc
.LFE8381:
	.size	_ZNSt6chrono13duration_castINS_8durationIlSt5ratioILl1ELl1000000000EEEElS3_EENSt9enable_ifIXsrNS_13__is_durationIT_EE5valueES7_E4typeERKNS1_IT0_T1_EE, .-_ZNSt6chrono13duration_castINS_8durationIlSt5ratioILl1ELl1000000000EEEElS3_EENSt9enable_ifIXsrNS_13__is_durationIT_EE5valueES7_E4typeERKNS1_IT0_T1_EE
	.section	.rodata
.LC0:
	.string	"default"
	.section	.text._ZNSt13random_deviceC2Ev,"axG",@progbits,_ZNSt13random_deviceC5Ev,comdat
	.align 2
	.weak	_ZNSt13random_deviceC2Ev
	.type	_ZNSt13random_deviceC2Ev, @function
_ZNSt13random_deviceC2Ev:
.LFB9054:
	.file 6 "/usr/include/c++/11/bits/random.h"
	.loc 6 1618 5
	.cfi_startproc
	.cfi_personality 0x9b,DW.ref.__gxx_personality_v0
	.cfi_lsda 0x1b,.LLSDA9054
	endbr64	
	pushq	%rbp	#
	.cfi_def_cfa_offset 16
	.cfi_offset 6, -16
	movq	%rsp, %rbp	#,
	.cfi_def_cfa_register 6
	pushq	%rbx	#
	subq	$88, %rsp	#,
	.cfi_offset 3, -24
	movq	%rdi, -88(%rbp)	# this, this
# /usr/include/c++/11/bits/random.h:1618:     random_device() { _M_init("default"); }
	.loc 6 1618 5
	movq	%fs:40, %rax	# MEM[(<address-space-1> long unsigned int *)40B], tmp97
	movq	%rax, -24(%rbp)	# tmp97, D.296592
	xorl	%eax, %eax	# tmp97
.LBB23:
# /usr/include/c++/11/bits/random.h:1618:     random_device() { _M_init("default"); }
	.loc 6 1618 30
	leaq	-65(%rbp), %rax	#, tmp83
	movq	%rax, %rdi	# tmp83,
	call	_ZNSaIcEC1Ev@PLT	#
	leaq	-65(%rbp), %rdx	#, tmp84
	leaq	-64(%rbp), %rax	#, tmp85
	leaq	.LC0(%rip), %rcx	#, tmp86
	movq	%rcx, %rsi	# tmp86,
	movq	%rax, %rdi	# tmp85,
.LEHB0:
	call	_ZNSt7__cxx1112basic_stringIcSt11char_traitsIcESaIcEEC1IS3_EEPKcRKS3_	#
.LEHE0:
# /usr/include/c++/11/bits/random.h:1618:     random_device() { _M_init("default"); }
	.loc 6 1618 30 is_stmt 0 discriminator 2
	leaq	-64(%rbp), %rdx	#, tmp87
	movq	-88(%rbp), %rax	# this, tmp88
	movq	%rdx, %rsi	# tmp87,
	movq	%rax, %rdi	# tmp88,
.LEHB1:
	call	_ZNSt13random_device7_M_initERKNSt7__cxx1112basic_stringIcSt11char_traitsIcESaIcEEE@PLT	#
.LEHE1:
# /usr/include/c++/11/bits/random.h:1618:     random_device() { _M_init("default"); }
	.loc 6 1618 30 discriminator 4
	leaq	-64(%rbp), %rax	#, tmp89
	movq	%rax, %rdi	# tmp89,
	call	_ZNSt7__cxx1112basic_stringIcSt11char_traitsIcESaIcEED1Ev	#
	leaq	-65(%rbp), %rax	#, tmp90
	movq	%rax, %rdi	# tmp90,
	call	_ZNSaIcED1Ev@PLT	#
.LBE23:
# /usr/include/c++/11/bits/random.h:1618:     random_device() { _M_init("default"); }
	.loc 6 1618 43 is_stmt 1 discriminator 4
	nop	
	movq	-24(%rbp), %rax	# D.296592, tmp98
	subq	%fs:40, %rax	# MEM[(<address-space-1> long unsigned int *)40B], tmp98
	je	.L27	#,
	jmp	.L30	#
.L29:
	endbr64	
.LBB24:
# /usr/include/c++/11/bits/random.h:1618:     random_device() { _M_init("default"); }
	.loc 6 1618 30
	movq	%rax, %rbx	#, tmp93
	leaq	-64(%rbp), %rax	#, tmp91
	movq	%rax, %rdi	# tmp91,
	call	_ZNSt7__cxx1112basic_stringIcSt11char_traitsIcESaIcEED1Ev	#
	jmp	.L26	#
.L28:
	endbr64	
	movq	%rax, %rbx	#, tmp92
.L26:
# /usr/include/c++/11/bits/random.h:1618:     random_device() { _M_init("default"); }
	.loc 6 1618 30 is_stmt 0 discriminator 1
	leaq	-65(%rbp), %rax	#, tmp96
	movq	%rax, %rdi	# tmp96,
	call	_ZNSaIcED1Ev@PLT	#
	movq	%rbx, %rax	# tmp92, D.296591
	movq	%rax, %rdi	# D.296591,
.LEHB2:
	call	_Unwind_Resume@PLT	#
.LEHE2:
.L30:
.LBE24:
# /usr/include/c++/11/bits/random.h:1618:     random_device() { _M_init("default"); }
	.loc 6 1618 43 is_stmt 1
	call	__stack_chk_fail@PLT	#
.L27:
	movq	-8(%rbp), %rbx	#,
	leave	
	.cfi_def_cfa 7, 8
	ret	
	.cfi_endproc
.LFE9054:
	.globl	__gxx_personality_v0
	.section	.gcc_except_table._ZNSt13random_deviceC2Ev,"aG",@progbits,_ZNSt13random_deviceC5Ev,comdat
.LLSDA9054:
	.byte	0xff
	.byte	0xff
	.byte	0x1
	.uleb128 .LLSDACSE9054-.LLSDACSB9054
.LLSDACSB9054:
	.uleb128 .LEHB0-.LFB9054
	.uleb128 .LEHE0-.LEHB0
	.uleb128 .L28-.LFB9054
	.uleb128 0
	.uleb128 .LEHB1-.LFB9054
	.uleb128 .LEHE1-.LEHB1
	.uleb128 .L29-.LFB9054
	.uleb128 0
	.uleb128 .LEHB2-.LFB9054
	.uleb128 .LEHE2-.LEHB2
	.uleb128 0
	.uleb128 0
.LLSDACSE9054:
	.section	.text._ZNSt13random_deviceC2Ev,"axG",@progbits,_ZNSt13random_deviceC5Ev,comdat
	.size	_ZNSt13random_deviceC2Ev, .-_ZNSt13random_deviceC2Ev
	.weak	_ZNSt13random_deviceC1Ev
	.set	_ZNSt13random_deviceC1Ev,_ZNSt13random_deviceC2Ev
	.section	.text._ZNSt13random_deviceD2Ev,"axG",@progbits,_ZNSt13random_deviceD5Ev,comdat
	.align 2
	.weak	_ZNSt13random_deviceD2Ev
	.type	_ZNSt13random_deviceD2Ev, @function
_ZNSt13random_deviceD2Ev:
.LFB9060:
	.loc 6 1624 5
	.cfi_startproc
	.cfi_personality 0x9b,DW.ref.__gxx_personality_v0
	.cfi_lsda 0x1b,.LLSDA9060
	endbr64	
	pushq	%rbp	#
	.cfi_def_cfa_offset 16
	.cfi_offset 6, -16
	movq	%rsp, %rbp	#,
	.cfi_def_cfa_register 6
	subq	$16, %rsp	#,
	movq	%rdi, -8(%rbp)	# this, this
.LBB25:
# /usr/include/c++/11/bits/random.h:1625:     { _M_fini(); }
	.loc 6 1625 14
	movq	-8(%rbp), %rax	# this, tmp82
	movq	%rax, %rdi	# tmp82,
	call	_ZNSt13random_device7_M_finiEv@PLT	#
.LBE25:
# /usr/include/c++/11/bits/random.h:1625:     { _M_fini(); }
	.loc 6 1625 18
	nop	
	leave	
	.cfi_def_cfa 7, 8
	ret	
	.cfi_endproc
.LFE9060:
	.section	.gcc_except_table._ZNSt13random_deviceD2Ev,"aG",@progbits,_ZNSt13random_deviceD5Ev,comdat
.LLSDA9060:
	.byte	0xff
	.byte	0xff
	.byte	0x1
	.uleb128 .LLSDACSE9060-.LLSDACSB9060
.LLSDACSB9060:
.LLSDACSE9060:
	.section	.text._ZNSt13random_deviceD2Ev,"axG",@progbits,_ZNSt13random_deviceD5Ev,comdat
	.size	_ZNSt13random_deviceD2Ev, .-_ZNSt13random_deviceD2Ev
	.weak	_ZNSt13random_deviceD1Ev
	.set	_ZNSt13random_deviceD1Ev,_ZNSt13random_deviceD2Ev
	.section	.text._ZNSt13random_deviceclEv,"axG",@progbits,_ZNSt13random_deviceclEv,comdat
	.align 2
	.weak	_ZNSt13random_deviceclEv
	.type	_ZNSt13random_deviceclEv, @function
_ZNSt13random_deviceclEv:
.LFB9065:
	.loc 6 1647 5
	.cfi_startproc
	endbr64	
	pushq	%rbp	#
	.cfi_def_cfa_offset 16
	.cfi_offset 6, -16
	movq	%rsp, %rbp	#,
	.cfi_def_cfa_register 6
	subq	$16, %rsp	#,
	movq	%rdi, -8(%rbp)	# this, this
# /usr/include/c++/11/bits/random.h:1648:     { return this->_M_getval(); }
	.loc 6 1648 29
	movq	-8(%rbp), %rax	# this, tmp84
	movq	%rax, %rdi	# tmp84,
	call	_ZNSt13random_device9_M_getvalEv@PLT	#
# /usr/include/c++/11/bits/random.h:1648:     { return this->_M_getval(); }
	.loc 6 1648 33
	leave	
	.cfi_def_cfa 7, 8
	ret	
	.cfi_endproc
.LFE9065:
	.size	_ZNSt13random_deviceclEv, .-_ZNSt13random_deviceclEv
	.section	.rodata
	.align 4
	.type	_ZNSt15regex_constantsL13error_collateE, @object
	.size	_ZNSt15regex_constantsL13error_collateE, 4
_ZNSt15regex_constantsL13error_collateE:
	.zero	4
	.align 4
	.type	_ZNSt15regex_constantsL11error_ctypeE, @object
	.size	_ZNSt15regex_constantsL11error_ctypeE, 4
_ZNSt15regex_constantsL11error_ctypeE:
	.long	1
	.align 4
	.type	_ZNSt15regex_constantsL12error_escapeE, @object
	.size	_ZNSt15regex_constantsL12error_escapeE, 4
_ZNSt15regex_constantsL12error_escapeE:
	.long	2
	.align 4
	.type	_ZNSt15regex_constantsL13error_backrefE, @object
	.size	_ZNSt15regex_constantsL13error_backrefE, 4
_ZNSt15regex_constantsL13error_backrefE:
	.long	3
	.align 4
	.type	_ZNSt15regex_constantsL11error_brackE, @object
	.size	_ZNSt15regex_constantsL11error_brackE, 4
_ZNSt15regex_constantsL11error_brackE:
	.long	4
	.align 4
	.type	_ZNSt15regex_constantsL11error_parenE, @object
	.size	_ZNSt15regex_constantsL11error_parenE, 4
_ZNSt15regex_constantsL11error_parenE:
	.long	5
	.align 4
	.type	_ZNSt15regex_constantsL11error_braceE, @object
	.size	_ZNSt15regex_constantsL11error_braceE, 4
_ZNSt15regex_constantsL11error_braceE:
	.long	6
	.align 4
	.type	_ZNSt15regex_constantsL14error_badbraceE, @object
	.size	_ZNSt15regex_constantsL14error_badbraceE, 4
_ZNSt15regex_constantsL14error_badbraceE:
	.long	7
	.align 4
	.type	_ZNSt15regex_constantsL11error_rangeE, @object
	.size	_ZNSt15regex_constantsL11error_rangeE, 4
_ZNSt15regex_constantsL11error_rangeE:
	.long	8
	.align 4
	.type	_ZNSt15regex_constantsL11error_spaceE, @object
	.size	_ZNSt15regex_constantsL11error_spaceE, 4
_ZNSt15regex_constantsL11error_spaceE:
	.long	9
	.align 4
	.type	_ZNSt15regex_constantsL15error_badrepeatE, @object
	.size	_ZNSt15regex_constantsL15error_badrepeatE, 4
_ZNSt15regex_constantsL15error_badrepeatE:
	.long	10
	.align 4
	.type	_ZNSt15regex_constantsL16error_complexityE, @object
	.size	_ZNSt15regex_constantsL16error_complexityE, 4
_ZNSt15regex_constantsL16error_complexityE:
	.long	11
	.align 4
	.type	_ZNSt15regex_constantsL11error_stackE, @object
	.size	_ZNSt15regex_constantsL11error_stackE, 4
_ZNSt15regex_constantsL11error_stackE:
	.long	12
	.align 8
	.type	_ZNSt8__detailL19_S_invalid_state_idE, @object
	.size	_ZNSt8__detailL19_S_invalid_state_idE, 8
_ZNSt8__detailL19_S_invalid_state_idE:
	.quad	-1
	.text
	.globl	_Z12get_time_secv
	.type	_Z12get_time_secv, @function
_Z12get_time_secv:
.LFB11562:
	.file 7 "foo.cc"
	.loc 7 21 23
	.cfi_startproc
	endbr64	
	pushq	%rbp	#
	.cfi_def_cfa_offset 16
	.cfi_offset 6, -16
	movq	%rsp, %rbp	#,
	.cfi_def_cfa_register 6
	subq	$32, %rsp	#,
# foo.cc:21: double get_time_sec() {
	.loc 7 21 23
	movq	%fs:40, %rax	# MEM[(<address-space-1> long unsigned int *)40B], tmp97
	movq	%rax, -8(%rbp)	# tmp97, D.296595
	xorl	%eax, %eax	# tmp97
# foo.cc:23:   return static_cast<double>(duration_cast<nanoseconds>(steady_clock::now().time_since_epoch()).count())/1000000000;
	.loc 7 23 74
	call	_ZNSt6chrono3_V212steady_clock3nowEv@PLT	#
	movq	%rax, -32(%rbp)	# tmp87, D.258741
# foo.cc:23:   return static_cast<double>(duration_cast<nanoseconds>(steady_clock::now().time_since_epoch()).count())/1000000000;
	.loc 7 23 93
	leaq	-32(%rbp), %rax	#, tmp88
	movq	%rax, %rdi	# tmp88,
	call	_ZNKSt6chrono10time_pointINS_3_V212steady_clockENS_8durationIlSt5ratioILl1ELl1000000000EEEEE16time_since_epochEv	#
	movq	%rax, -24(%rbp)	# tmp90, D.258742
# foo.cc:23:   return static_cast<double>(duration_cast<nanoseconds>(steady_clock::now().time_since_epoch()).count())/1000000000;
	.loc 7 23 56
	leaq	-24(%rbp), %rax	#, tmp91
	movq	%rax, %rdi	# tmp91,
	call	_ZNSt6chrono13duration_castINS_8durationIlSt5ratioILl1ELl1000000000EEEElS3_EENSt9enable_ifIXsrNS_13__is_durationIT_EE5valueES7_E4typeERKNS1_IT0_T1_EE	#
	movq	%rax, -16(%rbp)	# tmp93, D.258743
# foo.cc:23:   return static_cast<double>(duration_cast<nanoseconds>(steady_clock::now().time_since_epoch()).count())/1000000000;
	.loc 7 23 102
	leaq	-16(%rbp), %rax	#, tmp94
	movq	%rax, %rdi	# tmp94,
	call	_ZNKSt6chrono8durationIlSt5ratioILl1ELl1000000000EEE5countEv	#
# foo.cc:23:   return static_cast<double>(duration_cast<nanoseconds>(steady_clock::now().time_since_epoch()).count())/1000000000;
	.loc 7 23 10
	pxor	%xmm0, %xmm0	# _2
	cvtsi2sdq	%rax, %xmm0	# _1, _2
# foo.cc:23:   return static_cast<double>(duration_cast<nanoseconds>(steady_clock::now().time_since_epoch()).count())/1000000000;
	.loc 7 23 106
	movsd	.LC1(%rip), %xmm1	#, tmp95
	divsd	%xmm1, %xmm0	# tmp95, _8
	movq	%xmm0, %rax	# _8, <retval>
# foo.cc:24: }
	.loc 7 24 1
	movq	-8(%rbp), %rdx	# D.296595, tmp98
	subq	%fs:40, %rdx	# MEM[(<address-space-1> long unsigned int *)40B], tmp98
	je	.L36	#,
	call	__stack_chk_fail@PLT	#
.L36:
	movq	%rax, %xmm0	# <retval>,
	leave	
	.cfi_def_cfa 7, 8
	ret	
	.cfi_endproc
.LFE11562:
	.size	_Z12get_time_secv, .-_Z12get_time_secv
	.section	.text._ZN6RandomC2Ev,"axG",@progbits,_ZN6RandomC5Ev,comdat
	.align 2
	.weak	_ZN6RandomC2Ev
	.type	_ZN6RandomC2Ev, @function
_ZN6RandomC2Ev:
.LFB11564:
	.loc 7 35 3
	.cfi_startproc
	endbr64	
	pushq	%rbp	#
	.cfi_def_cfa_offset 16
	.cfi_offset 6, -16
	movq	%rsp, %rbp	#,
	.cfi_def_cfa_register 6
	pushq	%rbx	#
	subq	$24, %rsp	#,
	.cfi_offset 3, -24
	movq	%rdi, -24(%rbp)	# this, this
.LBB26:
# foo.cc:35:   Random() : rng(the_random_device()) {}
	.loc 7 35 14
	movq	-24(%rbp), %rbx	# this, _1
# foo.cc:35:   Random() : rng(the_random_device()) {}
	.loc 7 35 35
	leaq	_ZN6Random17the_random_deviceE(%rip), %rax	#, tmp85
	movq	%rax, %rdi	# tmp85,
	call	_ZNSt13random_deviceclEv	#
# foo.cc:35:   Random() : rng(the_random_device()) {}
	.loc 7 35 14
	movl	%eax, %eax	# _2, _3
	movq	%rax, %rsi	# _3,
	movq	%rbx, %rdi	# _1,
	call	_ZNSt23mersenne_twister_engineImLm64ELm312ELm156ELm31ELm13043109905998158313ELm29ELm6148914691236517205ELm17ELm8202884508482404352ELm37ELm18444473444759240704ELm43ELm6364136223846793005EEC1Em	#
.LBE26:
# foo.cc:35:   Random() : rng(the_random_device()) {}
	.loc 7 35 40
	nop	
	movq	-8(%rbp), %rbx	#,
	leave	
	.cfi_def_cfa 7, 8
	ret	
	.cfi_endproc
.LFE11564:
	.size	_ZN6RandomC2Ev, .-_ZN6RandomC2Ev
	.weak	_ZN6RandomC1Ev
	.set	_ZN6RandomC1Ev,_ZN6RandomC2Ev
	.section	.rodata
.LC2:
	.string	"Random.range: invalid range"
	.section	.text._ZN6Random5rangeExx,"axG",@progbits,_ZN6Random5rangeExx,comdat
	.align 2
	.weak	_ZN6Random5rangeExx
	.type	_ZN6Random5rangeExx, @function
_ZN6Random5rangeExx:
.LFB11569:
	.loc 7 38 6
	.cfi_startproc
	.cfi_personality 0x9b,DW.ref.__gxx_personality_v0
	.cfi_lsda 0x1b,.LLSDA11569
	endbr64	
	pushq	%rbp	#
	.cfi_def_cfa_offset 16
	.cfi_offset 6, -16
	movq	%rsp, %rbp	#,
	.cfi_def_cfa_register 6
	pushq	%r12	#
	pushq	%rbx	#
	subq	$64, %rsp	#,
	.cfi_offset 12, -24
	.cfi_offset 3, -32
	movq	%rdi, -56(%rbp)	# this, this
	movq	%rsi, -64(%rbp)	# i, i
	movq	%rdx, -72(%rbp)	# j, j
# foo.cc:38:   ll range(ll i, ll j) {
	.loc 7 38 6
	movq	%fs:40, %rax	# MEM[(<address-space-1> long unsigned int *)40B], tmp100
	movq	%rax, -24(%rbp)	# tmp100, D.296597
	xorl	%eax, %eax	# tmp100
# foo.cc:39:     if (i >= j) {
	.loc 7 39 5
	movq	-64(%rbp), %rax	# i, tmp88
	cmpq	-72(%rbp), %rax	# j, tmp88
	jl	.L39	#,
# foo.cc:40:       throw runtime_error("Random.range: invalid range");
	.loc 7 40 56
	movl	$16, %edi	#,
	call	__cxa_allocate_exception@PLT	#
	movq	%rax, %rbx	# tmp89, _14
# foo.cc:40:       throw runtime_error("Random.range: invalid range");
	.loc 7 40 7
	leaq	.LC2(%rip), %rax	#, tmp90
	movq	%rax, %rsi	# tmp90,
	movq	%rbx, %rdi	# _14,
.LEHB3:
	call	_ZNSt13runtime_errorC1EPKc@PLT	#
.LEHE3:
# foo.cc:40:       throw runtime_error("Random.range: invalid range");
	.loc 7 40 56 discriminator 2
	movq	_ZNSt13runtime_errorD1Ev@GOTPCREL(%rip), %rax	#, tmp92
	movq	%rax, %rdx	# tmp91,
	leaq	_ZTISt13runtime_error(%rip), %rax	#, tmp93
	movq	%rax, %rsi	# tmp93,
	movq	%rbx, %rdi	# _14,
.LEHB4:
	call	__cxa_throw@PLT	#
.L39:
# foo.cc:42:     uniform_int_distribution<ll> dist(i, j - 1);
	.loc 7 42 47
	movq	-72(%rbp), %rax	# j, tmp94
	leaq	-1(%rax), %rdx	#, _1
	movq	-64(%rbp), %rcx	# i, tmp95
	leaq	-48(%rbp), %rax	#, tmp96
	movq	%rcx, %rsi	# tmp95,
	movq	%rax, %rdi	# tmp96,
	call	_ZNSt24uniform_int_distributionIxEC1Exx	#
# foo.cc:43:     return dist(rng);
	.loc 7 43 17
	movq	-56(%rbp), %rdx	# this, _2
# foo.cc:43:     return dist(rng);
	.loc 7 43 16
	leaq	-48(%rbp), %rax	#, tmp97
	movq	%rdx, %rsi	# _2,
	movq	%rax, %rdi	# tmp97,
	call	_ZNSt24uniform_int_distributionIxEclISt23mersenne_twister_engineImLm64ELm312ELm156ELm31ELm13043109905998158313ELm29ELm6148914691236517205ELm17ELm8202884508482404352ELm37ELm18444473444759240704ELm43ELm6364136223846793005EEEExRT_	#
# foo.cc:44:   }
	.loc 7 44 3
	movq	-24(%rbp), %rdx	# D.296597, tmp101
	subq	%fs:40, %rdx	# MEM[(<address-space-1> long unsigned int *)40B], tmp101
	je	.L42	#,
	jmp	.L44	#
.L43:
	endbr64	
# foo.cc:40:       throw runtime_error("Random.range: invalid range");
	.loc 7 40 56
	movq	%rax, %r12	#, tmp99
	movq	%rbx, %rdi	# _14,
	call	__cxa_free_exception@PLT	#
	movq	%r12, %rax	# tmp99, D.296596
	movq	%rax, %rdi	# D.296596,
	call	_Unwind_Resume@PLT	#
.LEHE4:
.L44:
# foo.cc:44:   }
	.loc 7 44 3
	call	__stack_chk_fail@PLT	#
.L42:
	addq	$64, %rsp	#,
	popq	%rbx	#
	popq	%r12	#
	popq	%rbp	#
	.cfi_def_cfa 7, 8
	ret	
	.cfi_endproc
.LFE11569:
	.section	.gcc_except_table._ZN6Random5rangeExx,"aG",@progbits,_ZN6Random5rangeExx,comdat
.LLSDA11569:
	.byte	0xff
	.byte	0xff
	.byte	0x1
	.uleb128 .LLSDACSE11569-.LLSDACSB11569
.LLSDACSB11569:
	.uleb128 .LEHB3-.LFB11569
	.uleb128 .LEHE3-.LEHB3
	.uleb128 .L43-.LFB11569
	.uleb128 0
	.uleb128 .LEHB4-.LFB11569
	.uleb128 .LEHE4-.LEHB4
	.uleb128 0
	.uleb128 0
.LLSDACSE11569:
	.section	.text._ZN6Random5rangeExx,"axG",@progbits,_ZN6Random5rangeExx,comdat
	.size	_ZN6Random5rangeExx, .-_ZN6Random5rangeExx
	.globl	_ZN6Random17the_random_deviceE
	.bss
	.align 32
	.type	_ZN6Random17the_random_deviceE, @object
	.size	_ZN6Random17the_random_deviceE, 5000
_ZN6Random17the_random_deviceE:
	.zero	5000
	.section	.text._ZNSt12_Vector_baseISt5tupleIJxxxEESaIS1_EE12_Vector_implD2Ev,"axG",@progbits,_ZNSt12_Vector_baseISt5tupleIJxxxEESaIS1_EE12_Vector_implD5Ev,comdat
	.align 2
	.weak	_ZNSt12_Vector_baseISt5tupleIJxxxEESaIS1_EE12_Vector_implD2Ev
	.type	_ZNSt12_Vector_baseISt5tupleIJxxxEESaIS1_EE12_Vector_implD2Ev, @function
_ZNSt12_Vector_baseISt5tupleIJxxxEESaIS1_EE12_Vector_implD2Ev:
.LFB11576:
	.file 8 "/usr/include/c++/11/bits/stl_vector.h"
	.loc 8 128 14
	.cfi_startproc
	endbr64	
	pushq	%rbp	#
	.cfi_def_cfa_offset 16
	.cfi_offset 6, -16
	movq	%rsp, %rbp	#,
	.cfi_def_cfa_register 6
	subq	$16, %rsp	#,
	movq	%rdi, -8(%rbp)	# this, this
.LBB27:
# /usr/include/c++/11/bits/stl_vector.h:128:       struct _Vector_impl
	.loc 8 128 14
	movq	-8(%rbp), %rax	# this, tmp82
	movq	%rax, %rdi	# tmp82,
	call	_ZNSaISt5tupleIJxxxEEED2Ev	#
.LBE27:
	nop	
	leave	
	.cfi_def_cfa 7, 8
	ret	
	.cfi_endproc
.LFE11576:
	.size	_ZNSt12_Vector_baseISt5tupleIJxxxEESaIS1_EE12_Vector_implD2Ev, .-_ZNSt12_Vector_baseISt5tupleIJxxxEESaIS1_EE12_Vector_implD2Ev
	.weak	_ZNSt12_Vector_baseISt5tupleIJxxxEESaIS1_EE12_Vector_implD1Ev
	.set	_ZNSt12_Vector_baseISt5tupleIJxxxEESaIS1_EE12_Vector_implD1Ev,_ZNSt12_Vector_baseISt5tupleIJxxxEESaIS1_EE12_Vector_implD2Ev
	.section	.text._ZNSt12_Vector_baseISt5tupleIJxxxEESaIS1_EEC2Ev,"axG",@progbits,_ZNSt12_Vector_baseISt5tupleIJxxxEESaIS1_EEC5Ev,comdat
	.align 2
	.weak	_ZNSt12_Vector_baseISt5tupleIJxxxEESaIS1_EEC2Ev
	.type	_ZNSt12_Vector_baseISt5tupleIJxxxEESaIS1_EEC2Ev, @function
_ZNSt12_Vector_baseISt5tupleIJxxxEESaIS1_EEC2Ev:
.LFB11578:
	.loc 8 288 7
	.cfi_startproc
	endbr64	
	pushq	%rbp	#
	.cfi_def_cfa_offset 16
	.cfi_offset 6, -16
	movq	%rsp, %rbp	#,
	.cfi_def_cfa_register 6
	subq	$16, %rsp	#,
	movq	%rdi, -8(%rbp)	# this, this
.LBB28:
# /usr/include/c++/11/bits/stl_vector.h:288:       _Vector_base() = default;
	.loc 8 288 7
	movq	-8(%rbp), %rax	# this, _1
	movq	%rax, %rdi	# _1,
	call	_ZNSt12_Vector_baseISt5tupleIJxxxEESaIS1_EE12_Vector_implC1Ev	#
.LBE28:
	nop	
	leave	
	.cfi_def_cfa 7, 8
	ret	
	.cfi_endproc
.LFE11578:
	.size	_ZNSt12_Vector_baseISt5tupleIJxxxEESaIS1_EEC2Ev, .-_ZNSt12_Vector_baseISt5tupleIJxxxEESaIS1_EEC2Ev
	.weak	_ZNSt12_Vector_baseISt5tupleIJxxxEESaIS1_EEC1Ev
	.set	_ZNSt12_Vector_baseISt5tupleIJxxxEESaIS1_EEC1Ev,_ZNSt12_Vector_baseISt5tupleIJxxxEESaIS1_EEC2Ev
	.section	.text._ZNSt6vectorISt5tupleIJxxxEESaIS1_EEC2Ev,"axG",@progbits,_ZNSt6vectorISt5tupleIJxxxEESaIS1_EEC5Ev,comdat
	.align 2
	.weak	_ZNSt6vectorISt5tupleIJxxxEESaIS1_EEC2Ev
	.type	_ZNSt6vectorISt5tupleIJxxxEESaIS1_EEC2Ev, @function
_ZNSt6vectorISt5tupleIJxxxEESaIS1_EEC2Ev:
.LFB11580:
	.loc 8 487 7
	.cfi_startproc
	endbr64	
	pushq	%rbp	#
	.cfi_def_cfa_offset 16
	.cfi_offset 6, -16
	movq	%rsp, %rbp	#,
	.cfi_def_cfa_register 6
	subq	$16, %rsp	#,
	movq	%rdi, -8(%rbp)	# this, this
.LBB29:
# /usr/include/c++/11/bits/stl_vector.h:487:       vector() = default;
	.loc 8 487 7
	movq	-8(%rbp), %rax	# this, _1
	movq	%rax, %rdi	# _1,
	call	_ZNSt12_Vector_baseISt5tupleIJxxxEESaIS1_EEC2Ev	#
.LBE29:
	nop	
	leave	
	.cfi_def_cfa 7, 8
	ret	
	.cfi_endproc
.LFE11580:
	.size	_ZNSt6vectorISt5tupleIJxxxEESaIS1_EEC2Ev, .-_ZNSt6vectorISt5tupleIJxxxEESaIS1_EEC2Ev
	.weak	_ZNSt6vectorISt5tupleIJxxxEESaIS1_EEC1Ev
	.set	_ZNSt6vectorISt5tupleIJxxxEESaIS1_EEC1Ev,_ZNSt6vectorISt5tupleIJxxxEESaIS1_EEC2Ev
	.section	.text._ZSt3getILm0EJxxxEERNSt13tuple_elementIXT_ESt5tupleIJDpT0_EEE4typeERS4_,"axG",@progbits,_ZSt3getILm0EJxxxEERNSt13tuple_elementIXT_ESt5tupleIJDpT0_EEE4typeERS4_,comdat
	.weak	_ZSt3getILm0EJxxxEERNSt13tuple_elementIXT_ESt5tupleIJDpT0_EEE4typeERS4_
	.type	_ZSt3getILm0EJxxxEERNSt13tuple_elementIXT_ESt5tupleIJDpT0_EEE4typeERS4_, @function
_ZSt3getILm0EJxxxEERNSt13tuple_elementIXT_ESt5tupleIJDpT0_EEE4typeERS4_:
.LFB11585:
	.file 9 "/usr/include/c++/11/tuple"
	.loc 9 1393 5
	.cfi_startproc
	endbr64	
	pushq	%rbp	#
	.cfi_def_cfa_offset 16
	.cfi_offset 6, -16
	movq	%rsp, %rbp	#,
	.cfi_def_cfa_register 6
	subq	$16, %rsp	#,
	movq	%rdi, -8(%rbp)	# __t, __t
# /usr/include/c++/11/tuple:1394:     { return std::__get_helper<__i>(__t); }
	.loc 9 1394 36
	movq	-8(%rbp), %rax	# __t, _1
	movq	%rax, %rdi	# _1,
	call	_ZSt12__get_helperILm0ExJxxEERT0_RSt11_Tuple_implIXT_EJS0_DpT1_EE	#
# /usr/include/c++/11/tuple:1394:     { return std::__get_helper<__i>(__t); }
	.loc 9 1394 43
	leave	
	.cfi_def_cfa 7, 8
	ret	
	.cfi_endproc
.LFE11585:
	.size	_ZSt3getILm0EJxxxEERNSt13tuple_elementIXT_ESt5tupleIJDpT0_EEE4typeERS4_, .-_ZSt3getILm0EJxxxEERNSt13tuple_elementIXT_ESt5tupleIJDpT0_EEE4typeERS4_
	.section	.text._ZSt3getILm1EJxxxEERNSt13tuple_elementIXT_ESt5tupleIJDpT0_EEE4typeERS4_,"axG",@progbits,_ZSt3getILm1EJxxxEERNSt13tuple_elementIXT_ESt5tupleIJDpT0_EEE4typeERS4_,comdat
	.weak	_ZSt3getILm1EJxxxEERNSt13tuple_elementIXT_ESt5tupleIJDpT0_EEE4typeERS4_
	.type	_ZSt3getILm1EJxxxEERNSt13tuple_elementIXT_ESt5tupleIJDpT0_EEE4typeERS4_, @function
_ZSt3getILm1EJxxxEERNSt13tuple_elementIXT_ESt5tupleIJDpT0_EEE4typeERS4_:
.LFB11586:
	.loc 9 1393 5
	.cfi_startproc
	endbr64	
	pushq	%rbp	#
	.cfi_def_cfa_offset 16
	.cfi_offset 6, -16
	movq	%rsp, %rbp	#,
	.cfi_def_cfa_register 6
	subq	$16, %rsp	#,
	movq	%rdi, -8(%rbp)	# __t, __t
# /usr/include/c++/11/tuple:1394:     { return std::__get_helper<__i>(__t); }
	.loc 9 1394 36
	movq	-8(%rbp), %rax	# __t, _1
	movq	%rax, %rdi	# _1,
	call	_ZSt12__get_helperILm1ExJxEERT0_RSt11_Tuple_implIXT_EJS0_DpT1_EE	#
# /usr/include/c++/11/tuple:1394:     { return std::__get_helper<__i>(__t); }
	.loc 9 1394 43
	leave	
	.cfi_def_cfa 7, 8
	ret	
	.cfi_endproc
.LFE11586:
	.size	_ZSt3getILm1EJxxxEERNSt13tuple_elementIXT_ESt5tupleIJDpT0_EEE4typeERS4_, .-_ZSt3getILm1EJxxxEERNSt13tuple_elementIXT_ESt5tupleIJDpT0_EEE4typeERS4_
	.section	.text._ZSt3getILm2EJxxxEERNSt13tuple_elementIXT_ESt5tupleIJDpT0_EEE4typeERS4_,"axG",@progbits,_ZSt3getILm2EJxxxEERNSt13tuple_elementIXT_ESt5tupleIJDpT0_EEE4typeERS4_,comdat
	.weak	_ZSt3getILm2EJxxxEERNSt13tuple_elementIXT_ESt5tupleIJDpT0_EEE4typeERS4_
	.type	_ZSt3getILm2EJxxxEERNSt13tuple_elementIXT_ESt5tupleIJDpT0_EEE4typeERS4_, @function
_ZSt3getILm2EJxxxEERNSt13tuple_elementIXT_ESt5tupleIJDpT0_EEE4typeERS4_:
.LFB11587:
	.loc 9 1393 5
	.cfi_startproc
	endbr64	
	pushq	%rbp	#
	.cfi_def_cfa_offset 16
	.cfi_offset 6, -16
	movq	%rsp, %rbp	#,
	.cfi_def_cfa_register 6
	subq	$16, %rsp	#,
	movq	%rdi, -8(%rbp)	# __t, __t
# /usr/include/c++/11/tuple:1394:     { return std::__get_helper<__i>(__t); }
	.loc 9 1394 36
	movq	-8(%rbp), %rax	# __t, _1
	movq	%rax, %rdi	# _1,
	call	_ZSt12__get_helperILm2ExJEERT0_RSt11_Tuple_implIXT_EJS0_DpT1_EE	#
# /usr/include/c++/11/tuple:1394:     { return std::__get_helper<__i>(__t); }
	.loc 9 1394 43
	leave	
	.cfi_def_cfa 7, 8
	ret	
	.cfi_endproc
.LFE11587:
	.size	_ZSt3getILm2EJxxxEERNSt13tuple_elementIXT_ESt5tupleIJDpT0_EEE4typeERS4_, .-_ZSt3getILm2EJxxxEERNSt13tuple_elementIXT_ESt5tupleIJDpT0_EEE4typeERS4_
	.section	.rodata
.LC3:
	.string	"int main()"
.LC4:
	.string	"foo.cc"
.LC5:
	.string	"vec1[i] == vec2[i]"
	.text
	.globl	main
	.type	main, @function
main:
.LFB11570:
	.loc 7 55 12
	.cfi_startproc
	.cfi_personality 0x9b,DW.ref.__gxx_personality_v0
	.cfi_lsda 0x1b,.LLSDA11570
	endbr64	
	pushq	%rbp	#
	.cfi_def_cfa_offset 16
	.cfi_offset 6, -16
	movq	%rsp, %rbp	#,
	.cfi_def_cfa_register 6
	pushq	%rbx	#
	subq	$2760, %rsp	#,
	.cfi_offset 3, -24
# foo.cc:55: int main() {
	.loc 7 55 12
	movq	%fs:40, %rax	# MEM[(<address-space-1> long unsigned int *)40B], tmp261
	movq	%rax, -24(%rbp)	# tmp261, D.296602
	xorl	%eax, %eax	# tmp261
# foo.cc:57:   Random rand;
	.loc 7 57 10
	leaq	-2528(%rbp), %rax	#, tmp158
	movq	%rax, %rdi	# tmp158,
.LEHB5:
	call	_ZN6RandomC1Ev	#
.LEHE5:
# foo.cc:59:   ll N = 1LL << 23;
	.loc 7 59 6
	movq	$8388608, -2736(%rbp)	#, N
# foo.cc:60:   vector<vector<ll>> nbr(N);
	.loc 7 60 27
	leaq	-2560(%rbp), %rax	#, tmp159
	movq	%rax, %rdi	# tmp159,
	call	_ZNSaISt6vectorIxSaIxEEEC1Ev	#
	movq	-2736(%rbp), %rcx	# N, N.0_1
	leaq	-2560(%rbp), %rdx	#, tmp160
	leaq	-2656(%rbp), %rax	#, tmp161
	movq	%rcx, %rsi	# N.0_1,
	movq	%rax, %rdi	# tmp161,
.LEHB6:
	call	_ZNSt6vectorIS_IxSaIxEESaIS1_EEC1EmRKS2_	#
.LEHE6:
	leaq	-2560(%rbp), %rax	#, tmp162
	movq	%rax, %rdi	# tmp162,
	call	_ZNSaISt6vectorIxSaIxEEED1Ev	#
.LBB30:
# foo.cc:61:   REP(i, 1, N) {
	.loc 7 61 3
	movq	$1, -2592(%rbp)	#, MEM[(long long int *)_208]
	jmp	.L55	#
.L56:
.LBB31:
# foo.cc:62:     ll j = rand.range(0, i);
	.loc 7 62 22
	movq	-2592(%rbp), %rdx	# MEM[(long long int *)_208], i.1_2
	leaq	-2528(%rbp), %rax	#, tmp163
	movl	$0, %esi	#,
	movq	%rax, %rdi	# tmp163,
.LEHB7:
	call	_ZN6Random5rangeExx	#
# foo.cc:62:     ll j = rand.range(0, i);
	.loc 7 62 27
	movq	%rax, -2560(%rbp)	# _3, MEM[(long long int *)_210]
# foo.cc:63:     nbr[i].push_back(j);
	.loc 7 63 10
	movq	-2592(%rbp), %rax	# MEM[(long long int *)_208], i.2_4
	movq	%rax, %rdx	# i.2_4, i.3_5
	leaq	-2656(%rbp), %rax	#, tmp164
	movq	%rdx, %rsi	# i.3_5,
	movq	%rax, %rdi	# tmp164,
	call	_ZNSt6vectorIS_IxSaIxEESaIS1_EEixEm	#
	movq	%rax, %rdx	#, _6
# foo.cc:63:     nbr[i].push_back(j);
	.loc 7 63 21
	leaq	-2560(%rbp), %rax	#, tmp165
	movq	%rax, %rsi	# tmp165,
	movq	%rdx, %rdi	# _6,
	call	_ZNSt6vectorIxSaIxEE9push_backERKx	#
# foo.cc:64:     nbr[j].push_back(i);
	.loc 7 64 10
	movq	-2560(%rbp), %rax	# MEM[(long long int *)_210], j.4_7
	movq	%rax, %rdx	# j.4_7, j.5_8
	leaq	-2656(%rbp), %rax	#, tmp166
	movq	%rdx, %rsi	# j.5_8,
	movq	%rax, %rdi	# tmp166,
	call	_ZNSt6vectorIS_IxSaIxEESaIS1_EEixEm	#
	movq	%rax, %rdx	#, _9
# foo.cc:64:     nbr[j].push_back(i);
	.loc 7 64 21
	leaq	-2592(%rbp), %rax	#, tmp167
	movq	%rax, %rsi	# tmp167,
	movq	%rdx, %rdi	# _9,
	call	_ZNSt6vectorIxSaIxEE9push_backERKx	#
.LBE31:
# foo.cc:61:   REP(i, 1, N) {
	.loc 7 61 3 discriminator 2
	movq	-2592(%rbp), %rax	# MEM[(long long int *)_208], i.6_10
	addq	$1, %rax	#, _11
	movq	%rax, -2592(%rbp)	# _11, MEM[(long long int *)_208]
.L55:
# foo.cc:61:   REP(i, 1, N) {
	.loc 7 61 3 is_stmt 0 discriminator 1
	movq	-2592(%rbp), %rax	# MEM[(long long int *)_208], i.7_12
	cmpq	%rax, -2736(%rbp)	# i.7_12, N
	jg	.L56	#,
.LBE30:
# foo.cc:66:   ll root = rand.range(0, N);
	.loc 7 66 23 is_stmt 1
	movq	-2736(%rbp), %rdx	# N, tmp168
	leaq	-2528(%rbp), %rax	#, tmp169
	movl	$0, %esi	#,
	movq	%rax, %rdi	# tmp169,
	call	_ZN6Random5rangeExx	#
.LEHE7:
# foo.cc:66:   ll root = rand.range(0, N);
	.loc 7 66 28
	movq	%rax, -2752(%rbp)	# _13, root
# foo.cc:67:   vector<ll> vec1(N, 1LL), vec2(N, 1LL);
	.loc 7 67 25
	leaq	-2592(%rbp), %rax	#, tmp170
	movq	%rax, %rdi	# tmp170,
	call	_ZNSaIxEC1Ev	#
# foo.cc:67:   vector<ll> vec1(N, 1LL), vec2(N, 1LL);
	.loc 7 67 22
	movq	$1, -2560(%rbp)	#, MEM[(long long int *)_210]
# foo.cc:67:   vector<ll> vec1(N, 1LL), vec2(N, 1LL);
	.loc 7 67 25
	movq	-2736(%rbp), %rsi	# N, N.8_14
	leaq	-2592(%rbp), %rcx	#, tmp171
	leaq	-2560(%rbp), %rdx	#, tmp172
	leaq	-2624(%rbp), %rax	#, tmp173
	movq	%rax, %rdi	# tmp173,
.LEHB8:
	call	_ZNSt6vectorIxSaIxEEC1EmRKxRKS0_	#
.LEHE8:
	leaq	-2592(%rbp), %rax	#, tmp174
	movq	%rax, %rdi	# tmp174,
	call	_ZNSaIxED1Ev	#
# foo.cc:67:   vector<ll> vec1(N, 1LL), vec2(N, 1LL);
	.loc 7 67 39 discriminator 1
	leaq	-2672(%rbp), %rax	#, tmp175
	movq	%rax, %rdi	# tmp175,
	call	_ZNSaIxEC1Ev	#
# foo.cc:67:   vector<ll> vec1(N, 1LL), vec2(N, 1LL);
	.loc 7 67 36 discriminator 1
	movq	$1, -2560(%rbp)	#, MEM[(long long int *)_210]
# foo.cc:67:   vector<ll> vec1(N, 1LL), vec2(N, 1LL);
	.loc 7 67 39 discriminator 1
	movq	-2736(%rbp), %rsi	# N, N.9_15
	leaq	-2672(%rbp), %rcx	#, tmp176
	leaq	-2560(%rbp), %rdx	#, tmp177
	leaq	-2592(%rbp), %rax	#, tmp178
	movq	%rax, %rdi	# tmp178,
.LEHB9:
	call	_ZNSt6vectorIxSaIxEEC1EmRKxRKS0_	#
.LEHE9:
	leaq	-2672(%rbp), %rax	#, tmp179
	movq	%rax, %rdi	# tmp179,
	call	_ZNSaIxED1Ev	#
# foo.cc:74:   };
	.loc 7 74 3 discriminator 2
	leaq	-2656(%rbp), %rax	#, tmp180
	movq	%rax, -2672(%rbp)	# tmp180, MEM[(struct ._anon_200 *)_209].__nbr
	leaq	-2624(%rbp), %rax	#, tmp181
	movq	%rax, -2664(%rbp)	# tmp181, MEM[(struct ._anon_200 *)_209].__vec1
# foo.cc:76:   double t1 = get_time_sec();
	.loc 7 76 27 discriminator 2
	call	_Z12get_time_secv	#
	movq	%xmm0, %rax	#, _105
	movq	%rax, -2728(%rbp)	# _105, t1
# foo.cc:77:   vector<tuple<ll, ll, ll>> stack;
	.loc 7 77 29 discriminator 2
	leaq	-2560(%rbp), %rax	#, tmp182
	movq	%rax, %rdi	# tmp182,
	call	_ZNSt6vectorISt5tupleIJxxxEESaIS1_EEC1Ev	#
# foo.cc:78:   stack.reserve(N);
	.loc 7 78 16 discriminator 2
	movq	-2736(%rbp), %rdx	# N, N.10_16
	leaq	-2560(%rbp), %rax	#, tmp183
	movq	%rdx, %rsi	# N.10_16,
	movq	%rax, %rdi	# tmp183,
.LEHB10:
	call	_ZNSt6vectorISt5tupleIJxxxEESaIS1_EE7reserveEm	#
# foo.cc:79:   stack.emplace_back(root, -1, -1);
	.loc 7 79 32
	movl	$-1, -2756(%rbp)	#, MEM[(int *)_207]
# foo.cc:79:   stack.emplace_back(root, -1, -1);
	.loc 7 79 28
	movl	$-1, -2760(%rbp)	#, MEM[(int *)_211]
# foo.cc:79:   stack.emplace_back(root, -1, -1);
	.loc 7 79 21
	leaq	-2756(%rbp), %rcx	#, tmp184
	leaq	-2760(%rbp), %rdx	#, tmp185
	leaq	-2752(%rbp), %rsi	#, tmp186
	leaq	-2560(%rbp), %rax	#, tmp187
	movq	%rax, %rdi	# tmp187,
	call	_ZNSt6vectorISt5tupleIJxxxEESaIS1_EE12emplace_backIJRxiiEEERS1_DpOT_	#
# foo.cc:80:   while (not stack.empty()) {
	.loc 7 80 3 discriminator 2
	jmp	.L57	#
.L61:
.LBB32:
# foo.cc:81:     auto& [nd, cidx, pt] = stack.back();
	.loc 7 81 38
	leaq	-2560(%rbp), %rax	#, tmp188
	movq	%rax, %rdi	# tmp188,
	call	_ZNSt6vectorISt5tupleIJxxxEESaIS1_EE4backEv	#
	movq	%rax, -2704(%rbp)	# tmp189, D.265067
# foo.cc:81:     auto& [nd, cidx, pt] = stack.back();
	.loc 7 81 12
	movq	-2704(%rbp), %rax	# D.265067, tmp190
	movq	%rax, %rdi	# tmp190,
	call	_ZSt3getILm0EJxxxEERNSt13tuple_elementIXT_ESt5tupleIJDpT0_EEE4typeERS4_	#
	movq	%rax, -2696(%rbp)	# tmp191, nd
# foo.cc:81:     auto& [nd, cidx, pt] = stack.back();
	.loc 7 81 16
	movq	-2704(%rbp), %rax	# D.265067, tmp192
	movq	%rax, %rdi	# tmp192,
	call	_ZSt3getILm1EJxxxEERNSt13tuple_elementIXT_ESt5tupleIJDpT0_EEE4typeERS4_	#
	movq	%rax, -2688(%rbp)	# tmp193, cidx
# foo.cc:81:     auto& [nd, cidx, pt] = stack.back();
	.loc 7 81 22
	movq	-2704(%rbp), %rax	# D.265067, tmp194
	movq	%rax, %rdi	# tmp194,
	call	_ZSt3getILm2EJxxxEERNSt13tuple_elementIXT_ESt5tupleIJDpT0_EEE4typeERS4_	#
	movq	%rax, -2680(%rbp)	# tmp195, pt
# foo.cc:83:     if (cidx == -1) ;
	.loc 7 83 9
	movq	-2688(%rbp), %rax	# cidx, tmp196
	movq	(%rax), %rax	# *cidx_151, _17
# foo.cc:83:     if (cidx == -1) ;
	.loc 7 83 5
	cmpq	$-1, %rax	#, _17
	je	.L58	#,
# foo.cc:85:       c = nbr[nd][cidx];
	.loc 7 85 15
	movq	-2696(%rbp), %rax	# nd, tmp197
	movq	(%rax), %rax	# *nd_149, _18
# foo.cc:85:       c = nbr[nd][cidx];
	.loc 7 85 17
	movq	%rax, %rdx	# _18, _19
	leaq	-2656(%rbp), %rax	#, tmp198
	movq	%rdx, %rsi	# _19,
	movq	%rax, %rdi	# tmp198,
	call	_ZNSt6vectorIS_IxSaIxEESaIS1_EEixEm	#
	movq	%rax, %rdx	#, _20
# foo.cc:85:       c = nbr[nd][cidx];
	.loc 7 85 19
	movq	-2688(%rbp), %rax	# cidx, tmp199
	movq	(%rax), %rax	# *cidx_151, _21
# foo.cc:85:       c = nbr[nd][cidx];
	.loc 7 85 23
	movq	%rax, %rsi	# _22,
	movq	%rdx, %rdi	# _20,
	call	_ZNSt6vectorIxSaIxEEixEm	#
# foo.cc:85:       c = nbr[nd][cidx];
	.loc 7 85 9
	movq	(%rax), %rax	# *_23, _24
	movl	%eax, -2760(%rbp)	# _25, MEM[(int *)_211]
# foo.cc:86:       if (c != pt) vec2[nd] += vec2[c];
	.loc 7 86 11
	movl	-2760(%rbp), %eax	# MEM[(int *)_211], c.11_26
	movslq	%eax, %rdx	# c.11_26, _27
# foo.cc:86:       if (c != pt) vec2[nd] += vec2[c];
	.loc 7 86 16
	movq	-2680(%rbp), %rax	# pt, tmp200
	movq	(%rax), %rax	# *pt_153, _28
# foo.cc:86:       if (c != pt) vec2[nd] += vec2[c];
	.loc 7 86 7
	cmpq	%rax, %rdx	# _28, _27
	je	.L58	#,
# foo.cc:86:       if (c != pt) vec2[nd] += vec2[c];
	.loc 7 86 38 discriminator 1
	movl	-2760(%rbp), %eax	# MEM[(int *)_211], c.12_29
	movslq	%eax, %rdx	# c.12_29, _30
	leaq	-2592(%rbp), %rax	#, tmp201
	movq	%rdx, %rsi	# _30,
	movq	%rax, %rdi	# tmp201,
	call	_ZNSt6vectorIxSaIxEEixEm	#
# foo.cc:86:       if (c != pt) vec2[nd] += vec2[c];
	.loc 7 86 29 discriminator 1
	movq	(%rax), %rbx	# *_31, _158
# foo.cc:86:       if (c != pt) vec2[nd] += vec2[c];
	.loc 7 86 25 discriminator 1
	movq	-2696(%rbp), %rax	# nd, tmp202
	movq	(%rax), %rax	# *nd_149, _32
# foo.cc:86:       if (c != pt) vec2[nd] += vec2[c];
	.loc 7 86 27 discriminator 1
	movq	%rax, %rdx	# _32, _33
	leaq	-2592(%rbp), %rax	#, tmp203
	movq	%rdx, %rsi	# _33,
	movq	%rax, %rdi	# tmp203,
	call	_ZNSt6vectorIxSaIxEEixEm	#
# foo.cc:86:       if (c != pt) vec2[nd] += vec2[c];
	.loc 7 86 29 discriminator 1
	movq	(%rax), %rdx	# *_160, _34
	addq	%rbx, %rdx	# _158, _35
	movq	%rdx, (%rax)	# _35, *_160
.L58:
# foo.cc:88:     cidx++;
	.loc 7 88 5
	movq	-2688(%rbp), %rax	# cidx, tmp204
	movq	(%rax), %rax	# *cidx_151, _36
# foo.cc:88:     cidx++;
	.loc 7 88 9
	leaq	1(%rax), %rdx	#, _37
	movq	-2688(%rbp), %rax	# cidx, tmp205
	movq	%rdx, (%rax)	# _37, *cidx_151
# foo.cc:89:     if (cidx < ssize(nbr[nd])) {
	.loc 7 89 9
	movq	-2688(%rbp), %rax	# cidx, tmp206
	movq	(%rax), %rbx	# *cidx_151, _38
# foo.cc:89:     if (cidx < ssize(nbr[nd])) {
	.loc 7 89 26
	movq	-2696(%rbp), %rax	# nd, tmp207
	movq	(%rax), %rax	# *nd_149, _39
# foo.cc:89:     if (cidx < ssize(nbr[nd])) {
	.loc 7 89 28
	movq	%rax, %rdx	# _39, _40
	leaq	-2656(%rbp), %rax	#, tmp208
	movq	%rdx, %rsi	# _40,
	movq	%rax, %rdi	# tmp208,
	call	_ZNSt6vectorIS_IxSaIxEESaIS1_EEixEm	#
# foo.cc:89:     if (cidx < ssize(nbr[nd])) {
	.loc 7 89 21
	movq	%rax, %rdi	# _41,
	call	_ZSt5ssizeISt6vectorIxSaIxEEENSt11common_typeIJlNSt11make_signedIDTcldtfp_4sizeEEE4typeEEE4typeERKT_	#
# foo.cc:89:     if (cidx < ssize(nbr[nd])) {
	.loc 7 89 14
	cmpq	%rax, %rbx	# _42, _38
	setl	%al	#, retval.13_165
# foo.cc:89:     if (cidx < ssize(nbr[nd])) {
	.loc 7 89 5
	testb	%al, %al	# retval.13_165
	je	.L59	#,
# foo.cc:90:       c = nbr[nd][cidx];
	.loc 7 90 15
	movq	-2696(%rbp), %rax	# nd, tmp209
	movq	(%rax), %rax	# *nd_149, _43
# foo.cc:90:       c = nbr[nd][cidx];
	.loc 7 90 17
	movq	%rax, %rdx	# _43, _44
	leaq	-2656(%rbp), %rax	#, tmp210
	movq	%rdx, %rsi	# _44,
	movq	%rax, %rdi	# tmp210,
	call	_ZNSt6vectorIS_IxSaIxEESaIS1_EEixEm	#
	movq	%rax, %rdx	#, _45
# foo.cc:90:       c = nbr[nd][cidx];
	.loc 7 90 19
	movq	-2688(%rbp), %rax	# cidx, tmp211
	movq	(%rax), %rax	# *cidx_151, _46
# foo.cc:90:       c = nbr[nd][cidx];
	.loc 7 90 23
	movq	%rax, %rsi	# _47,
	movq	%rdx, %rdi	# _45,
	call	_ZNSt6vectorIxSaIxEEixEm	#
# foo.cc:90:       c = nbr[nd][cidx];
	.loc 7 90 9
	movq	(%rax), %rax	# *_48, _49
	movl	%eax, -2760(%rbp)	# _50, MEM[(int *)_211]
# foo.cc:91:       if (c != pt) stack.emplace_back(c, -1, nd);
	.loc 7 91 11
	movl	-2760(%rbp), %eax	# MEM[(int *)_211], c.14_51
	movslq	%eax, %rdx	# c.14_51, _52
# foo.cc:91:       if (c != pt) stack.emplace_back(c, -1, nd);
	.loc 7 91 16
	movq	-2680(%rbp), %rax	# pt, tmp212
	movq	(%rax), %rax	# *pt_153, _53
# foo.cc:91:       if (c != pt) stack.emplace_back(c, -1, nd);
	.loc 7 91 7
	cmpq	%rax, %rdx	# _53, _52
	je	.L57	#,
# foo.cc:91:       if (c != pt) stack.emplace_back(c, -1, nd);
	.loc 7 91 42 discriminator 1
	movl	$-1, -2756(%rbp)	#, MEM[(int *)_207]
# foo.cc:91:       if (c != pt) stack.emplace_back(c, -1, nd);
	.loc 7 91 38 discriminator 1
	movq	-2696(%rbp), %rcx	# nd, tmp213
	leaq	-2756(%rbp), %rdx	#, tmp214
	leaq	-2760(%rbp), %rsi	#, tmp215
	leaq	-2560(%rbp), %rax	#, tmp216
	movq	%rax, %rdi	# tmp216,
	call	_ZNSt6vectorISt5tupleIJxxxEESaIS1_EE12emplace_backIJRiiRxEEERS1_DpOT_	#
	jmp	.L57	#
.L59:
# foo.cc:93:       stack.pop_back();
	.loc 7 93 21
	leaq	-2560(%rbp), %rax	#, tmp217
	movq	%rax, %rdi	# tmp217,
	call	_ZNSt6vectorISt5tupleIJxxxEESaIS1_EE8pop_backEv	#
.L57:
.LBE32:
# foo.cc:80:   while (not stack.empty()) {
	.loc 7 80 25
	leaq	-2560(%rbp), %rax	#, tmp218
	movq	%rax, %rdi	# tmp218,
	call	_ZNKSt6vectorISt5tupleIJxxxEESaIS1_EE5emptyEv	#
# foo.cc:80:   while (not stack.empty()) {
	.loc 7 80 10
	xorl	$1, %eax	#, retval.15_115
	testb	%al, %al	# retval.15_115
	jne	.L61	#,
# foo.cc:96:   double t2 = get_time_sec();
	.loc 7 96 27
	call	_Z12get_time_secv	#
	movq	%xmm0, %rax	#, _117
	movq	%rax, -2720(%rbp)	# _117, t2
# foo.cc:97:   dfs(dfs, root, -1);
	.loc 7 97 6
	movq	-2752(%rbp), %rcx	# root, root.16_55
	movq	-2672(%rbp), %rsi	# MEM[(struct ._anon_200 *)_209], tmp219
	movq	-2664(%rbp), %rdx	# MEM[(struct ._anon_200 *)_209], tmp220
	leaq	-2672(%rbp), %rax	#, tmp221
	movq	$-1, %r8	#,
	movq	%rax, %rdi	# tmp221,
	call	_ZZ4mainENKUlT_xxE_clIS0_EEvS_xx	#
# foo.cc:98:   double t3 = get_time_sec();
	.loc 7 98 27
	call	_Z12get_time_secv	#
	movq	%xmm0, %rax	#, _121
	movq	%rax, -2712(%rbp)	# _121, t3
.LBB33:
# foo.cc:99:   REP(i, 0, N) {
	.loc 7 99 3
	movq	$0, -2744(%rbp)	#, i
	jmp	.L62	#
.L64:
# foo.cc:100:     assert(vec1[i] == vec2[i]);
	.loc 7 100 5
	movq	-2744(%rbp), %rdx	# i, i.17_56
	leaq	-2624(%rbp), %rax	#, tmp222
	movq	%rdx, %rsi	# i.17_56,
	movq	%rax, %rdi	# tmp222,
	call	_ZNSt6vectorIxSaIxEEixEm	#
	movq	(%rax), %rbx	# *_57, _58
	movq	-2744(%rbp), %rdx	# i, i.18_59
	leaq	-2592(%rbp), %rax	#, tmp223
	movq	%rdx, %rsi	# i.18_59,
	movq	%rax, %rdi	# tmp223,
	call	_ZNSt6vectorIxSaIxEEixEm	#
	movq	(%rax), %rax	# *_60, _61
	cmpq	%rax, %rbx	# _61, _58
	je	.L63	#,
# foo.cc:100:     assert(vec1[i] == vec2[i]);
	.loc 7 100 5 is_stmt 0 discriminator 1
	leaq	.LC3(%rip), %rax	#, tmp224
	movq	%rax, %rcx	# tmp224,
	movl	$100, %edx	#,
	leaq	.LC4(%rip), %rax	#, tmp225
	movq	%rax, %rsi	# tmp225,
	leaq	.LC5(%rip), %rax	#, tmp226
	movq	%rax, %rdi	# tmp226,
	call	__assert_fail@PLT	#
.L63:
# foo.cc:99:   REP(i, 0, N) {
	.loc 7 99 3 is_stmt 1 discriminator 2
	addq	$1, -2744(%rbp)	#, i
.L62:
# foo.cc:99:   REP(i, 0, N) {
	.loc 7 99 3 is_stmt 0 discriminator 1
	movq	-2744(%rbp), %rax	# i, tmp227
	cmpq	-2736(%rbp), %rax	# N, tmp227
	jl	.L64	#,
.LBE33:
# foo.cc:102:   cout << t2 - t1 << endl;
	.loc 7 102 16 is_stmt 1
	movsd	-2720(%rbp), %xmm0	# t2, tmp228
	subsd	-2728(%rbp), %xmm0	# t1, tmp228
	movq	%xmm0, %rax	# tmp228, _62
	movq	%rax, %xmm0	# _62,
	leaq	_ZSt4cout(%rip), %rax	#, tmp229
	movq	%rax, %rdi	# tmp229,
	call	_ZNSolsEd@PLT	#
# foo.cc:102:   cout << t2 - t1 << endl;
	.loc 7 102 22
	movq	_ZSt4endlIcSt11char_traitsIcEERSt13basic_ostreamIT_T0_ES6_@GOTPCREL(%rip), %rdx	#, tmp231
	movq	%rdx, %rsi	# tmp230,
	movq	%rax, %rdi	# _63,
	call	_ZNSolsEPFRSoS_E@PLT	#
# foo.cc:103:   cout << t3 - t2 << endl;
	.loc 7 103 16
	movsd	-2712(%rbp), %xmm0	# t3, tmp232
	subsd	-2720(%rbp), %xmm0	# t2, tmp232
	movq	%xmm0, %rax	# tmp232, _64
	movq	%rax, %xmm0	# _64,
	leaq	_ZSt4cout(%rip), %rax	#, tmp233
	movq	%rax, %rdi	# tmp233,
	call	_ZNSolsEd@PLT	#
# foo.cc:103:   cout << t3 - t2 << endl;
	.loc 7 103 22
	movq	_ZSt4endlIcSt11char_traitsIcEERSt13basic_ostreamIT_T0_ES6_@GOTPCREL(%rip), %rdx	#, tmp235
	movq	%rdx, %rsi	# tmp234,
	movq	%rax, %rdi	# _65,
	call	_ZNSolsEPFRSoS_E@PLT	#
.LEHE10:
# foo.cc:105: }
	.loc 7 105 1
	leaq	-2560(%rbp), %rax	#, tmp236
	movq	%rax, %rdi	# tmp236,
	call	_ZNSt6vectorISt5tupleIJxxxEESaIS1_EED1Ev	#
	leaq	-2592(%rbp), %rax	#, tmp237
	movq	%rax, %rdi	# tmp237,
	call	_ZNSt6vectorIxSaIxEED1Ev	#
	leaq	-2624(%rbp), %rax	#, tmp238
	movq	%rax, %rdi	# tmp238,
	call	_ZNSt6vectorIxSaIxEED1Ev	#
	leaq	-2656(%rbp), %rax	#, tmp239
	movq	%rax, %rdi	# tmp239,
	call	_ZNSt6vectorIS_IxSaIxEESaIS1_EED1Ev	#
	movl	$0, %eax	#, _141
	movq	-24(%rbp), %rdx	# D.296602, tmp262
	subq	%fs:40, %rdx	# MEM[(<address-space-1> long unsigned int *)40B], tmp262
	je	.L72	#,
	jmp	.L78	#
.L73:
	endbr64	
	movq	%rax, %rbx	#, tmp242
	leaq	-2560(%rbp), %rax	#, tmp241
	movq	%rax, %rdi	# tmp241,
	call	_ZNSaISt6vectorIxSaIxEEED1Ev	#
	movq	%rbx, %rax	# tmp242, D.296599
	movq	%rax, %rdi	# D.296599,
.LEHB11:
	call	_Unwind_Resume@PLT	#
.L75:
	endbr64	
	movq	%rax, %rbx	#, tmp245
	leaq	-2592(%rbp), %rax	#, tmp243
	movq	%rax, %rdi	# tmp243,
	call	_ZNSaIxED1Ev	#
	jmp	.L68	#
.L76:
	endbr64	
	movq	%rax, %rbx	#, tmp250
	leaq	-2672(%rbp), %rax	#, tmp248
	movq	%rax, %rdi	# tmp248,
	call	_ZNSaIxED1Ev	#
	jmp	.L70	#
.L77:
	endbr64	
	movq	%rax, %rbx	#, tmp255
	leaq	-2560(%rbp), %rax	#, tmp253
	movq	%rax, %rdi	# tmp253,
	call	_ZNSt6vectorISt5tupleIJxxxEESaIS1_EED1Ev	#
	leaq	-2592(%rbp), %rax	#, tmp258
	movq	%rax, %rdi	# tmp258,
	call	_ZNSt6vectorIxSaIxEED1Ev	#
.L70:
	leaq	-2624(%rbp), %rax	#, tmp259
	movq	%rax, %rdi	# tmp259,
	call	_ZNSt6vectorIxSaIxEED1Ev	#
	jmp	.L68	#
.L74:
	endbr64	
	movq	%rax, %rbx	#, tmp244
.L68:
	leaq	-2656(%rbp), %rax	#, tmp260
	movq	%rax, %rdi	# tmp260,
	call	_ZNSt6vectorIS_IxSaIxEESaIS1_EED1Ev	#
	movq	%rbx, %rax	# tmp244, D.296600
	movq	%rax, %rdi	# D.296600,
	call	_Unwind_Resume@PLT	#
.LEHE11:
.L78:
	call	__stack_chk_fail@PLT	#
.L72:
	movq	-8(%rbp), %rbx	#,
	leave	
	.cfi_def_cfa 7, 8
	ret	
	.cfi_endproc
.LFE11570:
	.section	.gcc_except_table,"a",@progbits
.LLSDA11570:
	.byte	0xff
	.byte	0xff
	.byte	0x1
	.uleb128 .LLSDACSE11570-.LLSDACSB11570
.LLSDACSB11570:
	.uleb128 .LEHB5-.LFB11570
	.uleb128 .LEHE5-.LEHB5
	.uleb128 0
	.uleb128 0
	.uleb128 .LEHB6-.LFB11570
	.uleb128 .LEHE6-.LEHB6
	.uleb128 .L73-.LFB11570
	.uleb128 0
	.uleb128 .LEHB7-.LFB11570
	.uleb128 .LEHE7-.LEHB7
	.uleb128 .L74-.LFB11570
	.uleb128 0
	.uleb128 .LEHB8-.LFB11570
	.uleb128 .LEHE8-.LEHB8
	.uleb128 .L75-.LFB11570
	.uleb128 0
	.uleb128 .LEHB9-.LFB11570
	.uleb128 .LEHE9-.LEHB9
	.uleb128 .L76-.LFB11570
	.uleb128 0
	.uleb128 .LEHB10-.LFB11570
	.uleb128 .LEHE10-.LEHB10
	.uleb128 .L77-.LFB11570
	.uleb128 0
	.uleb128 .LEHB11-.LFB11570
	.uleb128 .LEHE11-.LEHB11
	.uleb128 0
	.uleb128 0
.LLSDACSE11570:
	.text
	.size	main, .-main
	.section	.text._ZN9__gnu_cxx11char_traitsIcE2eqERKcS3_,"axG",@progbits,_ZN9__gnu_cxx11char_traitsIcE2eqERKcS3_,comdat
	.weak	_ZN9__gnu_cxx11char_traitsIcE2eqERKcS3_
	.type	_ZN9__gnu_cxx11char_traitsIcE2eqERKcS3_, @function
_ZN9__gnu_cxx11char_traitsIcE2eqERKcS3_:
.LFB11643:
	.loc 4 106 7
	.cfi_startproc
	endbr64	
	pushq	%rbp	#
	.cfi_def_cfa_offset 16
	.cfi_offset 6, -16
	movq	%rsp, %rbp	#,
	.cfi_def_cfa_register 6
	movq	%rdi, -8(%rbp)	# __c1, __c1
	movq	%rsi, -16(%rbp)	# __c2, __c2
# /usr/include/c++/11/bits/char_traits.h:107:       { return __c1 == __c2; }
	.loc 4 107 21
	movq	-8(%rbp), %rax	# __c1, tmp86
	movzbl	(%rax), %edx	# *__c1_4(D), _1
	movq	-16(%rbp), %rax	# __c2, tmp87
	movzbl	(%rax), %eax	# *__c2_5(D), _2
# /usr/include/c++/11/bits/char_traits.h:107:       { return __c1 == __c2; }
	.loc 4 107 24
	cmpb	%al, %dl	# _2, _1
	sete	%al	#, _6
# /usr/include/c++/11/bits/char_traits.h:107:       { return __c1 == __c2; }
	.loc 4 107 30
	popq	%rbp	#
	.cfi_def_cfa 7, 8
	ret	
	.cfi_endproc
.LFE11643:
	.size	_ZN9__gnu_cxx11char_traitsIcE2eqERKcS3_, .-_ZN9__gnu_cxx11char_traitsIcE2eqERKcS3_
	.section	.text._ZN9__gnu_cxx11char_traitsIcE6lengthEPKc,"axG",@progbits,_ZN9__gnu_cxx11char_traitsIcE6lengthEPKc,comdat
	.align 2
	.weak	_ZN9__gnu_cxx11char_traitsIcE6lengthEPKc
	.type	_ZN9__gnu_cxx11char_traitsIcE6lengthEPKc, @function
_ZN9__gnu_cxx11char_traitsIcE6lengthEPKc:
.LFB11642:
	.loc 4 167 5
	.cfi_startproc
	endbr64	
	pushq	%rbp	#
	.cfi_def_cfa_offset 16
	.cfi_offset 6, -16
	movq	%rsp, %rbp	#,
	.cfi_def_cfa_register 6
	subq	$48, %rsp	#,
	movq	%rdi, -40(%rbp)	# __p, __p
# /usr/include/c++/11/bits/char_traits.h:167:     char_traits<_CharT>::
	.loc 4 167 5
	movq	%fs:40, %rax	# MEM[(<address-space-1> long unsigned int *)40B], tmp91
	movq	%rax, -8(%rbp)	# tmp91, D.296606
	xorl	%eax, %eax	# tmp91
# /usr/include/c++/11/bits/char_traits.h:170:       std::size_t __i = 0;
	.loc 4 170 19
	movq	$0, -16(%rbp)	#, __i
# /usr/include/c++/11/bits/char_traits.h:171:       while (!eq(__p[__i], char_type()))
	.loc 4 171 7
	jmp	.L82	#
.L83:
# /usr/include/c++/11/bits/char_traits.h:172:         ++__i;
	.loc 4 172 9
	addq	$1, -16(%rbp)	#, __i
.L82:
# /usr/include/c++/11/bits/char_traits.h:171:       while (!eq(__p[__i], char_type()))
	.loc 4 171 17
	movb	$0, -17(%rbp)	#, D.266126
# /usr/include/c++/11/bits/char_traits.h:171:       while (!eq(__p[__i], char_type()))
	.loc 4 171 21
	movq	-40(%rbp), %rdx	# __p, tmp87
	movq	-16(%rbp), %rax	# __i, tmp88
	addq	%rax, %rdx	# tmp88, _1
# /usr/include/c++/11/bits/char_traits.h:171:       while (!eq(__p[__i], char_type()))
	.loc 4 171 17
	leaq	-17(%rbp), %rax	#, tmp89
	movq	%rax, %rsi	# tmp89,
	movq	%rdx, %rdi	# _1,
	call	_ZN9__gnu_cxx11char_traitsIcE2eqERKcS3_	#
	xorl	$1, %eax	#, retval.57_10
	testb	%al, %al	# retval.57_10
	jne	.L83	#,
# /usr/include/c++/11/bits/char_traits.h:173:       return __i;
	.loc 4 173 14
	movq	-16(%rbp), %rax	# __i, _12
# /usr/include/c++/11/bits/char_traits.h:174:     }
	.loc 4 174 5
	movq	-8(%rbp), %rdx	# D.296606, tmp92
	subq	%fs:40, %rdx	# MEM[(<address-space-1> long unsigned int *)40B], tmp92
	je	.L85	#,
	call	__stack_chk_fail@PLT	#
.L85:
	leave	
	.cfi_def_cfa 7, 8
	ret	
	.cfi_endproc
.LFE11642:
	.size	_ZN9__gnu_cxx11char_traitsIcE6lengthEPKc, .-_ZN9__gnu_cxx11char_traitsIcE6lengthEPKc
	.section	.text._ZSt4copyIPKcPcET0_T_S4_S3_,"axG",@progbits,_ZSt4copyIPKcPcET0_T_S4_S3_,comdat
	.weak	_ZSt4copyIPKcPcET0_T_S4_S3_
	.type	_ZSt4copyIPKcPcET0_T_S4_S3_, @function
_ZSt4copyIPKcPcET0_T_S4_S3_:
.LFB11647:
	.loc 3 611 5
	.cfi_startproc
	endbr64	
	pushq	%rbp	#
	.cfi_def_cfa_offset 16
	.cfi_offset 6, -16
	movq	%rsp, %rbp	#,
	.cfi_def_cfa_register 6
	pushq	%rbx	#
	subq	$40, %rsp	#,
	.cfi_offset 3, -24
	movq	%rdi, -24(%rbp)	# __first, __first
	movq	%rsi, -32(%rbp)	# __last, __last
	movq	%rdx, -40(%rbp)	# __result, __result
# /usr/include/c++/11/bits/stl_algobase.h:620: 	     (std::__miter_base(__first), std::__miter_base(__last), __result);
	.loc 3 620 7
	movq	-32(%rbp), %rax	# __last, tmp86
	movq	%rax, %rdi	# tmp86,
	call	_ZSt12__miter_baseIPKcET_S2_	#
	movq	%rax, %rbx	#, _1
	movq	-24(%rbp), %rax	# __first, tmp87
	movq	%rax, %rdi	# tmp87,
	call	_ZSt12__miter_baseIPKcET_S2_	#
	movq	%rax, %rcx	#, _2
	movq	-40(%rbp), %rax	# __result, tmp88
	movq	%rax, %rdx	# tmp88,
	movq	%rbx, %rsi	# _1,
	movq	%rcx, %rdi	# _2,
	call	_ZSt13__copy_move_aILb0EPKcPcET1_T0_S4_S3_	#
# /usr/include/c++/11/bits/stl_algobase.h:621:     }
	.loc 3 621 5
	movq	-8(%rbp), %rbx	#,
	leave	
	.cfi_def_cfa 7, 8
	ret	
	.cfi_endproc
.LFE11647:
	.size	_ZSt4copyIPKcPcET0_T_S4_S3_, .-_ZSt4copyIPKcPcET0_T_S4_S3_
	.section	.text._ZN9__gnu_cxx11char_traitsIcE4copyEPcPKcm,"axG",@progbits,_ZN9__gnu_cxx11char_traitsIcE4copyEPcPKcm,comdat
	.align 2
	.weak	_ZN9__gnu_cxx11char_traitsIcE4copyEPcPKcm
	.type	_ZN9__gnu_cxx11char_traitsIcE4copyEPcPKcm, @function
_ZN9__gnu_cxx11char_traitsIcE4copyEPcPKcm:
.LFB11646:
	.loc 4 240 5
	.cfi_startproc
	endbr64	
	pushq	%rbp	#
	.cfi_def_cfa_offset 16
	.cfi_offset 6, -16
	movq	%rsp, %rbp	#,
	.cfi_def_cfa_register 6
	subq	$32, %rsp	#,
	movq	%rdi, -8(%rbp)	# __s1, __s1
	movq	%rsi, -16(%rbp)	# __s2, __s2
	movq	%rdx, -24(%rbp)	# __n, __n
# /usr/include/c++/11/bits/char_traits.h:244:       std::copy(__s2, __s2 + __n, __s1);
	.loc 4 244 16
	movq	-16(%rbp), %rdx	# __s2, tmp85
	movq	-24(%rbp), %rax	# __n, tmp86
	leaq	(%rdx,%rax), %rcx	#, _1
	movq	-8(%rbp), %rdx	# __s1, tmp87
	movq	-16(%rbp), %rax	# __s2, tmp88
	movq	%rcx, %rsi	# _1,
	movq	%rax, %rdi	# tmp88,
	call	_ZSt4copyIPKcPcET0_T_S4_S3_	#
# /usr/include/c++/11/bits/char_traits.h:245:       return __s1;
	.loc 4 245 14
	movq	-8(%rbp), %rax	# __s1, _7
# /usr/include/c++/11/bits/char_traits.h:246:     }
	.loc 4 246 5
	leave	
	.cfi_def_cfa 7, 8
	ret	
	.cfi_endproc
.LFE11646:
	.size	_ZN9__gnu_cxx11char_traitsIcE4copyEPcPKcm, .-_ZN9__gnu_cxx11char_traitsIcE4copyEPcPKcm
	.section	.text._ZNSt7__cxx1112basic_stringIcSt11char_traitsIcESaIcEE12_Alloc_hiderD2Ev,"axG",@progbits,_ZNSt7__cxx1112basic_stringIcSt11char_traitsIcESaIcEE12_Alloc_hiderD5Ev,comdat
	.align 2
	.weak	_ZNSt7__cxx1112basic_stringIcSt11char_traitsIcESaIcEE12_Alloc_hiderD2Ev
	.type	_ZNSt7__cxx1112basic_stringIcSt11char_traitsIcESaIcEE12_Alloc_hiderD2Ev, @function
_ZNSt7__cxx1112basic_stringIcSt11char_traitsIcESaIcEE12_Alloc_hiderD2Ev:
.LFB11781:
	.file 10 "/usr/include/c++/11/bits/basic_string.h"
	.loc 10 158 14
	.cfi_startproc
	endbr64	
	pushq	%rbp	#
	.cfi_def_cfa_offset 16
	.cfi_offset 6, -16
	movq	%rsp, %rbp	#,
	.cfi_def_cfa_register 6
	subq	$16, %rsp	#,
	movq	%rdi, -8(%rbp)	# this, this
.LBB34:
# /usr/include/c++/11/bits/basic_string.h:158:       struct _Alloc_hider : allocator_type // TODO check __is_final
	.loc 10 158 14
	movq	-8(%rbp), %rax	# this, tmp82
	movq	%rax, %rdi	# tmp82,
	call	_ZNSaIcED2Ev@PLT	#
.LBE34:
	nop	
	leave	
	.cfi_def_cfa 7, 8
	ret	
	.cfi_endproc
.LFE11781:
	.size	_ZNSt7__cxx1112basic_stringIcSt11char_traitsIcESaIcEE12_Alloc_hiderD2Ev, .-_ZNSt7__cxx1112basic_stringIcSt11char_traitsIcESaIcEE12_Alloc_hiderD2Ev
	.weak	_ZNSt7__cxx1112basic_stringIcSt11char_traitsIcESaIcEE12_Alloc_hiderD1Ev
	.set	_ZNSt7__cxx1112basic_stringIcSt11char_traitsIcESaIcEE12_Alloc_hiderD1Ev,_ZNSt7__cxx1112basic_stringIcSt11char_traitsIcESaIcEE12_Alloc_hiderD2Ev
	.section	.text._ZNSt7__cxx1112basic_stringIcSt11char_traitsIcESaIcEED2Ev,"axG",@progbits,_ZNSt7__cxx1112basic_stringIcSt11char_traitsIcESaIcEED5Ev,comdat
	.align 2
	.weak	_ZNSt7__cxx1112basic_stringIcSt11char_traitsIcESaIcEED2Ev
	.type	_ZNSt7__cxx1112basic_stringIcSt11char_traitsIcESaIcEED2Ev, @function
_ZNSt7__cxx1112basic_stringIcSt11char_traitsIcESaIcEED2Ev:
.LFB11786:
	.loc 10 671 7
	.cfi_startproc
	.cfi_personality 0x9b,DW.ref.__gxx_personality_v0
	.cfi_lsda 0x1b,.LLSDA11786
	endbr64	
	pushq	%rbp	#
	.cfi_def_cfa_offset 16
	.cfi_offset 6, -16
	movq	%rsp, %rbp	#,
	.cfi_def_cfa_register 6
	subq	$16, %rsp	#,
	movq	%rdi, -8(%rbp)	# this, this
.LBB35:
# /usr/include/c++/11/bits/basic_string.h:672:       { _M_dispose(); }
	.loc 10 672 19
	movq	-8(%rbp), %rax	# this, tmp83
	movq	%rax, %rdi	# tmp83,
	call	_ZNSt7__cxx1112basic_stringIcSt11char_traitsIcESaIcEE10_M_disposeEv	#
# /usr/include/c++/11/bits/basic_string.h:672:       { _M_dispose(); }
	.loc 10 672 23
	movq	-8(%rbp), %rax	# this, _1
	movq	%rax, %rdi	# _1,
	call	_ZNSt7__cxx1112basic_stringIcSt11char_traitsIcESaIcEE12_Alloc_hiderD1Ev	#
.LBE35:
	nop	
	leave	
	.cfi_def_cfa 7, 8
	ret	
	.cfi_endproc
.LFE11786:
	.section	.gcc_except_table
.LLSDA11786:
	.byte	0xff
	.byte	0xff
	.byte	0x1
	.uleb128 .LLSDACSE11786-.LLSDACSB11786
.LLSDACSB11786:
.LLSDACSE11786:
	.section	.text._ZNSt7__cxx1112basic_stringIcSt11char_traitsIcESaIcEED2Ev,"axG",@progbits,_ZNSt7__cxx1112basic_stringIcSt11char_traitsIcESaIcEED5Ev,comdat
	.size	_ZNSt7__cxx1112basic_stringIcSt11char_traitsIcESaIcEED2Ev, .-_ZNSt7__cxx1112basic_stringIcSt11char_traitsIcESaIcEED2Ev
	.weak	_ZNSt7__cxx1112basic_stringIcSt11char_traitsIcESaIcEED1Ev
	.set	_ZNSt7__cxx1112basic_stringIcSt11char_traitsIcESaIcEED1Ev,_ZNSt7__cxx1112basic_stringIcSt11char_traitsIcESaIcEED2Ev
	.section	.text._ZSt3maxImERKT_S2_S2_,"axG",@progbits,_ZSt3maxImERKT_S2_S2_,comdat
	.weak	_ZSt3maxImERKT_S2_S2_
	.type	_ZSt3maxImERKT_S2_S2_, @function
_ZSt3maxImERKT_S2_S2_:
.LFB11949:
	.loc 3 254 5
	.cfi_startproc
	endbr64	
	pushq	%rbp	#
	.cfi_def_cfa_offset 16
	.cfi_offset 6, -16
	movq	%rsp, %rbp	#,
	.cfi_def_cfa_register 6
	movq	%rdi, -8(%rbp)	# __a, __a
	movq	%rsi, -16(%rbp)	# __b, __b
# /usr/include/c++/11/bits/stl_algobase.h:259:       if (__a < __b)
	.loc 3 259 15
	movq	-8(%rbp), %rax	# __a, tmp86
	movq	(%rax), %rdx	# *__a_5(D), _1
	movq	-16(%rbp), %rax	# __b, tmp87
	movq	(%rax), %rax	# *__b_6(D), _2
# /usr/include/c++/11/bits/stl_algobase.h:259:       if (__a < __b)
	.loc 3 259 7
	cmpq	%rax, %rdx	# _2, _1
	jnb	.L93	#,
# /usr/include/c++/11/bits/stl_algobase.h:260: 	return __b;
	.loc 3 260 9
	movq	-16(%rbp), %rax	# __b, _3
	jmp	.L94	#
.L93:
# /usr/include/c++/11/bits/stl_algobase.h:261:       return __a;
	.loc 3 261 14
	movq	-8(%rbp), %rax	# __a, _3
.L94:
# /usr/include/c++/11/bits/stl_algobase.h:262:     }
	.loc 3 262 5
	popq	%rbp	#
	.cfi_def_cfa 7, 8
	ret	
	.cfi_endproc
.LFE11949:
	.size	_ZSt3maxImERKT_S2_S2_, .-_ZSt3maxImERKT_S2_S2_
	.section	.text._ZSt7forwardIiEOT_RNSt16remove_referenceIS0_E4typeE,"axG",@progbits,_ZSt7forwardIiEOT_RNSt16remove_referenceIS0_E4typeE,comdat
	.weak	_ZSt7forwardIiEOT_RNSt16remove_referenceIS0_E4typeE
	.type	_ZSt7forwardIiEOT_RNSt16remove_referenceIS0_E4typeE, @function
_ZSt7forwardIiEOT_RNSt16remove_referenceIS0_E4typeE:
.LFB11954:
	.file 11 "/usr/include/c++/11/bits/move.h"
	.loc 11 77 5
	.cfi_startproc
	endbr64	
	pushq	%rbp	#
	.cfi_def_cfa_offset 16
	.cfi_offset 6, -16
	movq	%rsp, %rbp	#,
	.cfi_def_cfa_register 6
	movq	%rdi, -8(%rbp)	# __t, __t
# /usr/include/c++/11/bits/move.h:78:     { return static_cast<_Tp&&>(__t); }
	.loc 11 78 36
	movq	-8(%rbp), %rax	# __t, _2
# /usr/include/c++/11/bits/move.h:78:     { return static_cast<_Tp&&>(__t); }
	.loc 11 78 39
	popq	%rbp	#
	.cfi_def_cfa 7, 8
	ret	
	.cfi_endproc
.LFE11954:
	.size	_ZSt7forwardIiEOT_RNSt16remove_referenceIS0_E4typeE, .-_ZSt7forwardIiEOT_RNSt16remove_referenceIS0_E4typeE
	.section	.text._ZNKSt6chrono10time_pointINS_3_V212steady_clockENS_8durationIlSt5ratioILl1ELl1000000000EEEEE16time_since_epochEv,"axG",@progbits,_ZNKSt6chrono10time_pointINS_3_V212steady_clockENS_8durationIlSt5ratioILl1ELl1000000000EEEEE16time_since_epochEv,comdat
	.align 2
	.weak	_ZNKSt6chrono10time_pointINS_3_V212steady_clockENS_8durationIlSt5ratioILl1ELl1000000000EEEEE16time_since_epochEv
	.type	_ZNKSt6chrono10time_pointINS_3_V212steady_clockENS_8durationIlSt5ratioILl1ELl1000000000EEEEE16time_since_epochEv, @function
_ZNKSt6chrono10time_pointINS_3_V212steady_clockENS_8durationIlSt5ratioILl1ELl1000000000EEEEE16time_since_epochEv:
.LFB12136:
	.loc 5 898 2
	.cfi_startproc
	endbr64	
	pushq	%rbp	#
	.cfi_def_cfa_offset 16
	.cfi_offset 6, -16
	movq	%rsp, %rbp	#,
	.cfi_def_cfa_register 6
	movq	%rdi, -8(%rbp)	# this, this
# /usr/include/c++/11/chrono:899: 	{ return __d; }
	.loc 5 899 11
	movq	-8(%rbp), %rax	# this, tmp84
	movq	(%rax), %rax	# this_2(D)->__d, D.295498
# /usr/include/c++/11/chrono:899: 	{ return __d; }
	.loc 5 899 16
	popq	%rbp	#
	.cfi_def_cfa 7, 8
	ret	
	.cfi_endproc
.LFE12136:
	.size	_ZNKSt6chrono10time_pointINS_3_V212steady_clockENS_8durationIlSt5ratioILl1ELl1000000000EEEEE16time_since_epochEv, .-_ZNKSt6chrono10time_pointINS_3_V212steady_clockENS_8durationIlSt5ratioILl1ELl1000000000EEEEE16time_since_epochEv
	.section	.text._ZNSt6chrono20__duration_cast_implINS_8durationIlSt5ratioILl1ELl1000000000EEEES2_ILl1ELl1EElLb1ELb1EE6__castIlS3_EES4_RKNS1_IT_T0_EE,"axG",@progbits,_ZNSt6chrono20__duration_cast_implINS_8durationIlSt5ratioILl1ELl1000000000EEEES2_ILl1ELl1EElLb1ELb1EE6__castIlS3_EES4_RKNS1_IT_T0_EE,comdat
	.weak	_ZNSt6chrono20__duration_cast_implINS_8durationIlSt5ratioILl1ELl1000000000EEEES2_ILl1ELl1EElLb1ELb1EE6__castIlS3_EES4_RKNS1_IT_T0_EE
	.type	_ZNSt6chrono20__duration_cast_implINS_8durationIlSt5ratioILl1ELl1000000000EEEES2_ILl1ELl1EElLb1ELb1EE6__castIlS3_EES4_RKNS1_IT_T0_EE, @function
_ZNSt6chrono20__duration_cast_implINS_8durationIlSt5ratioILl1ELl1000000000EEEES2_ILl1ELl1EElLb1ELb1EE6__castIlS3_EES4_RKNS1_IT_T0_EE:
.LFB12154:
	.loc 5 211 4
	.cfi_startproc
	endbr64	
	pushq	%rbp	#
	.cfi_def_cfa_offset 16
	.cfi_offset 6, -16
	movq	%rsp, %rbp	#,
	.cfi_def_cfa_register 6
	subq	$48, %rsp	#,
	movq	%rdi, -40(%rbp)	# __d, __d
# /usr/include/c++/11/chrono:211: 	  __cast(const duration<_Rep, _Period>& __d)
	.loc 5 211 4
	movq	%fs:40, %rax	# MEM[(<address-space-1> long unsigned int *)40B], tmp89
	movq	%rax, -8(%rbp)	# tmp89, D.296607
	xorl	%eax, %eax	# tmp89
# /usr/include/c++/11/chrono:214: 	    return _ToDur(static_cast<__to_rep>(__d.count()));
	.loc 5 214 51
	movq	-40(%rbp), %rax	# __d, tmp85
	movq	%rax, %rdi	# tmp85,
	call	_ZNKSt6chrono8durationIlSt5ratioILl1ELl1000000000EEE5countEv	#
# /usr/include/c++/11/chrono:214: 	    return _ToDur(static_cast<__to_rep>(__d.count()));
	.loc 5 214 20
	movq	%rax, -24(%rbp)	# _1, D.270726
# /usr/include/c++/11/chrono:214: 	    return _ToDur(static_cast<__to_rep>(__d.count()));
	.loc 5 214 13
	leaq	-24(%rbp), %rdx	#, tmp86
	leaq	-16(%rbp), %rax	#, tmp87
	movq	%rdx, %rsi	# tmp86,
	movq	%rax, %rdi	# tmp87,
	call	_ZNSt6chrono8durationIlSt5ratioILl1ELl1000000000EEEC1IlvEERKT_	#
# /usr/include/c++/11/chrono:214: 	    return _ToDur(static_cast<__to_rep>(__d.count()));
	.loc 5 214 54
	movq	-16(%rbp), %rax	# D.270727, D.295502
# /usr/include/c++/11/chrono:215: 	  }
	.loc 5 215 4
	movq	-8(%rbp), %rdx	# D.296607, tmp90
	subq	%fs:40, %rdx	# MEM[(<address-space-1> long unsigned int *)40B], tmp90
	je	.L101	#,
	call	__stack_chk_fail@PLT	#
.L101:
	leave	
	.cfi_def_cfa 7, 8
	ret	
	.cfi_endproc
.LFE12154:
	.size	_ZNSt6chrono20__duration_cast_implINS_8durationIlSt5ratioILl1ELl1000000000EEEES2_ILl1ELl1EElLb1ELb1EE6__castIlS3_EES4_RKNS1_IT_T0_EE, .-_ZNSt6chrono20__duration_cast_implINS_8durationIlSt5ratioILl1ELl1000000000EEEES2_ILl1ELl1EElLb1ELb1EE6__castIlS3_EES4_RKNS1_IT_T0_EE
	.section	.text._ZNSt7__cxx1112basic_stringIcSt11char_traitsIcESaIcEEC2IS3_EEPKcRKS3_,"axG",@progbits,_ZNSt7__cxx1112basic_stringIcSt11char_traitsIcESaIcEEC5IS3_EEPKcRKS3_,comdat
	.align 2
	.weak	_ZNSt7__cxx1112basic_stringIcSt11char_traitsIcESaIcEEC2IS3_EEPKcRKS3_
	.type	_ZNSt7__cxx1112basic_stringIcSt11char_traitsIcESaIcEEC2IS3_EEPKcRKS3_, @function
_ZNSt7__cxx1112basic_stringIcSt11char_traitsIcESaIcEEC2IS3_EEPKcRKS3_:
.LFB12326:
	.loc 10 533 7
	.cfi_startproc
	.cfi_personality 0x9b,DW.ref.__gxx_personality_v0
	.cfi_lsda 0x1b,.LLSDA12326
	endbr64	
	pushq	%rbp	#
	.cfi_def_cfa_offset 16
	.cfi_offset 6, -16
	movq	%rsp, %rbp	#,
	.cfi_def_cfa_register 6
	pushq	%rbx	#
	subq	$72, %rsp	#,
	.cfi_offset 3, -24
	movq	%rdi, -56(%rbp)	# this, this
	movq	%rsi, -64(%rbp)	# __s, __s
	movq	%rdx, -72(%rbp)	# __a, __a
# /usr/include/c++/11/bits/basic_string.h:533:       basic_string(const _CharT* __s, const _Alloc& __a = _Alloc())
	.loc 10 533 7
	movq	%fs:40, %rax	# MEM[(<address-space-1> long unsigned int *)40B], tmp98
	movq	%rax, -24(%rbp)	# tmp98, D.296609
	xorl	%eax, %eax	# tmp98
.LBB36:
# /usr/include/c++/11/bits/basic_string.h:534:       : _M_dataplus(_M_local_data(), __a)
	.loc 10 534 9
	movq	-56(%rbp), %rbx	# this, _1
	movq	-56(%rbp), %rax	# this, tmp90
	movq	%rax, %rdi	# tmp90,
	call	_ZNSt7__cxx1112basic_stringIcSt11char_traitsIcESaIcEE13_M_local_dataEv	#
	movq	%rax, %rcx	#, _2
	movq	-72(%rbp), %rax	# __a, tmp91
	movq	%rax, %rdx	# tmp91,
	movq	%rcx, %rsi	# _2,
	movq	%rbx, %rdi	# _1,
	call	_ZNSt7__cxx1112basic_stringIcSt11char_traitsIcESaIcEE12_Alloc_hiderC1EPcRKS3_	#
.LBB37:
# /usr/include/c++/11/bits/basic_string.h:536: 	const _CharT* __end = __s ? __s + traits_type::length(__s)
	.loc 10 536 28
	cmpq	$0, -64(%rbp)	#, __s
	je	.L103	#,
# /usr/include/c++/11/bits/basic_string.h:536: 	const _CharT* __end = __s ? __s + traits_type::length(__s)
	.loc 10 536 55 discriminator 1
	movq	-64(%rbp), %rax	# __s, tmp92
	movq	%rax, %rdi	# tmp92,
.LEHB12:
	call	_ZNSt11char_traitsIcE6lengthEPKc	#
# /usr/include/c++/11/bits/basic_string.h:536: 	const _CharT* __end = __s ? __s + traits_type::length(__s)
	.loc 10 536 28 discriminator 1
	movq	-64(%rbp), %rdx	# __s, tmp93
	addq	%rdx, %rax	# tmp93, iftmp.55_6
	jmp	.L104	#
.L103:
# /usr/include/c++/11/bits/basic_string.h:536: 	const _CharT* __end = __s ? __s + traits_type::length(__s)
	.loc 10 536 28 is_stmt 0 discriminator 2
	movl	$1, %eax	#, iftmp.55_6
.L104:
# /usr/include/c++/11/bits/basic_string.h:536: 	const _CharT* __end = __s ? __s + traits_type::length(__s)
	.loc 10 536 16 is_stmt 1 discriminator 5
	movq	%rax, -32(%rbp)	# iftmp.55_6, __end
# /usr/include/c++/11/bits/basic_string.h:539: 	_M_construct(__s, __end, random_access_iterator_tag());
	.loc 10 539 14 discriminator 5
	movq	-32(%rbp), %rdx	# __end, tmp94
	movq	-64(%rbp), %rcx	# __s, tmp95
	movq	-56(%rbp), %rax	# this, tmp96
	movq	%rcx, %rsi	# tmp95,
	movq	%rax, %rdi	# tmp96,
	call	_ZNSt7__cxx1112basic_stringIcSt11char_traitsIcESaIcEE12_M_constructIPKcEEvT_S8_St20forward_iterator_tag	#
.LEHE12:
.LBE37:
.LBE36:
# /usr/include/c++/11/bits/basic_string.h:540:       }
	.loc 10 540 7
	jmp	.L108	#
.L107:
	endbr64	
.LBB38:
	movq	%rax, %rbx	#, tmp97
	movq	-56(%rbp), %rax	# this, _5
	movq	%rax, %rdi	# _5,
	call	_ZNSt7__cxx1112basic_stringIcSt11char_traitsIcESaIcEE12_Alloc_hiderD1Ev	#
	movq	%rbx, %rax	# tmp97, D.296608
	movq	%rax, %rdi	# D.296608,
.LEHB13:
	call	_Unwind_Resume@PLT	#
.LEHE13:
.L108:
.LBE38:
	movq	-24(%rbp), %rax	# D.296609, tmp99
	subq	%fs:40, %rax	# MEM[(<address-space-1> long unsigned int *)40B], tmp99
	je	.L106	#,
	call	__stack_chk_fail@PLT	#
.L106:
	movq	-8(%rbp), %rbx	#,
	leave	
	.cfi_def_cfa 7, 8
	ret	
	.cfi_endproc
.LFE12326:
	.section	.gcc_except_table
.LLSDA12326:
	.byte	0xff
	.byte	0xff
	.byte	0x1
	.uleb128 .LLSDACSE12326-.LLSDACSB12326
.LLSDACSB12326:
	.uleb128 .LEHB12-.LFB12326
	.uleb128 .LEHE12-.LEHB12
	.uleb128 .L107-.LFB12326
	.uleb128 0
	.uleb128 .LEHB13-.LFB12326
	.uleb128 .LEHE13-.LEHB13
	.uleb128 0
	.uleb128 0
.LLSDACSE12326:
	.section	.text._ZNSt7__cxx1112basic_stringIcSt11char_traitsIcESaIcEEC2IS3_EEPKcRKS3_,"axG",@progbits,_ZNSt7__cxx1112basic_stringIcSt11char_traitsIcESaIcEEC5IS3_EEPKcRKS3_,comdat
	.size	_ZNSt7__cxx1112basic_stringIcSt11char_traitsIcESaIcEEC2IS3_EEPKcRKS3_, .-_ZNSt7__cxx1112basic_stringIcSt11char_traitsIcESaIcEEC2IS3_EEPKcRKS3_
	.weak	_ZNSt7__cxx1112basic_stringIcSt11char_traitsIcESaIcEEC1IS3_EEPKcRKS3_
	.set	_ZNSt7__cxx1112basic_stringIcSt11char_traitsIcESaIcEEC1IS3_EEPKcRKS3_,_ZNSt7__cxx1112basic_stringIcSt11char_traitsIcESaIcEEC2IS3_EEPKcRKS3_
	.section	.text._ZNSt23mersenne_twister_engineImLm64ELm312ELm156ELm31ELm13043109905998158313ELm29ELm6148914691236517205ELm17ELm8202884508482404352ELm37ELm18444473444759240704ELm43ELm6364136223846793005EEC2Em,"axG",@progbits,_ZNSt23mersenne_twister_engineImLm64ELm312ELm156ELm31ELm13043109905998158313ELm29ELm6148914691236517205ELm17ELm8202884508482404352ELm37ELm18444473444759240704ELm43ELm6364136223846793005EEC5Em,comdat
	.align 2
	.weak	_ZNSt23mersenne_twister_engineImLm64ELm312ELm156ELm31ELm13043109905998158313ELm29ELm6148914691236517205ELm17ELm8202884508482404352ELm37ELm18444473444759240704ELm43ELm6364136223846793005EEC2Em
	.type	_ZNSt23mersenne_twister_engineImLm64ELm312ELm156ELm31ELm13043109905998158313ELm29ELm6148914691236517205ELm17ELm8202884508482404352ELm37ELm18444473444759240704ELm43ELm6364136223846793005EEC2Em, @function
_ZNSt23mersenne_twister_engineImLm64ELm312ELm156ELm31ELm13043109905998158313ELm29ELm6148914691236517205ELm17ELm8202884508482404352ELm37ELm18444473444759240704ELm43ELm6364136223846793005EEC2Em:
.LFB12434:
	.loc 6 530 7
	.cfi_startproc
	endbr64	
	pushq	%rbp	#
	.cfi_def_cfa_offset 16
	.cfi_offset 6, -16
	movq	%rsp, %rbp	#,
	.cfi_def_cfa_register 6
	subq	$16, %rsp	#,
	movq	%rdi, -8(%rbp)	# this, this
	movq	%rsi, -16(%rbp)	# __sd, __sd
.LBB39:
# /usr/include/c++/11/bits/random.h:531:       { seed(__sd); }
	.loc 6 531 13
	movq	-16(%rbp), %rdx	# __sd, tmp82
	movq	-8(%rbp), %rax	# this, tmp83
	movq	%rdx, %rsi	# tmp82,
	movq	%rax, %rdi	# tmp83,
	call	_ZNSt23mersenne_twister_engineImLm64ELm312ELm156ELm31ELm13043109905998158313ELm29ELm6148914691236517205ELm17ELm8202884508482404352ELm37ELm18444473444759240704ELm43ELm6364136223846793005EE4seedEm	#
.LBE39:
# /usr/include/c++/11/bits/random.h:531:       { seed(__sd); }
	.loc 6 531 21
	nop	
	leave	
	.cfi_def_cfa 7, 8
	ret	
	.cfi_endproc
.LFE12434:
	.size	_ZNSt23mersenne_twister_engineImLm64ELm312ELm156ELm31ELm13043109905998158313ELm29ELm6148914691236517205ELm17ELm8202884508482404352ELm37ELm18444473444759240704ELm43ELm6364136223846793005EEC2Em, .-_ZNSt23mersenne_twister_engineImLm64ELm312ELm156ELm31ELm13043109905998158313ELm29ELm6148914691236517205ELm17ELm8202884508482404352ELm37ELm18444473444759240704ELm43ELm6364136223846793005EEC2Em
	.weak	_ZNSt23mersenne_twister_engineImLm64ELm312ELm156ELm31ELm13043109905998158313ELm29ELm6148914691236517205ELm17ELm8202884508482404352ELm37ELm18444473444759240704ELm43ELm6364136223846793005EEC1Em
	.set	_ZNSt23mersenne_twister_engineImLm64ELm312ELm156ELm31ELm13043109905998158313ELm29ELm6148914691236517205ELm17ELm8202884508482404352ELm37ELm18444473444759240704ELm43ELm6364136223846793005EEC1Em,_ZNSt23mersenne_twister_engineImLm64ELm312ELm156ELm31ELm13043109905998158313ELm29ELm6148914691236517205ELm17ELm8202884508482404352ELm37ELm18444473444759240704ELm43ELm6364136223846793005EEC2Em
	.section	.text._ZNSt24uniform_int_distributionIxEC2Exx,"axG",@progbits,_ZNSt24uniform_int_distributionIxEC5Exx,comdat
	.align 2
	.weak	_ZNSt24uniform_int_distributionIxEC2Exx
	.type	_ZNSt24uniform_int_distributionIxEC2Exx, @function
_ZNSt24uniform_int_distributionIxEC2Exx:
.LFB12437:
	.file 12 "/usr/include/c++/11/bits/uniform_int_dist.h"
	.loc 12 131 7
	.cfi_startproc
	endbr64	
	pushq	%rbp	#
	.cfi_def_cfa_offset 16
	.cfi_offset 6, -16
	movq	%rsp, %rbp	#,
	.cfi_def_cfa_register 6
	subq	$32, %rsp	#,
	movq	%rdi, -8(%rbp)	# this, this
	movq	%rsi, -16(%rbp)	# __a, __a
	movq	%rdx, -24(%rbp)	# __b, __b
.LBB40:
# /usr/include/c++/11/bits/uniform_int_dist.h:134:       : _M_param(__a, __b)
	.loc 12 134 9
	movq	-8(%rbp), %rax	# this, _1
	movq	-24(%rbp), %rdx	# __b, tmp83
	movq	-16(%rbp), %rcx	# __a, tmp84
	movq	%rcx, %rsi	# tmp84,
	movq	%rax, %rdi	# _1,
	call	_ZNSt24uniform_int_distributionIxE10param_typeC1Exx	#
.LBE40:
# /usr/include/c++/11/bits/uniform_int_dist.h:135:       { }
	.loc 12 135 9
	nop	
	leave	
	.cfi_def_cfa 7, 8
	ret	
	.cfi_endproc
.LFE12437:
	.size	_ZNSt24uniform_int_distributionIxEC2Exx, .-_ZNSt24uniform_int_distributionIxEC2Exx
	.weak	_ZNSt24uniform_int_distributionIxEC1Exx
	.set	_ZNSt24uniform_int_distributionIxEC1Exx,_ZNSt24uniform_int_distributionIxEC2Exx
	.section	.text._ZNSt24uniform_int_distributionIxEclISt23mersenne_twister_engineImLm64ELm312ELm156ELm31ELm13043109905998158313ELm29ELm6148914691236517205ELm17ELm8202884508482404352ELm37ELm18444473444759240704ELm43ELm6364136223846793005EEEExRT_,"axG",@progbits,_ZNSt24uniform_int_distributionIxEclISt23mersenne_twister_engineImLm64ELm312ELm156ELm31ELm13043109905998158313ELm29ELm6148914691236517205ELm17ELm8202884508482404352ELm37ELm18444473444759240704ELm43ELm6364136223846793005EEEExRT_,comdat
	.align 2
	.weak	_ZNSt24uniform_int_distributionIxEclISt23mersenne_twister_engineImLm64ELm312ELm156ELm31ELm13043109905998158313ELm29ELm6148914691236517205ELm17ELm8202884508482404352ELm37ELm18444473444759240704ELm43ELm6364136223846793005EEEExRT_
	.type	_ZNSt24uniform_int_distributionIxEclISt23mersenne_twister_engineImLm64ELm312ELm156ELm31ELm13043109905998158313ELm29ELm6148914691236517205ELm17ELm8202884508482404352ELm37ELm18444473444759240704ELm43ELm6364136223846793005EEEExRT_, @function
_ZNSt24uniform_int_distributionIxEclISt23mersenne_twister_engineImLm64ELm312ELm156ELm31ELm13043109905998158313ELm29ELm6148914691236517205ELm17ELm8202884508482404352ELm37ELm18444473444759240704ELm43ELm6364136223846793005EEEExRT_:
.LFB12439:
	.loc 12 192 2
	.cfi_startproc
	endbr64	
	pushq	%rbp	#
	.cfi_def_cfa_offset 16
	.cfi_offset 6, -16
	movq	%rsp, %rbp	#,
	.cfi_def_cfa_register 6
	subq	$16, %rsp	#,
	movq	%rdi, -8(%rbp)	# this, this
	movq	%rsi, -16(%rbp)	# __urng, __urng
# /usr/include/c++/11/bits/uniform_int_dist.h:193:         { return this->operator()(__urng, _M_param); }
	.loc 12 193 43
	movq	-8(%rbp), %rdx	# this, _1
# /usr/include/c++/11/bits/uniform_int_dist.h:193:         { return this->operator()(__urng, _M_param); }
	.loc 12 193 34
	movq	-16(%rbp), %rcx	# __urng, tmp85
	movq	-8(%rbp), %rax	# this, tmp86
	movq	%rcx, %rsi	# tmp85,
	movq	%rax, %rdi	# tmp86,
	call	_ZNSt24uniform_int_distributionIxEclISt23mersenne_twister_engineImLm64ELm312ELm156ELm31ELm13043109905998158313ELm29ELm6148914691236517205ELm17ELm8202884508482404352ELm37ELm18444473444759240704ELm43ELm6364136223846793005EEEExRT_RKNS0_10param_typeE	#
# /usr/include/c++/11/bits/uniform_int_dist.h:193:         { return this->operator()(__urng, _M_param); }
	.loc 12 193 54
	leave	
	.cfi_def_cfa 7, 8
	ret	
	.cfi_endproc
.LFE12439:
	.size	_ZNSt24uniform_int_distributionIxEclISt23mersenne_twister_engineImLm64ELm312ELm156ELm31ELm13043109905998158313ELm29ELm6148914691236517205ELm17ELm8202884508482404352ELm37ELm18444473444759240704ELm43ELm6364136223846793005EEEExRT_, .-_ZNSt24uniform_int_distributionIxEclISt23mersenne_twister_engineImLm64ELm312ELm156ELm31ELm13043109905998158313ELm29ELm6148914691236517205ELm17ELm8202884508482404352ELm37ELm18444473444759240704ELm43ELm6364136223846793005EEEExRT_
	.section	.text._ZNSaISt6vectorIxSaIxEEEC2Ev,"axG",@progbits,_ZNSaISt6vectorIxSaIxEEEC5Ev,comdat
	.align 2
	.weak	_ZNSaISt6vectorIxSaIxEEEC2Ev
	.type	_ZNSaISt6vectorIxSaIxEEEC2Ev, @function
_ZNSaISt6vectorIxSaIxEEEC2Ev:
.LFB12441:
	.file 13 "/usr/include/c++/11/bits/allocator.h"
	.loc 13 156 7
	.cfi_startproc
	endbr64	
	pushq	%rbp	#
	.cfi_def_cfa_offset 16
	.cfi_offset 6, -16
	movq	%rsp, %rbp	#,
	.cfi_def_cfa_register 6
	subq	$16, %rsp	#,
	movq	%rdi, -8(%rbp)	# this, this
.LBB41:
# /usr/include/c++/11/bits/allocator.h:156:       allocator() _GLIBCXX_NOTHROW { }
	.loc 13 156 36
	movq	-8(%rbp), %rax	# this, tmp82
	movq	%rax, %rdi	# tmp82,
	call	_ZN9__gnu_cxx13new_allocatorISt6vectorIxSaIxEEEC2Ev	#
.LBE41:
# /usr/include/c++/11/bits/allocator.h:156:       allocator() _GLIBCXX_NOTHROW { }
	.loc 13 156 38
	nop	
	leave	
	.cfi_def_cfa 7, 8
	ret	
	.cfi_endproc
.LFE12441:
	.size	_ZNSaISt6vectorIxSaIxEEEC2Ev, .-_ZNSaISt6vectorIxSaIxEEEC2Ev
	.weak	_ZNSaISt6vectorIxSaIxEEEC1Ev
	.set	_ZNSaISt6vectorIxSaIxEEEC1Ev,_ZNSaISt6vectorIxSaIxEEEC2Ev
	.section	.text._ZNSaISt6vectorIxSaIxEEED2Ev,"axG",@progbits,_ZNSaISt6vectorIxSaIxEEED5Ev,comdat
	.align 2
	.weak	_ZNSaISt6vectorIxSaIxEEED2Ev
	.type	_ZNSaISt6vectorIxSaIxEEED2Ev, @function
_ZNSaISt6vectorIxSaIxEEED2Ev:
.LFB12444:
	.loc 13 174 7
	.cfi_startproc
	endbr64	
	pushq	%rbp	#
	.cfi_def_cfa_offset 16
	.cfi_offset 6, -16
	movq	%rsp, %rbp	#,
	.cfi_def_cfa_register 6
	movq	%rdi, -8(%rbp)	# this, this
# /usr/include/c++/11/bits/allocator.h:174:       ~allocator() _GLIBCXX_NOTHROW { }
	.loc 13 174 39
	nop	
	popq	%rbp	#
	.cfi_def_cfa 7, 8
	ret	
	.cfi_endproc
.LFE12444:
	.size	_ZNSaISt6vectorIxSaIxEEED2Ev, .-_ZNSaISt6vectorIxSaIxEEED2Ev
	.weak	_ZNSaISt6vectorIxSaIxEEED1Ev
	.set	_ZNSaISt6vectorIxSaIxEEED1Ev,_ZNSaISt6vectorIxSaIxEEED2Ev
	.section	.text._ZNSt6vectorIS_IxSaIxEESaIS1_EEC2EmRKS2_,"axG",@progbits,_ZNSt6vectorIS_IxSaIxEESaIS1_EEC5EmRKS2_,comdat
	.align 2
	.weak	_ZNSt6vectorIS_IxSaIxEESaIS1_EEC2EmRKS2_
	.type	_ZNSt6vectorIS_IxSaIxEESaIS1_EEC2EmRKS2_, @function
_ZNSt6vectorIS_IxSaIxEESaIS1_EEC2EmRKS2_:
.LFB12447:
	.loc 8 510 7
	.cfi_startproc
	.cfi_personality 0x9b,DW.ref.__gxx_personality_v0
	.cfi_lsda 0x1b,.LLSDA12447
	endbr64	
	pushq	%rbp	#
	.cfi_def_cfa_offset 16
	.cfi_offset 6, -16
	movq	%rsp, %rbp	#,
	.cfi_def_cfa_register 6
	pushq	%rbx	#
	subq	$40, %rsp	#,
	.cfi_offset 3, -24
	movq	%rdi, -24(%rbp)	# this, this
	movq	%rsi, -32(%rbp)	# __n, __n
	movq	%rdx, -40(%rbp)	# __a, __a
.LBB42:
# /usr/include/c++/11/bits/stl_vector.h:511:       : _Base(_S_check_init_len(__n, __a), __a)
	.loc 8 511 47
	movq	-24(%rbp), %rbx	# this, _1
	movq	-40(%rbp), %rdx	# __a, tmp86
	movq	-32(%rbp), %rax	# __n, tmp87
	movq	%rdx, %rsi	# tmp86,
	movq	%rax, %rdi	# tmp87,
.LEHB14:
	call	_ZNSt6vectorIS_IxSaIxEESaIS1_EE17_S_check_init_lenEmRKS2_	#
	movq	%rax, %rcx	#, _2
	movq	-40(%rbp), %rax	# __a, tmp88
	movq	%rax, %rdx	# tmp88,
	movq	%rcx, %rsi	# _2,
	movq	%rbx, %rdi	# _1,
	call	_ZNSt12_Vector_baseISt6vectorIxSaIxEESaIS2_EEC2EmRKS3_	#
.LEHE14:
# /usr/include/c++/11/bits/stl_vector.h:512:       { _M_default_initialize(__n); }
	.loc 8 512 30
	movq	-32(%rbp), %rdx	# __n, tmp89
	movq	-24(%rbp), %rax	# this, tmp90
	movq	%rdx, %rsi	# tmp89,
	movq	%rax, %rdi	# tmp90,
.LEHB15:
	call	_ZNSt6vectorIS_IxSaIxEESaIS1_EE21_M_default_initializeEm	#
.LEHE15:
.LBE42:
# /usr/include/c++/11/bits/stl_vector.h:512:       { _M_default_initialize(__n); }
	.loc 8 512 37
	jmp	.L118	#
.L117:
	endbr64	
.LBB43:
	movq	%rax, %rbx	#, tmp91
	movq	-24(%rbp), %rax	# this, _3
	movq	%rax, %rdi	# _3,
	call	_ZNSt12_Vector_baseISt6vectorIxSaIxEESaIS2_EED2Ev	#
	movq	%rbx, %rax	# tmp91, D.296610
	movq	%rax, %rdi	# D.296610,
.LEHB16:
	call	_Unwind_Resume@PLT	#
.LEHE16:
.L118:
.LBE43:
	movq	-8(%rbp), %rbx	#,
	leave	
	.cfi_def_cfa 7, 8
	ret	
	.cfi_endproc
.LFE12447:
	.section	.gcc_except_table
.LLSDA12447:
	.byte	0xff
	.byte	0xff
	.byte	0x1
	.uleb128 .LLSDACSE12447-.LLSDACSB12447
.LLSDACSB12447:
	.uleb128 .LEHB14-.LFB12447
	.uleb128 .LEHE14-.LEHB14
	.uleb128 0
	.uleb128 0
	.uleb128 .LEHB15-.LFB12447
	.uleb128 .LEHE15-.LEHB15
	.uleb128 .L117-.LFB12447
	.uleb128 0
	.uleb128 .LEHB16-.LFB12447
	.uleb128 .LEHE16-.LEHB16
	.uleb128 0
	.uleb128 0
.LLSDACSE12447:
	.section	.text._ZNSt6vectorIS_IxSaIxEESaIS1_EEC2EmRKS2_,"axG",@progbits,_ZNSt6vectorIS_IxSaIxEESaIS1_EEC5EmRKS2_,comdat
	.size	_ZNSt6vectorIS_IxSaIxEESaIS1_EEC2EmRKS2_, .-_ZNSt6vectorIS_IxSaIxEESaIS1_EEC2EmRKS2_
	.weak	_ZNSt6vectorIS_IxSaIxEESaIS1_EEC1EmRKS2_
	.set	_ZNSt6vectorIS_IxSaIxEESaIS1_EEC1EmRKS2_,_ZNSt6vectorIS_IxSaIxEESaIS1_EEC2EmRKS2_
	.section	.text._ZNSt6vectorIS_IxSaIxEESaIS1_EED2Ev,"axG",@progbits,_ZNSt6vectorIS_IxSaIxEESaIS1_EED5Ev,comdat
	.align 2
	.weak	_ZNSt6vectorIS_IxSaIxEESaIS1_EED2Ev
	.type	_ZNSt6vectorIS_IxSaIxEESaIS1_EED2Ev, @function
_ZNSt6vectorIS_IxSaIxEESaIS1_EED2Ev:
.LFB12450:
	.loc 8 678 7
	.cfi_startproc
	.cfi_personality 0x9b,DW.ref.__gxx_personality_v0
	.cfi_lsda 0x1b,.LLSDA12450
	endbr64	
	pushq	%rbp	#
	.cfi_def_cfa_offset 16
	.cfi_offset 6, -16
	movq	%rsp, %rbp	#,
	.cfi_def_cfa_register 6
	subq	$16, %rsp	#,
	movq	%rdi, -8(%rbp)	# this, this
.LBB44:
# /usr/include/c++/11/bits/stl_vector.h:681: 		      _M_get_Tp_allocator());
	.loc 8 681 28
	movq	-8(%rbp), %rax	# this, _1
	movq	%rax, %rdi	# _1,
	call	_ZNSt12_Vector_baseISt6vectorIxSaIxEESaIS2_EE19_M_get_Tp_allocatorEv	#
	movq	%rax, %rdx	#, _2
# /usr/include/c++/11/bits/stl_vector.h:680: 	std::_Destroy(this->_M_impl._M_start, this->_M_impl._M_finish,
	.loc 8 680 15
	movq	-8(%rbp), %rax	# this, tmp87
	movq	8(%rax), %rcx	# this_6(D)->D.260181._M_impl.D.259526._M_finish, _3
	movq	-8(%rbp), %rax	# this, tmp88
	movq	(%rax), %rax	# this_6(D)->D.260181._M_impl.D.259526._M_start, _4
	movq	%rcx, %rsi	# _3,
	movq	%rax, %rdi	# _4,
	call	_ZSt8_DestroyIPSt6vectorIxSaIxEES2_EvT_S4_RSaIT0_E	#
# /usr/include/c++/11/bits/stl_vector.h:683:       }
	.loc 8 683 7
	movq	-8(%rbp), %rax	# this, _5
	movq	%rax, %rdi	# _5,
	call	_ZNSt12_Vector_baseISt6vectorIxSaIxEESaIS2_EED2Ev	#
.LBE44:
	nop	
	leave	
	.cfi_def_cfa 7, 8
	ret	
	.cfi_endproc
.LFE12450:
	.section	.gcc_except_table
.LLSDA12450:
	.byte	0xff
	.byte	0xff
	.byte	0x1
	.uleb128 .LLSDACSE12450-.LLSDACSB12450
.LLSDACSB12450:
.LLSDACSE12450:
	.section	.text._ZNSt6vectorIS_IxSaIxEESaIS1_EED2Ev,"axG",@progbits,_ZNSt6vectorIS_IxSaIxEESaIS1_EED5Ev,comdat
	.size	_ZNSt6vectorIS_IxSaIxEESaIS1_EED2Ev, .-_ZNSt6vectorIS_IxSaIxEESaIS1_EED2Ev
	.weak	_ZNSt6vectorIS_IxSaIxEESaIS1_EED1Ev
	.set	_ZNSt6vectorIS_IxSaIxEESaIS1_EED1Ev,_ZNSt6vectorIS_IxSaIxEESaIS1_EED2Ev
	.section	.text._ZNSt6vectorIS_IxSaIxEESaIS1_EEixEm,"axG",@progbits,_ZNSt6vectorIS_IxSaIxEESaIS1_EEixEm,comdat
	.align 2
	.weak	_ZNSt6vectorIS_IxSaIxEESaIS1_EEixEm
	.type	_ZNSt6vectorIS_IxSaIxEESaIS1_EEixEm, @function
_ZNSt6vectorIS_IxSaIxEESaIS1_EEixEm:
.LFB12452:
	.loc 8 1043 7
	.cfi_startproc
	endbr64	
	pushq	%rbp	#
	.cfi_def_cfa_offset 16
	.cfi_offset 6, -16
	movq	%rsp, %rbp	#,
	.cfi_def_cfa_register 6
	movq	%rdi, -8(%rbp)	# this, this
	movq	%rsi, -16(%rbp)	# __n, __n
# /usr/include/c++/11/bits/stl_vector.h:1046: 	return *(this->_M_impl._M_start + __n);
	.loc 8 1046 25
	movq	-8(%rbp), %rax	# this, tmp86
	movq	(%rax), %rcx	# this_4(D)->D.260181._M_impl.D.259526._M_start, _1
# /usr/include/c++/11/bits/stl_vector.h:1046: 	return *(this->_M_impl._M_start + __n);
	.loc 8 1046 34
	movq	-16(%rbp), %rdx	# __n, tmp87
	movq	%rdx, %rax	# tmp87, tmp88
	addq	%rax, %rax	# tmp88
	addq	%rdx, %rax	# tmp87, tmp88
	salq	$3, %rax	#, tmp89
# /usr/include/c++/11/bits/stl_vector.h:1046: 	return *(this->_M_impl._M_start + __n);
	.loc 8 1046 39
	addq	%rcx, %rax	# _1, _6
# /usr/include/c++/11/bits/stl_vector.h:1047:       }
	.loc 8 1047 7
	popq	%rbp	#
	.cfi_def_cfa 7, 8
	ret	
	.cfi_endproc
.LFE12452:
	.size	_ZNSt6vectorIS_IxSaIxEESaIS1_EEixEm, .-_ZNSt6vectorIS_IxSaIxEESaIS1_EEixEm
	.section	.text._ZNSt6vectorIxSaIxEE9push_backERKx,"axG",@progbits,_ZNSt6vectorIxSaIxEE9push_backERKx,comdat
	.align 2
	.weak	_ZNSt6vectorIxSaIxEE9push_backERKx
	.type	_ZNSt6vectorIxSaIxEE9push_backERKx, @function
_ZNSt6vectorIxSaIxEE9push_backERKx:
.LFB12453:
	.loc 8 1187 7
	.cfi_startproc
	endbr64	
	pushq	%rbp	#
	.cfi_def_cfa_offset 16
	.cfi_offset 6, -16
	movq	%rsp, %rbp	#,
	.cfi_def_cfa_register 6
	subq	$16, %rsp	#,
	movq	%rdi, -8(%rbp)	# this, this
	movq	%rsi, -16(%rbp)	# __x, __x
# /usr/include/c++/11/bits/stl_vector.h:1189: 	if (this->_M_impl._M_finish != this->_M_impl._M_end_of_storage)
	.loc 8 1189 20
	movq	-8(%rbp), %rax	# this, tmp89
	movq	8(%rax), %rdx	# this_9(D)->D.261229._M_impl.D.260584._M_finish, _1
# /usr/include/c++/11/bits/stl_vector.h:1189: 	if (this->_M_impl._M_finish != this->_M_impl._M_end_of_storage)
	.loc 8 1189 47
	movq	-8(%rbp), %rax	# this, tmp90
	movq	16(%rax), %rax	# this_9(D)->D.261229._M_impl.D.260584._M_end_of_storage, _2
# /usr/include/c++/11/bits/stl_vector.h:1189: 	if (this->_M_impl._M_finish != this->_M_impl._M_end_of_storage)
	.loc 8 1189 2
	cmpq	%rax, %rdx	# _2, _1
	je	.L123	#,
# /usr/include/c++/11/bits/stl_vector.h:1192: 	    _Alloc_traits::construct(this->_M_impl, this->_M_impl._M_finish,
	.loc 8 1192 30
	movq	-8(%rbp), %rax	# this, tmp91
	movq	8(%rax), %rcx	# this_9(D)->D.261229._M_impl.D.260584._M_finish, _3
# /usr/include/c++/11/bits/stl_vector.h:1192: 	    _Alloc_traits::construct(this->_M_impl, this->_M_impl._M_finish,
	.loc 8 1192 37
	movq	-8(%rbp), %rax	# this, _4
# /usr/include/c++/11/bits/stl_vector.h:1192: 	    _Alloc_traits::construct(this->_M_impl, this->_M_impl._M_finish,
	.loc 8 1192 30
	movq	-16(%rbp), %rdx	# __x, tmp92
	movq	%rcx, %rsi	# _3,
	movq	%rax, %rdi	# _4,
	call	_ZNSt16allocator_traitsISaIxEE9constructIxJRKxEEEvRS0_PT_DpOT0_	#
# /usr/include/c++/11/bits/stl_vector.h:1194: 	    ++this->_M_impl._M_finish;
	.loc 8 1194 22
	movq	-8(%rbp), %rax	# this, tmp93
	movq	8(%rax), %rax	# this_9(D)->D.261229._M_impl.D.260584._M_finish, _5
# /usr/include/c++/11/bits/stl_vector.h:1194: 	    ++this->_M_impl._M_finish;
	.loc 8 1194 6
	leaq	8(%rax), %rdx	#, _6
	movq	-8(%rbp), %rax	# this, tmp94
	movq	%rdx, 8(%rax)	# _6, this_9(D)->D.261229._M_impl.D.260584._M_finish
# /usr/include/c++/11/bits/stl_vector.h:1199:       }
	.loc 8 1199 7
	jmp	.L125	#
.L123:
# /usr/include/c++/11/bits/stl_vector.h:1198: 	  _M_realloc_insert(end(), __x);
	.loc 8 1198 21
	movq	-8(%rbp), %rax	# this, tmp95
	movq	%rax, %rdi	# tmp95,
	call	_ZNSt6vectorIxSaIxEE3endEv	#
	movq	%rax, %rcx	#, D.295655
	movq	-16(%rbp), %rdx	# __x, tmp96
	movq	-8(%rbp), %rax	# this, tmp97
	movq	%rcx, %rsi	# D.295655,
	movq	%rax, %rdi	# tmp97,
	call	_ZNSt6vectorIxSaIxEE17_M_realloc_insertIJRKxEEEvN9__gnu_cxx17__normal_iteratorIPxS1_EEDpOT_	#
.L125:
# /usr/include/c++/11/bits/stl_vector.h:1199:       }
	.loc 8 1199 7
	nop	
	leave	
	.cfi_def_cfa 7, 8
	ret	
	.cfi_endproc
.LFE12453:
	.size	_ZNSt6vectorIxSaIxEE9push_backERKx, .-_ZNSt6vectorIxSaIxEE9push_backERKx
	.section	.text._ZNSaIxEC2Ev,"axG",@progbits,_ZNSaIxEC5Ev,comdat
	.align 2
	.weak	_ZNSaIxEC2Ev
	.type	_ZNSaIxEC2Ev, @function
_ZNSaIxEC2Ev:
.LFB12456:
	.loc 13 156 7
	.cfi_startproc
	endbr64	
	pushq	%rbp	#
	.cfi_def_cfa_offset 16
	.cfi_offset 6, -16
	movq	%rsp, %rbp	#,
	.cfi_def_cfa_register 6
	subq	$16, %rsp	#,
	movq	%rdi, -8(%rbp)	# this, this
.LBB45:
# /usr/include/c++/11/bits/allocator.h:156:       allocator() _GLIBCXX_NOTHROW { }
	.loc 13 156 36
	movq	-8(%rbp), %rax	# this, tmp82
	movq	%rax, %rdi	# tmp82,
	call	_ZN9__gnu_cxx13new_allocatorIxEC2Ev	#
.LBE45:
# /usr/include/c++/11/bits/allocator.h:156:       allocator() _GLIBCXX_NOTHROW { }
	.loc 13 156 38
	nop	
	leave	
	.cfi_def_cfa 7, 8
	ret	
	.cfi_endproc
.LFE12456:
	.size	_ZNSaIxEC2Ev, .-_ZNSaIxEC2Ev
	.weak	_ZNSaIxEC1Ev
	.set	_ZNSaIxEC1Ev,_ZNSaIxEC2Ev
	.section	.text._ZNSaIxED2Ev,"axG",@progbits,_ZNSaIxED5Ev,comdat
	.align 2
	.weak	_ZNSaIxED2Ev
	.type	_ZNSaIxED2Ev, @function
_ZNSaIxED2Ev:
.LFB12459:
	.loc 13 174 7
	.cfi_startproc
	endbr64	
	pushq	%rbp	#
	.cfi_def_cfa_offset 16
	.cfi_offset 6, -16
	movq	%rsp, %rbp	#,
	.cfi_def_cfa_register 6
	movq	%rdi, -8(%rbp)	# this, this
# /usr/include/c++/11/bits/allocator.h:174:       ~allocator() _GLIBCXX_NOTHROW { }
	.loc 13 174 39
	nop	
	popq	%rbp	#
	.cfi_def_cfa 7, 8
	ret	
	.cfi_endproc
.LFE12459:
	.size	_ZNSaIxED2Ev, .-_ZNSaIxED2Ev
	.weak	_ZNSaIxED1Ev
	.set	_ZNSaIxED1Ev,_ZNSaIxED2Ev
	.section	.text._ZNSt6vectorIxSaIxEEC2EmRKxRKS0_,"axG",@progbits,_ZNSt6vectorIxSaIxEEC5EmRKxRKS0_,comdat
	.align 2
	.weak	_ZNSt6vectorIxSaIxEEC2EmRKxRKS0_
	.type	_ZNSt6vectorIxSaIxEEC2EmRKxRKS0_, @function
_ZNSt6vectorIxSaIxEEC2EmRKxRKS0_:
.LFB12462:
	.loc 8 522 7
	.cfi_startproc
	.cfi_personality 0x9b,DW.ref.__gxx_personality_v0
	.cfi_lsda 0x1b,.LLSDA12462
	endbr64	
	pushq	%rbp	#
	.cfi_def_cfa_offset 16
	.cfi_offset 6, -16
	movq	%rsp, %rbp	#,
	.cfi_def_cfa_register 6
	pushq	%rbx	#
	subq	$40, %rsp	#,
	.cfi_offset 3, -24
	movq	%rdi, -24(%rbp)	# this, this
	movq	%rsi, -32(%rbp)	# __n, __n
	movq	%rdx, -40(%rbp)	# __value, __value
	movq	%rcx, -48(%rbp)	# __a, __a
.LBB46:
# /usr/include/c++/11/bits/stl_vector.h:524:       : _Base(_S_check_init_len(__n, __a), __a)
	.loc 8 524 47
	movq	-24(%rbp), %rbx	# this, _1
	movq	-48(%rbp), %rdx	# __a, tmp86
	movq	-32(%rbp), %rax	# __n, tmp87
	movq	%rdx, %rsi	# tmp86,
	movq	%rax, %rdi	# tmp87,
.LEHB17:
	call	_ZNSt6vectorIxSaIxEE17_S_check_init_lenEmRKS0_	#
	movq	%rax, %rcx	#, _2
	movq	-48(%rbp), %rax	# __a, tmp88
	movq	%rax, %rdx	# tmp88,
	movq	%rcx, %rsi	# _2,
	movq	%rbx, %rdi	# _1,
	call	_ZNSt12_Vector_baseIxSaIxEEC2EmRKS0_	#
.LEHE17:
# /usr/include/c++/11/bits/stl_vector.h:525:       { _M_fill_initialize(__n, __value); }
	.loc 8 525 27
	movq	-40(%rbp), %rdx	# __value, tmp89
	movq	-32(%rbp), %rcx	# __n, tmp90
	movq	-24(%rbp), %rax	# this, tmp91
	movq	%rcx, %rsi	# tmp90,
	movq	%rax, %rdi	# tmp91,
.LEHB18:
	call	_ZNSt6vectorIxSaIxEE18_M_fill_initializeEmRKx	#
.LEHE18:
.LBE46:
# /usr/include/c++/11/bits/stl_vector.h:525:       { _M_fill_initialize(__n, __value); }
	.loc 8 525 43
	jmp	.L131	#
.L130:
	endbr64	
.LBB47:
	movq	%rax, %rbx	#, tmp92
	movq	-24(%rbp), %rax	# this, _3
	movq	%rax, %rdi	# _3,
	call	_ZNSt12_Vector_baseIxSaIxEED2Ev	#
	movq	%rbx, %rax	# tmp92, D.296611
	movq	%rax, %rdi	# D.296611,
.LEHB19:
	call	_Unwind_Resume@PLT	#
.LEHE19:
.L131:
.LBE47:
	movq	-8(%rbp), %rbx	#,
	leave	
	.cfi_def_cfa 7, 8
	ret	
	.cfi_endproc
.LFE12462:
	.section	.gcc_except_table
.LLSDA12462:
	.byte	0xff
	.byte	0xff
	.byte	0x1
	.uleb128 .LLSDACSE12462-.LLSDACSB12462
.LLSDACSB12462:
	.uleb128 .LEHB17-.LFB12462
	.uleb128 .LEHE17-.LEHB17
	.uleb128 0
	.uleb128 0
	.uleb128 .LEHB18-.LFB12462
	.uleb128 .LEHE18-.LEHB18
	.uleb128 .L130-.LFB12462
	.uleb128 0
	.uleb128 .LEHB19-.LFB12462
	.uleb128 .LEHE19-.LEHB19
	.uleb128 0
	.uleb128 0
.LLSDACSE12462:
	.section	.text._ZNSt6vectorIxSaIxEEC2EmRKxRKS0_,"axG",@progbits,_ZNSt6vectorIxSaIxEEC5EmRKxRKS0_,comdat
	.size	_ZNSt6vectorIxSaIxEEC2EmRKxRKS0_, .-_ZNSt6vectorIxSaIxEEC2EmRKxRKS0_
	.weak	_ZNSt6vectorIxSaIxEEC1EmRKxRKS0_
	.set	_ZNSt6vectorIxSaIxEEC1EmRKxRKS0_,_ZNSt6vectorIxSaIxEEC2EmRKxRKS0_
	.section	.text._ZNSt6vectorIxSaIxEED2Ev,"axG",@progbits,_ZNSt6vectorIxSaIxEED5Ev,comdat
	.align 2
	.weak	_ZNSt6vectorIxSaIxEED2Ev
	.type	_ZNSt6vectorIxSaIxEED2Ev, @function
_ZNSt6vectorIxSaIxEED2Ev:
.LFB12465:
	.loc 8 678 7
	.cfi_startproc
	.cfi_personality 0x9b,DW.ref.__gxx_personality_v0
	.cfi_lsda 0x1b,.LLSDA12465
	endbr64	
	pushq	%rbp	#
	.cfi_def_cfa_offset 16
	.cfi_offset 6, -16
	movq	%rsp, %rbp	#,
	.cfi_def_cfa_register 6
	subq	$16, %rsp	#,
	movq	%rdi, -8(%rbp)	# this, this
.LBB48:
# /usr/include/c++/11/bits/stl_vector.h:681: 		      _M_get_Tp_allocator());
	.loc 8 681 28
	movq	-8(%rbp), %rax	# this, _1
	movq	%rax, %rdi	# _1,
	call	_ZNSt12_Vector_baseIxSaIxEE19_M_get_Tp_allocatorEv	#
	movq	%rax, %rdx	#, _2
# /usr/include/c++/11/bits/stl_vector.h:680: 	std::_Destroy(this->_M_impl._M_start, this->_M_impl._M_finish,
	.loc 8 680 15
	movq	-8(%rbp), %rax	# this, tmp87
	movq	8(%rax), %rcx	# this_6(D)->D.261229._M_impl.D.260584._M_finish, _3
	movq	-8(%rbp), %rax	# this, tmp88
	movq	(%rax), %rax	# this_6(D)->D.261229._M_impl.D.260584._M_start, _4
	movq	%rcx, %rsi	# _3,
	movq	%rax, %rdi	# _4,
	call	_ZSt8_DestroyIPxxEvT_S1_RSaIT0_E	#
# /usr/include/c++/11/bits/stl_vector.h:683:       }
	.loc 8 683 7
	movq	-8(%rbp), %rax	# this, _5
	movq	%rax, %rdi	# _5,
	call	_ZNSt12_Vector_baseIxSaIxEED2Ev	#
.LBE48:
	nop	
	leave	
	.cfi_def_cfa 7, 8
	ret	
	.cfi_endproc
.LFE12465:
	.section	.gcc_except_table
.LLSDA12465:
	.byte	0xff
	.byte	0xff
	.byte	0x1
	.uleb128 .LLSDACSE12465-.LLSDACSB12465
.LLSDACSB12465:
.LLSDACSE12465:
	.section	.text._ZNSt6vectorIxSaIxEED2Ev,"axG",@progbits,_ZNSt6vectorIxSaIxEED5Ev,comdat
	.size	_ZNSt6vectorIxSaIxEED2Ev, .-_ZNSt6vectorIxSaIxEED2Ev
	.weak	_ZNSt6vectorIxSaIxEED1Ev
	.set	_ZNSt6vectorIxSaIxEED1Ev,_ZNSt6vectorIxSaIxEED2Ev
	.section	.text._ZNSt12_Vector_baseISt5tupleIJxxxEESaIS1_EE12_Vector_implC2Ev,"axG",@progbits,_ZNSt12_Vector_baseISt5tupleIJxxxEESaIS1_EE12_Vector_implC5Ev,comdat
	.align 2
	.weak	_ZNSt12_Vector_baseISt5tupleIJxxxEESaIS1_EE12_Vector_implC2Ev
	.type	_ZNSt12_Vector_baseISt5tupleIJxxxEESaIS1_EE12_Vector_implC2Ev, @function
_ZNSt12_Vector_baseISt5tupleIJxxxEESaIS1_EE12_Vector_implC2Ev:
.LFB12468:
	.loc 8 131 2
	.cfi_startproc
	endbr64	
	pushq	%rbp	#
	.cfi_def_cfa_offset 16
	.cfi_offset 6, -16
	movq	%rsp, %rbp	#,
	.cfi_def_cfa_register 6
	subq	$16, %rsp	#,
	movq	%rdi, -8(%rbp)	# this, this
.LBB49:
# /usr/include/c++/11/bits/stl_vector.h:133: 	: _Tp_alloc_type()
	.loc 8 133 19
	movq	-8(%rbp), %rax	# this, tmp83
	movq	%rax, %rdi	# tmp83,
	call	_ZNSaISt5tupleIJxxxEEEC2Ev	#
	movq	-8(%rbp), %rax	# this, _1
	movq	%rax, %rdi	# _1,
	call	_ZNSt12_Vector_baseISt5tupleIJxxxEESaIS1_EE17_Vector_impl_dataC2Ev	#
.LBE49:
# /usr/include/c++/11/bits/stl_vector.h:134: 	{ }
	.loc 8 134 4
	nop	
	leave	
	.cfi_def_cfa 7, 8
	ret	
	.cfi_endproc
.LFE12468:
	.size	_ZNSt12_Vector_baseISt5tupleIJxxxEESaIS1_EE12_Vector_implC2Ev, .-_ZNSt12_Vector_baseISt5tupleIJxxxEESaIS1_EE12_Vector_implC2Ev
	.weak	_ZNSt12_Vector_baseISt5tupleIJxxxEESaIS1_EE12_Vector_implC1Ev
	.set	_ZNSt12_Vector_baseISt5tupleIJxxxEESaIS1_EE12_Vector_implC1Ev,_ZNSt12_Vector_baseISt5tupleIJxxxEESaIS1_EE12_Vector_implC2Ev
	.section	.text._ZNSaISt5tupleIJxxxEEED2Ev,"axG",@progbits,_ZNSaISt5tupleIJxxxEEED5Ev,comdat
	.align 2
	.weak	_ZNSaISt5tupleIJxxxEEED2Ev
	.type	_ZNSaISt5tupleIJxxxEEED2Ev, @function
_ZNSaISt5tupleIJxxxEEED2Ev:
.LFB12471:
	.loc 13 174 7
	.cfi_startproc
	endbr64	
	pushq	%rbp	#
	.cfi_def_cfa_offset 16
	.cfi_offset 6, -16
	movq	%rsp, %rbp	#,
	.cfi_def_cfa_register 6
	movq	%rdi, -8(%rbp)	# this, this
# /usr/include/c++/11/bits/allocator.h:174:       ~allocator() _GLIBCXX_NOTHROW { }
	.loc 13 174 39
	nop	
	popq	%rbp	#
	.cfi_def_cfa 7, 8
	ret	
	.cfi_endproc
.LFE12471:
	.size	_ZNSaISt5tupleIJxxxEEED2Ev, .-_ZNSaISt5tupleIJxxxEEED2Ev
	.weak	_ZNSaISt5tupleIJxxxEEED1Ev
	.set	_ZNSaISt5tupleIJxxxEEED1Ev,_ZNSaISt5tupleIJxxxEEED2Ev
	.section	.text._ZNSt12_Vector_baseISt5tupleIJxxxEESaIS1_EED2Ev,"axG",@progbits,_ZNSt12_Vector_baseISt5tupleIJxxxEESaIS1_EED5Ev,comdat
	.align 2
	.weak	_ZNSt12_Vector_baseISt5tupleIJxxxEESaIS1_EED2Ev
	.type	_ZNSt12_Vector_baseISt5tupleIJxxxEESaIS1_EED2Ev, @function
_ZNSt12_Vector_baseISt5tupleIJxxxEESaIS1_EED2Ev:
.LFB12474:
	.loc 8 333 7
	.cfi_startproc
	.cfi_personality 0x9b,DW.ref.__gxx_personality_v0
	.cfi_lsda 0x1b,.LLSDA12474
	endbr64	
	pushq	%rbp	#
	.cfi_def_cfa_offset 16
	.cfi_offset 6, -16
	movq	%rsp, %rbp	#,
	.cfi_def_cfa_register 6
	subq	$16, %rsp	#,
	movq	%rdi, -8(%rbp)	# this, this
.LBB50:
# /usr/include/c++/11/bits/stl_vector.h:336: 		      _M_impl._M_end_of_storage - _M_impl._M_start);
	.loc 8 336 17
	movq	-8(%rbp), %rax	# this, tmp89
	movq	16(%rax), %rdx	# this_9(D)->_M_impl.D.261709._M_end_of_storage, _1
# /usr/include/c++/11/bits/stl_vector.h:336: 		      _M_impl._M_end_of_storage - _M_impl._M_start);
	.loc 8 336 45
	movq	-8(%rbp), %rax	# this, tmp90
	movq	(%rax), %rcx	# this_9(D)->_M_impl.D.261709._M_start, _2
# /usr/include/c++/11/bits/stl_vector.h:336: 		      _M_impl._M_end_of_storage - _M_impl._M_start);
	.loc 8 336 35
	movq	%rdx, %rax	# _1, _1
	subq	%rcx, %rax	# _2, _1
	sarq	$3, %rax	#, _3
	movq	%rax, %rdx	# _3, tmp91
	movabsq	$-6148914691236517205, %rax	#, tmp93
	imulq	%rdx, %rax	# tmp91, tmp92
# /usr/include/c++/11/bits/stl_vector.h:335: 	_M_deallocate(_M_impl._M_start,
	.loc 8 335 15
	movq	%rax, %rdx	# _4, _5
	movq	-8(%rbp), %rax	# this, tmp94
	movq	(%rax), %rcx	# this_9(D)->_M_impl.D.261709._M_start, _6
	movq	-8(%rbp), %rax	# this, tmp95
	movq	%rcx, %rsi	# _6,
	movq	%rax, %rdi	# tmp95,
	call	_ZNSt12_Vector_baseISt5tupleIJxxxEESaIS1_EE13_M_deallocateEPS1_m	#
# /usr/include/c++/11/bits/stl_vector.h:337:       }
	.loc 8 337 7
	movq	-8(%rbp), %rax	# this, _7
	movq	%rax, %rdi	# _7,
	call	_ZNSt12_Vector_baseISt5tupleIJxxxEESaIS1_EE12_Vector_implD1Ev	#
.LBE50:
	nop	
	leave	
	.cfi_def_cfa 7, 8
	ret	
	.cfi_endproc
.LFE12474:
	.section	.gcc_except_table
.LLSDA12474:
	.byte	0xff
	.byte	0xff
	.byte	0x1
	.uleb128 .LLSDACSE12474-.LLSDACSB12474
.LLSDACSB12474:
.LLSDACSE12474:
	.section	.text._ZNSt12_Vector_baseISt5tupleIJxxxEESaIS1_EED2Ev,"axG",@progbits,_ZNSt12_Vector_baseISt5tupleIJxxxEESaIS1_EED5Ev,comdat
	.size	_ZNSt12_Vector_baseISt5tupleIJxxxEESaIS1_EED2Ev, .-_ZNSt12_Vector_baseISt5tupleIJxxxEESaIS1_EED2Ev
	.weak	_ZNSt12_Vector_baseISt5tupleIJxxxEESaIS1_EED1Ev
	.set	_ZNSt12_Vector_baseISt5tupleIJxxxEESaIS1_EED1Ev,_ZNSt12_Vector_baseISt5tupleIJxxxEESaIS1_EED2Ev
	.section	.text._ZNSt6vectorISt5tupleIJxxxEESaIS1_EED2Ev,"axG",@progbits,_ZNSt6vectorISt5tupleIJxxxEESaIS1_EED5Ev,comdat
	.align 2
	.weak	_ZNSt6vectorISt5tupleIJxxxEESaIS1_EED2Ev
	.type	_ZNSt6vectorISt5tupleIJxxxEESaIS1_EED2Ev, @function
_ZNSt6vectorISt5tupleIJxxxEESaIS1_EED2Ev:
.LFB12477:
	.loc 8 678 7
	.cfi_startproc
	.cfi_personality 0x9b,DW.ref.__gxx_personality_v0
	.cfi_lsda 0x1b,.LLSDA12477
	endbr64	
	pushq	%rbp	#
	.cfi_def_cfa_offset 16
	.cfi_offset 6, -16
	movq	%rsp, %rbp	#,
	.cfi_def_cfa_register 6
	subq	$16, %rsp	#,
	movq	%rdi, -8(%rbp)	# this, this
.LBB51:
# /usr/include/c++/11/bits/stl_vector.h:681: 		      _M_get_Tp_allocator());
	.loc 8 681 28
	movq	-8(%rbp), %rax	# this, _1
	movq	%rax, %rdi	# _1,
	call	_ZNSt12_Vector_baseISt5tupleIJxxxEESaIS1_EE19_M_get_Tp_allocatorEv	#
	movq	%rax, %rdx	#, _2
# /usr/include/c++/11/bits/stl_vector.h:680: 	std::_Destroy(this->_M_impl._M_start, this->_M_impl._M_finish,
	.loc 8 680 15
	movq	-8(%rbp), %rax	# this, tmp87
	movq	8(%rax), %rcx	# this_6(D)->D.262364._M_impl.D.261709._M_finish, _3
	movq	-8(%rbp), %rax	# this, tmp88
	movq	(%rax), %rax	# this_6(D)->D.262364._M_impl.D.261709._M_start, _4
	movq	%rcx, %rsi	# _3,
	movq	%rax, %rdi	# _4,
	call	_ZSt8_DestroyIPSt5tupleIJxxxEES1_EvT_S3_RSaIT0_E	#
# /usr/include/c++/11/bits/stl_vector.h:683:       }
	.loc 8 683 7
	movq	-8(%rbp), %rax	# this, _5
	movq	%rax, %rdi	# _5,
	call	_ZNSt12_Vector_baseISt5tupleIJxxxEESaIS1_EED2Ev	#
.LBE51:
	nop	
	leave	
	.cfi_def_cfa 7, 8
	ret	
	.cfi_endproc
.LFE12477:
	.section	.gcc_except_table
.LLSDA12477:
	.byte	0xff
	.byte	0xff
	.byte	0x1
	.uleb128 .LLSDACSE12477-.LLSDACSB12477
.LLSDACSB12477:
.LLSDACSE12477:
	.section	.text._ZNSt6vectorISt5tupleIJxxxEESaIS1_EED2Ev,"axG",@progbits,_ZNSt6vectorISt5tupleIJxxxEESaIS1_EED5Ev,comdat
	.size	_ZNSt6vectorISt5tupleIJxxxEESaIS1_EED2Ev, .-_ZNSt6vectorISt5tupleIJxxxEESaIS1_EED2Ev
	.weak	_ZNSt6vectorISt5tupleIJxxxEESaIS1_EED1Ev
	.set	_ZNSt6vectorISt5tupleIJxxxEESaIS1_EED1Ev,_ZNSt6vectorISt5tupleIJxxxEESaIS1_EED2Ev
	.section	.rodata
.LC6:
	.string	"vector::reserve"
	.section	.text._ZNSt6vectorISt5tupleIJxxxEESaIS1_EE7reserveEm,"axG",@progbits,_ZNSt6vectorISt5tupleIJxxxEESaIS1_EE7reserveEm,comdat
	.align 2
	.weak	_ZNSt6vectorISt5tupleIJxxxEESaIS1_EE7reserveEm
	.type	_ZNSt6vectorISt5tupleIJxxxEESaIS1_EE7reserveEm, @function
_ZNSt6vectorISt5tupleIJxxxEESaIS1_EE7reserveEm:
.LFB12479:
	.file 14 "/usr/include/c++/11/bits/vector.tcc"
	.loc 14 66 5
	.cfi_startproc
	endbr64	
	pushq	%rbp	#
	.cfi_def_cfa_offset 16
	.cfi_offset 6, -16
	movq	%rsp, %rbp	#,
	.cfi_def_cfa_register 6
	subq	$32, %rsp	#,
	movq	%rdi, -24(%rbp)	# this, this
	movq	%rsi, -32(%rbp)	# __n, __n
# /usr/include/c++/11/bits/vector.tcc:69:       if (__n > this->max_size())
	.loc 14 69 31
	movq	-24(%rbp), %rax	# this, tmp104
	movq	%rax, %rdi	# tmp104,
	call	_ZNKSt6vectorISt5tupleIJxxxEESaIS1_EE8max_sizeEv	#
# /usr/include/c++/11/bits/vector.tcc:69:       if (__n > this->max_size())
	.loc 14 69 15
	cmpq	%rax, -32(%rbp)	# _1, __n
	seta	%al	#, retval.38_25
# /usr/include/c++/11/bits/vector.tcc:69:       if (__n > this->max_size())
	.loc 14 69 7
	testb	%al, %al	# retval.38_25
	je	.L138	#,
# /usr/include/c++/11/bits/vector.tcc:70: 	__throw_length_error(__N("vector::reserve"));
	.loc 14 70 22
	leaq	.LC6(%rip), %rax	#, tmp105
	movq	%rax, %rdi	# tmp105,
	call	_ZSt20__throw_length_errorPKc@PLT	#
.L138:
.LBB52:
# /usr/include/c++/11/bits/vector.tcc:71:       if (this->capacity() < __n)
	.loc 14 71 25
	movq	-24(%rbp), %rax	# this, tmp106
	movq	%rax, %rdi	# tmp106,
	call	_ZNKSt6vectorISt5tupleIJxxxEESaIS1_EE8capacityEv	#
# /usr/include/c++/11/bits/vector.tcc:71:       if (this->capacity() < __n)
	.loc 14 71 28
	cmpq	%rax, -32(%rbp)	# _2, __n
	seta	%al	#, retval.39_27
# /usr/include/c++/11/bits/vector.tcc:71:       if (this->capacity() < __n)
	.loc 14 71 7
	testb	%al, %al	# retval.39_27
	je	.L140	#,
.LBB53:
# /usr/include/c++/11/bits/vector.tcc:73: 	  const size_type __old_size = size();
	.loc 14 73 37
	movq	-24(%rbp), %rax	# this, tmp107
	movq	%rax, %rdi	# tmp107,
	call	_ZNKSt6vectorISt5tupleIJxxxEESaIS1_EE4sizeEv	#
	movq	%rax, -16(%rbp)	# tmp108, __old_size
# /usr/include/c++/11/bits/vector.tcc:78: 	      __tmp = this->_M_allocate(__n);
	.loc 14 78 33
	movq	-24(%rbp), %rax	# this, _3
	movq	-32(%rbp), %rdx	# __n, tmp109
	movq	%rdx, %rsi	# tmp109,
	movq	%rax, %rdi	# _3,
	call	_ZNSt12_Vector_baseISt5tupleIJxxxEESaIS1_EE11_M_allocateEm	#
	movq	%rax, -8(%rbp)	# _31, __tmp
# /usr/include/c++/11/bits/vector.tcc:80: 			  __tmp, _M_get_Tp_allocator());
	.loc 14 80 32
	movq	-24(%rbp), %rax	# this, _4
	movq	%rax, %rdi	# _4,
	call	_ZNSt12_Vector_baseISt5tupleIJxxxEESaIS1_EE19_M_get_Tp_allocatorEv	#
	movq	%rax, %rcx	#, _5
# /usr/include/c++/11/bits/vector.tcc:79: 	      _S_relocate(this->_M_impl._M_start, this->_M_impl._M_finish,
	.loc 14 79 19
	movq	-24(%rbp), %rax	# this, tmp110
	movq	8(%rax), %rsi	# this_22(D)->D.262364._M_impl.D.261709._M_finish, _6
	movq	-24(%rbp), %rax	# this, tmp111
	movq	(%rax), %rax	# this_22(D)->D.262364._M_impl.D.261709._M_start, _7
	movq	-8(%rbp), %rdx	# __tmp, tmp112
	movq	%rax, %rdi	# _7,
	call	_ZNSt6vectorISt5tupleIJxxxEESaIS1_EE11_S_relocateEPS1_S4_S4_RS2_	#
# /usr/include/c++/11/bits/vector.tcc:92: 	  _M_deallocate(this->_M_impl._M_start,
	.loc 14 92 17
	movq	-24(%rbp), %rax	# this, _8
# /usr/include/c++/11/bits/vector.tcc:93: 			this->_M_impl._M_end_of_storage
	.loc 14 93 18
	movq	-24(%rbp), %rdx	# this, tmp113
	movq	16(%rdx), %rcx	# this_22(D)->D.262364._M_impl.D.261709._M_end_of_storage, _9
# /usr/include/c++/11/bits/vector.tcc:94: 			- this->_M_impl._M_start);
	.loc 14 94 20
	movq	-24(%rbp), %rdx	# this, tmp114
	movq	(%rdx), %rsi	# this_22(D)->D.262364._M_impl.D.261709._M_start, _10
# /usr/include/c++/11/bits/vector.tcc:94: 			- this->_M_impl._M_start);
	.loc 14 94 4
	subq	%rsi, %rcx	# _10, _9
	movq	%rcx, %rdx	# _9, _11
	movq	%rdx, %rcx	# _11, _11
	sarq	$3, %rcx	#, _11
	movabsq	$-6148914691236517205, %rdx	#, tmp117
	imulq	%rcx, %rdx	# tmp115, tmp116
# /usr/include/c++/11/bits/vector.tcc:92: 	  _M_deallocate(this->_M_impl._M_start,
	.loc 14 92 17
	movq	%rdx, %rsi	# _12, _13
	movq	-24(%rbp), %rdx	# this, tmp118
	movq	(%rdx), %rcx	# this_22(D)->D.262364._M_impl.D.261709._M_start, _14
	movq	%rsi, %rdx	# _13,
	movq	%rcx, %rsi	# _14,
	movq	%rax, %rdi	# _8,
	call	_ZNSt12_Vector_baseISt5tupleIJxxxEESaIS1_EE13_M_deallocateEPS1_m	#
# /usr/include/c++/11/bits/vector.tcc:95: 	  this->_M_impl._M_start = __tmp;
	.loc 14 95 27
	movq	-24(%rbp), %rax	# this, tmp119
	movq	-8(%rbp), %rdx	# __tmp, tmp120
	movq	%rdx, (%rax)	# tmp120, this_22(D)->D.262364._M_impl.D.261709._M_start
# /usr/include/c++/11/bits/vector.tcc:96: 	  this->_M_impl._M_finish = __tmp + __old_size;
	.loc 14 96 36
	movq	-16(%rbp), %rdx	# __old_size, tmp121
	movq	%rdx, %rax	# tmp121, tmp122
	addq	%rax, %rax	# tmp122
	addq	%rdx, %rax	# tmp121, tmp122
	salq	$3, %rax	#, tmp123
	movq	%rax, %rdx	# tmp122, _15
	movq	-8(%rbp), %rax	# __tmp, tmp124
	addq	%rax, %rdx	# tmp124, _16
# /usr/include/c++/11/bits/vector.tcc:96: 	  this->_M_impl._M_finish = __tmp + __old_size;
	.loc 14 96 28
	movq	-24(%rbp), %rax	# this, tmp125
	movq	%rdx, 8(%rax)	# _16, this_22(D)->D.262364._M_impl.D.261709._M_finish
# /usr/include/c++/11/bits/vector.tcc:97: 	  this->_M_impl._M_end_of_storage = this->_M_impl._M_start + __n;
	.loc 14 97 52
	movq	-24(%rbp), %rax	# this, tmp126
	movq	(%rax), %rcx	# this_22(D)->D.262364._M_impl.D.261709._M_start, _17
# /usr/include/c++/11/bits/vector.tcc:97: 	  this->_M_impl._M_end_of_storage = this->_M_impl._M_start + __n;
	.loc 14 97 61
	movq	-32(%rbp), %rdx	# __n, tmp127
	movq	%rdx, %rax	# tmp127, tmp128
	addq	%rax, %rax	# tmp128
	addq	%rdx, %rax	# tmp127, tmp128
	salq	$3, %rax	#, tmp129
	leaq	(%rcx,%rax), %rdx	#, _19
# /usr/include/c++/11/bits/vector.tcc:97: 	  this->_M_impl._M_end_of_storage = this->_M_impl._M_start + __n;
	.loc 14 97 36
	movq	-24(%rbp), %rax	# this, tmp130
	movq	%rdx, 16(%rax)	# _19, this_22(D)->D.262364._M_impl.D.261709._M_end_of_storage
.L140:
.LBE53:
.LBE52:
# /usr/include/c++/11/bits/vector.tcc:99:     }
	.loc 14 99 5
	nop	
	leave	
	.cfi_def_cfa 7, 8
	ret	
	.cfi_endproc
.LFE12479:
	.size	_ZNSt6vectorISt5tupleIJxxxEESaIS1_EE7reserveEm, .-_ZNSt6vectorISt5tupleIJxxxEESaIS1_EE7reserveEm
	.section	.text._ZNSt6vectorISt5tupleIJxxxEESaIS1_EE12emplace_backIJRxiiEEERS1_DpOT_,"axG",@progbits,_ZNSt6vectorISt5tupleIJxxxEESaIS1_EE12emplace_backIJRxiiEEERS1_DpOT_,comdat
	.align 2
	.weak	_ZNSt6vectorISt5tupleIJxxxEESaIS1_EE12emplace_backIJRxiiEEERS1_DpOT_
	.type	_ZNSt6vectorISt5tupleIJxxxEESaIS1_EE12emplace_backIJRxiiEEERS1_DpOT_, @function
_ZNSt6vectorISt5tupleIJxxxEESaIS1_EE12emplace_backIJRxiiEEERS1_DpOT_:
.LFB12484:
	.loc 14 109 7
	.cfi_startproc
	endbr64	
	pushq	%rbp	#
	.cfi_def_cfa_offset 16
	.cfi_offset 6, -16
	movq	%rsp, %rbp	#,
	.cfi_def_cfa_register 6
	pushq	%r13	#
	pushq	%r12	#
	pushq	%rbx	#
	subq	$40, %rsp	#,
	.cfi_offset 13, -24
	.cfi_offset 12, -32
	.cfi_offset 3, -40
	movq	%rdi, -40(%rbp)	# this, this
	movq	%rsi, -48(%rbp)	# __args#0, __args#0
	movq	%rdx, -56(%rbp)	# __args#1, __args#1
	movq	%rcx, -64(%rbp)	# __args#2, __args#2
# /usr/include/c++/11/bits/vector.tcc:112: 	if (this->_M_impl._M_finish != this->_M_impl._M_end_of_storage)
	.loc 14 112 20
	movq	-40(%rbp), %rax	# this, tmp97
	movq	8(%rax), %rdx	# this_15(D)->D.262364._M_impl.D.261709._M_finish, _1
# /usr/include/c++/11/bits/vector.tcc:112: 	if (this->_M_impl._M_finish != this->_M_impl._M_end_of_storage)
	.loc 14 112 47
	movq	-40(%rbp), %rax	# this, tmp98
	movq	16(%rax), %rax	# this_15(D)->D.262364._M_impl.D.261709._M_end_of_storage, _2
# /usr/include/c++/11/bits/vector.tcc:112: 	if (this->_M_impl._M_finish != this->_M_impl._M_end_of_storage)
	.loc 14 112 2
	cmpq	%rax, %rdx	# _2, _1
	je	.L142	#,
# /usr/include/c++/11/bits/vector.tcc:115: 	    _Alloc_traits::construct(this->_M_impl, this->_M_impl._M_finish,
	.loc 14 115 30
	movq	-64(%rbp), %rax	# __args#2, tmp99
	movq	%rax, %rdi	# tmp99,
	call	_ZSt7forwardIiEOT_RNSt16remove_referenceIS0_E4typeE	#
	movq	%rax, %r12	#, _3
	movq	-56(%rbp), %rax	# __args#1, tmp100
	movq	%rax, %rdi	# tmp100,
	call	_ZSt7forwardIiEOT_RNSt16remove_referenceIS0_E4typeE	#
	movq	%rax, %rbx	#, _4
	movq	-48(%rbp), %rax	# __args#0, tmp101
	movq	%rax, %rdi	# tmp101,
	call	_ZSt7forwardIRxEOT_RNSt16remove_referenceIS1_E4typeE	#
	movq	%rax, %rdx	#, _5
	movq	-40(%rbp), %rax	# this, tmp102
	movq	8(%rax), %rsi	# this_15(D)->D.262364._M_impl.D.261709._M_finish, _6
# /usr/include/c++/11/bits/vector.tcc:115: 	    _Alloc_traits::construct(this->_M_impl, this->_M_impl._M_finish,
	.loc 14 115 37
	movq	-40(%rbp), %rax	# this, _7
# /usr/include/c++/11/bits/vector.tcc:115: 	    _Alloc_traits::construct(this->_M_impl, this->_M_impl._M_finish,
	.loc 14 115 30
	movq	%r12, %r8	# _3,
	movq	%rbx, %rcx	# _4,
	movq	%rax, %rdi	# _7,
	call	_ZNSt16allocator_traitsISaISt5tupleIJxxxEEEE9constructIS1_JRxiiEEEvRS2_PT_DpOT0_	#
# /usr/include/c++/11/bits/vector.tcc:117: 	    ++this->_M_impl._M_finish;
	.loc 14 117 22
	movq	-40(%rbp), %rax	# this, tmp103
	movq	8(%rax), %rax	# this_15(D)->D.262364._M_impl.D.261709._M_finish, _8
# /usr/include/c++/11/bits/vector.tcc:117: 	    ++this->_M_impl._M_finish;
	.loc 14 117 6
	leaq	24(%rax), %rdx	#, _9
	movq	-40(%rbp), %rax	# this, tmp104
	movq	%rdx, 8(%rax)	# _9, this_15(D)->D.262364._M_impl.D.261709._M_finish
	jmp	.L143	#
.L142:
# /usr/include/c++/11/bits/vector.tcc:121: 	  _M_realloc_insert(end(), std::forward<_Args>(__args)...);
	.loc 14 121 21
	movq	-64(%rbp), %rax	# __args#2, tmp105
	movq	%rax, %rdi	# tmp105,
	call	_ZSt7forwardIiEOT_RNSt16remove_referenceIS0_E4typeE	#
	movq	%rax, %r13	#, _10
	movq	-56(%rbp), %rax	# __args#1, tmp106
	movq	%rax, %rdi	# tmp106,
	call	_ZSt7forwardIiEOT_RNSt16remove_referenceIS0_E4typeE	#
	movq	%rax, %r12	#, _11
	movq	-48(%rbp), %rax	# __args#0, tmp107
	movq	%rax, %rdi	# tmp107,
	call	_ZSt7forwardIRxEOT_RNSt16remove_referenceIS1_E4typeE	#
	movq	%rax, %rbx	#, _12
	movq	-40(%rbp), %rax	# this, tmp108
	movq	%rax, %rdi	# tmp108,
	call	_ZNSt6vectorISt5tupleIJxxxEESaIS1_EE3endEv	#
	movq	%rax, %rsi	#, D.295928
	movq	-40(%rbp), %rax	# this, tmp109
	movq	%r13, %r8	# _10,
	movq	%r12, %rcx	# _11,
	movq	%rbx, %rdx	# _12,
	movq	%rax, %rdi	# tmp109,
	call	_ZNSt6vectorISt5tupleIJxxxEESaIS1_EE17_M_realloc_insertIJRxiiEEEvN9__gnu_cxx17__normal_iteratorIPS1_S3_EEDpOT_	#
.L143:
# /usr/include/c++/11/bits/vector.tcc:123: 	return back();
	.loc 14 123 13
	movq	-40(%rbp), %rax	# this, tmp110
	movq	%rax, %rdi	# tmp110,
	call	_ZNSt6vectorISt5tupleIJxxxEESaIS1_EE4backEv	#
# /usr/include/c++/11/bits/vector.tcc:125:       }
	.loc 14 125 7
	addq	$40, %rsp	#,
	popq	%rbx	#
	popq	%r12	#
	popq	%r13	#
	popq	%rbp	#
	.cfi_def_cfa 7, 8
	ret	
	.cfi_endproc
.LFE12484:
	.size	_ZNSt6vectorISt5tupleIJxxxEESaIS1_EE12emplace_backIJRxiiEEERS1_DpOT_, .-_ZNSt6vectorISt5tupleIJxxxEESaIS1_EE12emplace_backIJRxiiEEERS1_DpOT_
	.section	.text._ZNK9__gnu_cxx17__normal_iteratorIPKSt5tupleIJxxxEESt6vectorIS2_SaIS2_EEE4baseEv,"axG",@progbits,_ZNK9__gnu_cxx17__normal_iteratorIPKSt5tupleIJxxxEESt6vectorIS2_SaIS2_EEE4baseEv,comdat
	.align 2
	.weak	_ZNK9__gnu_cxx17__normal_iteratorIPKSt5tupleIJxxxEESt6vectorIS2_SaIS2_EEE4baseEv
	.type	_ZNK9__gnu_cxx17__normal_iteratorIPKSt5tupleIJxxxEESt6vectorIS2_SaIS2_EEE4baseEv, @function
_ZNK9__gnu_cxx17__normal_iteratorIPKSt5tupleIJxxxEESt6vectorIS2_SaIS2_EEE4baseEv:
.LFB12495:
	.file 15 "/usr/include/c++/11/bits/stl_iterator.h"
	.loc 15 1105 7
	.cfi_startproc
	endbr64	
	pushq	%rbp	#
	.cfi_def_cfa_offset 16
	.cfi_offset 6, -16
	movq	%rsp, %rbp	#,
	.cfi_def_cfa_register 6
	movq	%rdi, -8(%rbp)	# this, this
# /usr/include/c++/11/bits/stl_iterator.h:1106:       { return _M_current; }
	.loc 15 1106 16
	movq	-8(%rbp), %rax	# this, _2
# /usr/include/c++/11/bits/stl_iterator.h:1106:       { return _M_current; }
	.loc 15 1106 28
	popq	%rbp	#
	.cfi_def_cfa 7, 8
	ret	
	.cfi_endproc
.LFE12495:
	.size	_ZNK9__gnu_cxx17__normal_iteratorIPKSt5tupleIJxxxEESt6vectorIS2_SaIS2_EEE4baseEv, .-_ZNK9__gnu_cxx17__normal_iteratorIPKSt5tupleIJxxxEESt6vectorIS2_SaIS2_EEE4baseEv
	.section	.text._ZNKSt6vectorISt5tupleIJxxxEESaIS1_EE5emptyEv,"axG",@progbits,_ZNKSt6vectorISt5tupleIJxxxEESaIS1_EE5emptyEv,comdat
	.align 2
	.weak	_ZNKSt6vectorISt5tupleIJxxxEESaIS1_EE5emptyEv
	.type	_ZNKSt6vectorISt5tupleIJxxxEESaIS1_EE5emptyEv, @function
_ZNKSt6vectorISt5tupleIJxxxEESaIS1_EE5emptyEv:
.LFB12494:
	.loc 8 1007 7
	.cfi_startproc
	endbr64	
	pushq	%rbp	#
	.cfi_def_cfa_offset 16
	.cfi_offset 6, -16
	movq	%rsp, %rbp	#,
	.cfi_def_cfa_register 6
	subq	$48, %rsp	#,
	movq	%rdi, -40(%rbp)	# this, this
# /usr/include/c++/11/bits/stl_vector.h:1007:       empty() const _GLIBCXX_NOEXCEPT
	.loc 8 1007 7
	movq	%fs:40, %rax	# MEM[(<address-space-1> long unsigned int *)40B], tmp93
	movq	%rax, -8(%rbp)	# tmp93, D.296613
	xorl	%eax, %eax	# tmp93
# /usr/include/c++/11/bits/stl_vector.h:1008:       { return begin() == end(); }
	.loc 8 1008 30
	movq	-40(%rbp), %rax	# this, tmp84
	movq	%rax, %rdi	# tmp84,
	call	_ZNKSt6vectorISt5tupleIJxxxEESaIS1_EE3endEv	#
	movq	%rax, -16(%rbp)	# tmp86, D.276798
# /usr/include/c++/11/bits/stl_vector.h:1008:       { return begin() == end(); }
	.loc 8 1008 21
	movq	-40(%rbp), %rax	# this, tmp87
	movq	%rax, %rdi	# tmp87,
	call	_ZNKSt6vectorISt5tupleIJxxxEESaIS1_EE5beginEv	#
	movq	%rax, -24(%rbp)	# tmp89, D.276788
# /usr/include/c++/11/bits/stl_vector.h:1008:       { return begin() == end(); }
	.loc 8 1008 24
	leaq	-16(%rbp), %rdx	#, tmp90
	leaq	-24(%rbp), %rax	#, tmp91
	movq	%rdx, %rsi	# tmp90,
	movq	%rax, %rdi	# tmp91,
	call	_ZN9__gnu_cxxeqIPKSt5tupleIJxxxEESt6vectorIS2_SaIS2_EEEEbRKNS_17__normal_iteratorIT_T0_EESD_	#
# /usr/include/c++/11/bits/stl_vector.h:1008:       { return begin() == end(); }
	.loc 8 1008 34
	movq	-8(%rbp), %rdx	# D.296613, tmp94
	subq	%fs:40, %rdx	# MEM[(<address-space-1> long unsigned int *)40B], tmp94
	je	.L149	#,
	call	__stack_chk_fail@PLT	#
.L149:
	leave	
	.cfi_def_cfa 7, 8
	ret	
	.cfi_endproc
.LFE12494:
	.size	_ZNKSt6vectorISt5tupleIJxxxEESaIS1_EE5emptyEv, .-_ZNKSt6vectorISt5tupleIJxxxEESaIS1_EE5emptyEv
	.section	.text._ZNSt6vectorISt5tupleIJxxxEESaIS1_EE4backEv,"axG",@progbits,_ZNSt6vectorISt5tupleIJxxxEESaIS1_EE4backEv,comdat
	.align 2
	.weak	_ZNSt6vectorISt5tupleIJxxxEESaIS1_EE4backEv
	.type	_ZNSt6vectorISt5tupleIJxxxEESaIS1_EE4backEv, @function
_ZNSt6vectorISt5tupleIJxxxEESaIS1_EE4backEv:
.LFB12496:
	.loc 8 1143 7
	.cfi_startproc
	endbr64	
	pushq	%rbp	#
	.cfi_def_cfa_offset 16
	.cfi_offset 6, -16
	movq	%rsp, %rbp	#,
	.cfi_def_cfa_register 6
	subq	$48, %rsp	#,
	movq	%rdi, -40(%rbp)	# this, this
# /usr/include/c++/11/bits/stl_vector.h:1143:       back() _GLIBCXX_NOEXCEPT
	.loc 8 1143 7
	movq	%fs:40, %rax	# MEM[(<address-space-1> long unsigned int *)40B], tmp92
	movq	%rax, -8(%rbp)	# tmp92, D.296614
	xorl	%eax, %eax	# tmp92
# /usr/include/c++/11/bits/stl_vector.h:1146: 	return *(end() - 1);
	.loc 8 1146 14
	movq	-40(%rbp), %rax	# this, tmp84
	movq	%rax, %rdi	# tmp84,
	call	_ZNSt6vectorISt5tupleIJxxxEESaIS1_EE3endEv	#
	movq	%rax, -24(%rbp)	# tmp86, D.276827
# /usr/include/c++/11/bits/stl_vector.h:1146: 	return *(end() - 1);
	.loc 8 1146 17
	leaq	-24(%rbp), %rax	#, tmp87
	movl	$1, %esi	#,
	movq	%rax, %rdi	# tmp87,
	call	_ZNK9__gnu_cxx17__normal_iteratorIPSt5tupleIJxxxEESt6vectorIS2_SaIS2_EEEmiEl	#
	movq	%rax, -16(%rbp)	# tmp89, D.276828
# /usr/include/c++/11/bits/stl_vector.h:1146: 	return *(end() - 1);
	.loc 8 1146 9
	leaq	-16(%rbp), %rax	#, tmp90
	movq	%rax, %rdi	# tmp90,
	call	_ZNK9__gnu_cxx17__normal_iteratorIPSt5tupleIJxxxEESt6vectorIS2_SaIS2_EEEdeEv	#
# /usr/include/c++/11/bits/stl_vector.h:1147:       }
	.loc 8 1147 7
	movq	-8(%rbp), %rdx	# D.296614, tmp93
	subq	%fs:40, %rdx	# MEM[(<address-space-1> long unsigned int *)40B], tmp93
	je	.L152	#,
	call	__stack_chk_fail@PLT	#
.L152:
	leave	
	.cfi_def_cfa 7, 8
	ret	
	.cfi_endproc
.LFE12496:
	.size	_ZNSt6vectorISt5tupleIJxxxEESaIS1_EE4backEv, .-_ZNSt6vectorISt5tupleIJxxxEESaIS1_EE4backEv
	.section	.text._ZSt12__get_helperILm0ExJxxEERT0_RSt11_Tuple_implIXT_EJS0_DpT1_EE,"axG",@progbits,_ZSt12__get_helperILm0ExJxxEERT0_RSt11_Tuple_implIXT_EJS0_DpT1_EE,comdat
	.weak	_ZSt12__get_helperILm0ExJxxEERT0_RSt11_Tuple_implIXT_EJS0_DpT1_EE
	.type	_ZSt12__get_helperILm0ExJxxEERT0_RSt11_Tuple_implIXT_EJS0_DpT1_EE, @function
_ZSt12__get_helperILm0ExJxxEERT0_RSt11_Tuple_implIXT_EJS0_DpT1_EE:
.LFB12497:
	.loc 9 1377 5
	.cfi_startproc
	endbr64	
	pushq	%rbp	#
	.cfi_def_cfa_offset 16
	.cfi_offset 6, -16
	movq	%rsp, %rbp	#,
	.cfi_def_cfa_register 6
	subq	$16, %rsp	#,
	movq	%rdi, -8(%rbp)	# __t, __t
# /usr/include/c++/11/tuple:1378:     { return _Tuple_impl<__i, _Head, _Tail...>::_M_head(__t); }
	.loc 9 1378 56
	movq	-8(%rbp), %rax	# __t, tmp84
	movq	%rax, %rdi	# tmp84,
	call	_ZNSt11_Tuple_implILm0EJxxxEE7_M_headERS0_	#
# /usr/include/c++/11/tuple:1378:     { return _Tuple_impl<__i, _Head, _Tail...>::_M_head(__t); }
	.loc 9 1378 63
	leave	
	.cfi_def_cfa 7, 8
	ret	
	.cfi_endproc
.LFE12497:
	.size	_ZSt12__get_helperILm0ExJxxEERT0_RSt11_Tuple_implIXT_EJS0_DpT1_EE, .-_ZSt12__get_helperILm0ExJxxEERT0_RSt11_Tuple_implIXT_EJS0_DpT1_EE
	.section	.text._ZSt12__get_helperILm1ExJxEERT0_RSt11_Tuple_implIXT_EJS0_DpT1_EE,"axG",@progbits,_ZSt12__get_helperILm1ExJxEERT0_RSt11_Tuple_implIXT_EJS0_DpT1_EE,comdat
	.weak	_ZSt12__get_helperILm1ExJxEERT0_RSt11_Tuple_implIXT_EJS0_DpT1_EE
	.type	_ZSt12__get_helperILm1ExJxEERT0_RSt11_Tuple_implIXT_EJS0_DpT1_EE, @function
_ZSt12__get_helperILm1ExJxEERT0_RSt11_Tuple_implIXT_EJS0_DpT1_EE:
.LFB12498:
	.loc 9 1377 5
	.cfi_startproc
	endbr64	
	pushq	%rbp	#
	.cfi_def_cfa_offset 16
	.cfi_offset 6, -16
	movq	%rsp, %rbp	#,
	.cfi_def_cfa_register 6
	subq	$16, %rsp	#,
	movq	%rdi, -8(%rbp)	# __t, __t
# /usr/include/c++/11/tuple:1378:     { return _Tuple_impl<__i, _Head, _Tail...>::_M_head(__t); }
	.loc 9 1378 56
	movq	-8(%rbp), %rax	# __t, tmp84
	movq	%rax, %rdi	# tmp84,
	call	_ZNSt11_Tuple_implILm1EJxxEE7_M_headERS0_	#
# /usr/include/c++/11/tuple:1378:     { return _Tuple_impl<__i, _Head, _Tail...>::_M_head(__t); }
	.loc 9 1378 63
	leave	
	.cfi_def_cfa 7, 8
	ret	
	.cfi_endproc
.LFE12498:
	.size	_ZSt12__get_helperILm1ExJxEERT0_RSt11_Tuple_implIXT_EJS0_DpT1_EE, .-_ZSt12__get_helperILm1ExJxEERT0_RSt11_Tuple_implIXT_EJS0_DpT1_EE
	.section	.text._ZSt12__get_helperILm2ExJEERT0_RSt11_Tuple_implIXT_EJS0_DpT1_EE,"axG",@progbits,_ZSt12__get_helperILm2ExJEERT0_RSt11_Tuple_implIXT_EJS0_DpT1_EE,comdat
	.weak	_ZSt12__get_helperILm2ExJEERT0_RSt11_Tuple_implIXT_EJS0_DpT1_EE
	.type	_ZSt12__get_helperILm2ExJEERT0_RSt11_Tuple_implIXT_EJS0_DpT1_EE, @function
_ZSt12__get_helperILm2ExJEERT0_RSt11_Tuple_implIXT_EJS0_DpT1_EE:
.LFB12499:
	.loc 9 1377 5
	.cfi_startproc
	endbr64	
	pushq	%rbp	#
	.cfi_def_cfa_offset 16
	.cfi_offset 6, -16
	movq	%rsp, %rbp	#,
	.cfi_def_cfa_register 6
	subq	$16, %rsp	#,
	movq	%rdi, -8(%rbp)	# __t, __t
# /usr/include/c++/11/tuple:1378:     { return _Tuple_impl<__i, _Head, _Tail...>::_M_head(__t); }
	.loc 9 1378 56
	movq	-8(%rbp), %rax	# __t, tmp84
	movq	%rax, %rdi	# tmp84,
	call	_ZNSt11_Tuple_implILm2EJxEE7_M_headERS0_	#
# /usr/include/c++/11/tuple:1378:     { return _Tuple_impl<__i, _Head, _Tail...>::_M_head(__t); }
	.loc 9 1378 63
	leave	
	.cfi_def_cfa 7, 8
	ret	
	.cfi_endproc
.LFE12499:
	.size	_ZSt12__get_helperILm2ExJEERT0_RSt11_Tuple_implIXT_EJS0_DpT1_EE, .-_ZSt12__get_helperILm2ExJEERT0_RSt11_Tuple_implIXT_EJS0_DpT1_EE
	.section	.text._ZNSt6vectorIxSaIxEEixEm,"axG",@progbits,_ZNSt6vectorIxSaIxEEixEm,comdat
	.align 2
	.weak	_ZNSt6vectorIxSaIxEEixEm
	.type	_ZNSt6vectorIxSaIxEEixEm, @function
_ZNSt6vectorIxSaIxEEixEm:
.LFB12500:
	.loc 8 1043 7
	.cfi_startproc
	endbr64	
	pushq	%rbp	#
	.cfi_def_cfa_offset 16
	.cfi_offset 6, -16
	movq	%rsp, %rbp	#,
	.cfi_def_cfa_register 6
	movq	%rdi, -8(%rbp)	# this, this
	movq	%rsi, -16(%rbp)	# __n, __n
# /usr/include/c++/11/bits/stl_vector.h:1046: 	return *(this->_M_impl._M_start + __n);
	.loc 8 1046 25
	movq	-8(%rbp), %rax	# this, tmp86
	movq	(%rax), %rdx	# this_4(D)->D.261229._M_impl.D.260584._M_start, _1
# /usr/include/c++/11/bits/stl_vector.h:1046: 	return *(this->_M_impl._M_start + __n);
	.loc 8 1046 34
	movq	-16(%rbp), %rax	# __n, tmp87
	salq	$3, %rax	#, _2
# /usr/include/c++/11/bits/stl_vector.h:1046: 	return *(this->_M_impl._M_start + __n);
	.loc 8 1046 39
	addq	%rdx, %rax	# _1, _6
# /usr/include/c++/11/bits/stl_vector.h:1047:       }
	.loc 8 1047 7
	popq	%rbp	#
	.cfi_def_cfa 7, 8
	ret	
	.cfi_endproc
.LFE12500:
	.size	_ZNSt6vectorIxSaIxEEixEm, .-_ZNSt6vectorIxSaIxEEixEm
	.section	.text._ZSt5ssizeISt6vectorIxSaIxEEENSt11common_typeIJlNSt11make_signedIDTcldtfp_4sizeEEE4typeEEE4typeERKT_,"axG",@progbits,_ZSt5ssizeISt6vectorIxSaIxEEENSt11common_typeIJlNSt11make_signedIDTcldtfp_4sizeEEE4typeEEE4typeERKT_,comdat
	.weak	_ZSt5ssizeISt6vectorIxSaIxEEENSt11common_typeIJlNSt11make_signedIDTcldtfp_4sizeEEE4typeEEE4typeERKT_
	.type	_ZSt5ssizeISt6vectorIxSaIxEEENSt11common_typeIJlNSt11make_signedIDTcldtfp_4sizeEEE4typeEEE4typeERKT_, @function
_ZSt5ssizeISt6vectorIxSaIxEEENSt11common_typeIJlNSt11make_signedIDTcldtfp_4sizeEEE4typeEEE4typeERKT_:
.LFB12501:
	.file 16 "/usr/include/c++/11/bits/range_access.h"
	.loc 16 326 5
	.cfi_startproc
	endbr64	
	pushq	%rbp	#
	.cfi_def_cfa_offset 16
	.cfi_offset 6, -16
	movq	%rsp, %rbp	#,
	.cfi_def_cfa_register 6
	subq	$16, %rsp	#,
	movq	%rdi, -8(%rbp)	# __cont, __cont
# /usr/include/c++/11/bits/range_access.h:331:       return static_cast<common_type_t<ptrdiff_t, type>>(__cont.size());
	.loc 16 331 69
	movq	-8(%rbp), %rax	# __cont, tmp85
	movq	%rax, %rdi	# tmp85,
	call	_ZNKSt6vectorIxSaIxEE4sizeEv	#
# /usr/include/c++/11/bits/range_access.h:332:     }
	.loc 16 332 5
	leave	
	.cfi_def_cfa 7, 8
	ret	
	.cfi_endproc
.LFE12501:
	.size	_ZSt5ssizeISt6vectorIxSaIxEEENSt11common_typeIJlNSt11make_signedIDTcldtfp_4sizeEEE4typeEEE4typeERKT_, .-_ZSt5ssizeISt6vectorIxSaIxEEENSt11common_typeIJlNSt11make_signedIDTcldtfp_4sizeEEE4typeEEE4typeERKT_
	.section	.text._ZNSt6vectorISt5tupleIJxxxEESaIS1_EE12emplace_backIJRiiRxEEERS1_DpOT_,"axG",@progbits,_ZNSt6vectorISt5tupleIJxxxEESaIS1_EE12emplace_backIJRiiRxEEERS1_DpOT_,comdat
	.align 2
	.weak	_ZNSt6vectorISt5tupleIJxxxEESaIS1_EE12emplace_backIJRiiRxEEERS1_DpOT_
	.type	_ZNSt6vectorISt5tupleIJxxxEESaIS1_EE12emplace_backIJRiiRxEEERS1_DpOT_, @function
_ZNSt6vectorISt5tupleIJxxxEESaIS1_EE12emplace_backIJRiiRxEEERS1_DpOT_:
.LFB12502:
	.loc 14 109 7
	.cfi_startproc
	endbr64	
	pushq	%rbp	#
	.cfi_def_cfa_offset 16
	.cfi_offset 6, -16
	movq	%rsp, %rbp	#,
	.cfi_def_cfa_register 6
	pushq	%r13	#
	pushq	%r12	#
	pushq	%rbx	#
	subq	$40, %rsp	#,
	.cfi_offset 13, -24
	.cfi_offset 12, -32
	.cfi_offset 3, -40
	movq	%rdi, -40(%rbp)	# this, this
	movq	%rsi, -48(%rbp)	# __args#0, __args#0
	movq	%rdx, -56(%rbp)	# __args#1, __args#1
	movq	%rcx, -64(%rbp)	# __args#2, __args#2
# /usr/include/c++/11/bits/vector.tcc:112: 	if (this->_M_impl._M_finish != this->_M_impl._M_end_of_storage)
	.loc 14 112 20
	movq	-40(%rbp), %rax	# this, tmp97
	movq	8(%rax), %rdx	# this_15(D)->D.262364._M_impl.D.261709._M_finish, _1
# /usr/include/c++/11/bits/vector.tcc:112: 	if (this->_M_impl._M_finish != this->_M_impl._M_end_of_storage)
	.loc 14 112 47
	movq	-40(%rbp), %rax	# this, tmp98
	movq	16(%rax), %rax	# this_15(D)->D.262364._M_impl.D.261709._M_end_of_storage, _2
# /usr/include/c++/11/bits/vector.tcc:112: 	if (this->_M_impl._M_finish != this->_M_impl._M_end_of_storage)
	.loc 14 112 2
	cmpq	%rax, %rdx	# _2, _1
	je	.L164	#,
# /usr/include/c++/11/bits/vector.tcc:115: 	    _Alloc_traits::construct(this->_M_impl, this->_M_impl._M_finish,
	.loc 14 115 30
	movq	-64(%rbp), %rax	# __args#2, tmp99
	movq	%rax, %rdi	# tmp99,
	call	_ZSt7forwardIRxEOT_RNSt16remove_referenceIS1_E4typeE	#
	movq	%rax, %r12	#, _3
	movq	-56(%rbp), %rax	# __args#1, tmp100
	movq	%rax, %rdi	# tmp100,
	call	_ZSt7forwardIiEOT_RNSt16remove_referenceIS0_E4typeE	#
	movq	%rax, %rbx	#, _4
	movq	-48(%rbp), %rax	# __args#0, tmp101
	movq	%rax, %rdi	# tmp101,
	call	_ZSt7forwardIRiEOT_RNSt16remove_referenceIS1_E4typeE	#
	movq	%rax, %rdx	#, _5
	movq	-40(%rbp), %rax	# this, tmp102
	movq	8(%rax), %rsi	# this_15(D)->D.262364._M_impl.D.261709._M_finish, _6
# /usr/include/c++/11/bits/vector.tcc:115: 	    _Alloc_traits::construct(this->_M_impl, this->_M_impl._M_finish,
	.loc 14 115 37
	movq	-40(%rbp), %rax	# this, _7
# /usr/include/c++/11/bits/vector.tcc:115: 	    _Alloc_traits::construct(this->_M_impl, this->_M_impl._M_finish,
	.loc 14 115 30
	movq	%r12, %r8	# _3,
	movq	%rbx, %rcx	# _4,
	movq	%rax, %rdi	# _7,
	call	_ZNSt16allocator_traitsISaISt5tupleIJxxxEEEE9constructIS1_JRiiRxEEEvRS2_PT_DpOT0_	#
# /usr/include/c++/11/bits/vector.tcc:117: 	    ++this->_M_impl._M_finish;
	.loc 14 117 22
	movq	-40(%rbp), %rax	# this, tmp103
	movq	8(%rax), %rax	# this_15(D)->D.262364._M_impl.D.261709._M_finish, _8
# /usr/include/c++/11/bits/vector.tcc:117: 	    ++this->_M_impl._M_finish;
	.loc 14 117 6
	leaq	24(%rax), %rdx	#, _9
	movq	-40(%rbp), %rax	# this, tmp104
	movq	%rdx, 8(%rax)	# _9, this_15(D)->D.262364._M_impl.D.261709._M_finish
	jmp	.L165	#
.L164:
# /usr/include/c++/11/bits/vector.tcc:121: 	  _M_realloc_insert(end(), std::forward<_Args>(__args)...);
	.loc 14 121 21
	movq	-64(%rbp), %rax	# __args#2, tmp105
	movq	%rax, %rdi	# tmp105,
	call	_ZSt7forwardIRxEOT_RNSt16remove_referenceIS1_E4typeE	#
	movq	%rax, %r13	#, _10
	movq	-56(%rbp), %rax	# __args#1, tmp106
	movq	%rax, %rdi	# tmp106,
	call	_ZSt7forwardIiEOT_RNSt16remove_referenceIS0_E4typeE	#
	movq	%rax, %r12	#, _11
	movq	-48(%rbp), %rax	# __args#0, tmp107
	movq	%rax, %rdi	# tmp107,
	call	_ZSt7forwardIRiEOT_RNSt16remove_referenceIS1_E4typeE	#
	movq	%rax, %rbx	#, _12
	movq	-40(%rbp), %rax	# this, tmp108
	movq	%rax, %rdi	# tmp108,
	call	_ZNSt6vectorISt5tupleIJxxxEESaIS1_EE3endEv	#
	movq	%rax, %rsi	#, D.296003
	movq	-40(%rbp), %rax	# this, tmp109
	movq	%r13, %r8	# _10,
	movq	%r12, %rcx	# _11,
	movq	%rbx, %rdx	# _12,
	movq	%rax, %rdi	# tmp109,
	call	_ZNSt6vectorISt5tupleIJxxxEESaIS1_EE17_M_realloc_insertIJRiiRxEEEvN9__gnu_cxx17__normal_iteratorIPS1_S3_EEDpOT_	#
.L165:
# /usr/include/c++/11/bits/vector.tcc:123: 	return back();
	.loc 14 123 13
	movq	-40(%rbp), %rax	# this, tmp110
	movq	%rax, %rdi	# tmp110,
	call	_ZNSt6vectorISt5tupleIJxxxEESaIS1_EE4backEv	#
# /usr/include/c++/11/bits/vector.tcc:125:       }
	.loc 14 125 7
	addq	$40, %rsp	#,
	popq	%rbx	#
	popq	%r12	#
	popq	%r13	#
	popq	%rbp	#
	.cfi_def_cfa 7, 8
	ret	
	.cfi_endproc
.LFE12502:
	.size	_ZNSt6vectorISt5tupleIJxxxEESaIS1_EE12emplace_backIJRiiRxEEERS1_DpOT_, .-_ZNSt6vectorISt5tupleIJxxxEESaIS1_EE12emplace_backIJRiiRxEEERS1_DpOT_
	.section	.text._ZNSt6vectorISt5tupleIJxxxEESaIS1_EE8pop_backEv,"axG",@progbits,_ZNSt6vectorISt5tupleIJxxxEESaIS1_EE8pop_backEv,comdat
	.align 2
	.weak	_ZNSt6vectorISt5tupleIJxxxEESaIS1_EE8pop_backEv
	.type	_ZNSt6vectorISt5tupleIJxxxEESaIS1_EE8pop_backEv, @function
_ZNSt6vectorISt5tupleIJxxxEESaIS1_EE8pop_backEv:
.LFB12510:
	.loc 8 1225 7
	.cfi_startproc
	endbr64	
	pushq	%rbp	#
	.cfi_def_cfa_offset 16
	.cfi_offset 6, -16
	movq	%rsp, %rbp	#,
	.cfi_def_cfa_register 6
	subq	$16, %rsp	#,
	movq	%rdi, -8(%rbp)	# this, this
# /usr/include/c++/11/bits/stl_vector.h:1228: 	--this->_M_impl._M_finish;
	.loc 8 1228 18
	movq	-8(%rbp), %rax	# this, tmp86
	movq	8(%rax), %rax	# this_6(D)->D.262364._M_impl.D.261709._M_finish, _1
# /usr/include/c++/11/bits/stl_vector.h:1228: 	--this->_M_impl._M_finish;
	.loc 8 1228 2
	leaq	-24(%rax), %rdx	#, _2
	movq	-8(%rbp), %rax	# this, tmp87
	movq	%rdx, 8(%rax)	# _2, this_6(D)->D.262364._M_impl.D.261709._M_finish
# /usr/include/c++/11/bits/stl_vector.h:1229: 	_Alloc_traits::destroy(this->_M_impl, this->_M_impl._M_finish);
	.loc 8 1229 24
	movq	-8(%rbp), %rax	# this, tmp88
	movq	8(%rax), %rdx	# this_6(D)->D.262364._M_impl.D.261709._M_finish, _3
# /usr/include/c++/11/bits/stl_vector.h:1229: 	_Alloc_traits::destroy(this->_M_impl, this->_M_impl._M_finish);
	.loc 8 1229 31
	movq	-8(%rbp), %rax	# this, _4
# /usr/include/c++/11/bits/stl_vector.h:1229: 	_Alloc_traits::destroy(this->_M_impl, this->_M_impl._M_finish);
	.loc 8 1229 24
	movq	%rdx, %rsi	# _3,
	movq	%rax, %rdi	# _4,
	call	_ZNSt16allocator_traitsISaISt5tupleIJxxxEEEE7destroyIS1_EEvRS2_PT_	#
# /usr/include/c++/11/bits/stl_vector.h:1231:       }
	.loc 8 1231 7
	nop	
	leave	
	.cfi_def_cfa 7, 8
	ret	
	.cfi_endproc
.LFE12510:
	.size	_ZNSt6vectorISt5tupleIJxxxEESaIS1_EE8pop_backEv, .-_ZNSt6vectorISt5tupleIJxxxEESaIS1_EE8pop_backEv
	.section	.text._ZNK9__gnu_cxx17__normal_iteratorIPxSt6vectorIxSaIxEEE4baseEv,"axG",@progbits,_ZNK9__gnu_cxx17__normal_iteratorIPxSt6vectorIxSaIxEEE4baseEv,comdat
	.align 2
	.weak	_ZNK9__gnu_cxx17__normal_iteratorIPxSt6vectorIxSaIxEEE4baseEv
	.type	_ZNK9__gnu_cxx17__normal_iteratorIPxSt6vectorIxSaIxEEE4baseEv, @function
_ZNK9__gnu_cxx17__normal_iteratorIPxSt6vectorIxSaIxEEE4baseEv:
.LFB12512:
	.loc 15 1105 7
	.cfi_startproc
	endbr64	
	pushq	%rbp	#
	.cfi_def_cfa_offset 16
	.cfi_offset 6, -16
	movq	%rsp, %rbp	#,
	.cfi_def_cfa_register 6
	movq	%rdi, -8(%rbp)	# this, this
# /usr/include/c++/11/bits/stl_iterator.h:1106:       { return _M_current; }
	.loc 15 1106 16
	movq	-8(%rbp), %rax	# this, _2
# /usr/include/c++/11/bits/stl_iterator.h:1106:       { return _M_current; }
	.loc 15 1106 28
	popq	%rbp	#
	.cfi_def_cfa 7, 8
	ret	
	.cfi_endproc
.LFE12512:
	.size	_ZNK9__gnu_cxx17__normal_iteratorIPxSt6vectorIxSaIxEEE4baseEv, .-_ZNK9__gnu_cxx17__normal_iteratorIPxSt6vectorIxSaIxEEE4baseEv
	.section	.text._ZN9__gnu_cxx17__normal_iteratorIPxSt6vectorIxSaIxEEEppEv,"axG",@progbits,_ZN9__gnu_cxx17__normal_iteratorIPxSt6vectorIxSaIxEEEppEv,comdat
	.align 2
	.weak	_ZN9__gnu_cxx17__normal_iteratorIPxSt6vectorIxSaIxEEEppEv
	.type	_ZN9__gnu_cxx17__normal_iteratorIPxSt6vectorIxSaIxEEEppEv, @function
_ZN9__gnu_cxx17__normal_iteratorIPxSt6vectorIxSaIxEEEppEv:
.LFB12513:
	.loc 15 1052 7
	.cfi_startproc
	endbr64	
	pushq	%rbp	#
	.cfi_def_cfa_offset 16
	.cfi_offset 6, -16
	movq	%rsp, %rbp	#,
	.cfi_def_cfa_register 6
	movq	%rdi, -8(%rbp)	# this, this
# /usr/include/c++/11/bits/stl_iterator.h:1054: 	++_M_current;
	.loc 15 1054 4
	movq	-8(%rbp), %rax	# this, tmp86
	movq	(%rax), %rax	# this_4(D)->_M_current, _1
# /usr/include/c++/11/bits/stl_iterator.h:1054: 	++_M_current;
	.loc 15 1054 2
	leaq	8(%rax), %rdx	#, _2
	movq	-8(%rbp), %rax	# this, tmp87
	movq	%rdx, (%rax)	# _2, this_4(D)->_M_current
# /usr/include/c++/11/bits/stl_iterator.h:1055: 	return *this;
	.loc 15 1055 10
	movq	-8(%rbp), %rax	# this, _6
# /usr/include/c++/11/bits/stl_iterator.h:1056:       }
	.loc 15 1056 7
	popq	%rbp	#
	.cfi_def_cfa 7, 8
	ret	
	.cfi_endproc
.LFE12513:
	.size	_ZN9__gnu_cxx17__normal_iteratorIPxSt6vectorIxSaIxEEEppEv, .-_ZN9__gnu_cxx17__normal_iteratorIPxSt6vectorIxSaIxEEEppEv
	.text
	.align 2
	.type	_ZZ4mainENKUlT_xxE_clIS0_EEvS_xx, @function
_ZZ4mainENKUlT_xxE_clIS0_EEvS_xx:
.LFB12511:
	.loc 7 68 14
	.cfi_startproc
	pushq	%rbp	#
	.cfi_def_cfa_offset 16
	.cfi_offset 6, -16
	movq	%rsp, %rbp	#,
	.cfi_def_cfa_register 6
	pushq	%rbx	#
	subq	$104, %rsp	#,
	.cfi_offset 3, -24
	movq	%rdi, -72(%rbp)	# __closure, __closure
	movq	%rsi, %rax	# rF, tmp97
	movq	%rdx, %rsi	# rF, tmp98
	movq	%rsi, %rdx	# tmp98,
	movq	%rax, -96(%rbp)	# tmp96, rF
	movq	%rdx, -88(%rbp)	#, rF
	movq	%rcx, -80(%rbp)	# nd, nd
	movq	%r8, -104(%rbp)	# pt, pt
# foo.cc:68:   auto dfs = [&](auto rF, ll nd, ll pt) -> void {
	.loc 7 68 14
	movq	%fs:40, %rax	# MEM[(<address-space-1> long unsigned int *)40B], tmp120
	movq	%rax, -24(%rbp)	# tmp120, D.296615
	xorl	%eax, %eax	# tmp120
.LBB54:
.LBB55:
# foo.cc:69:     for (ll c : nbr[nd]) {
	.loc 7 69 17
	movq	-72(%rbp), %rax	# __closure, tmp99
	movq	(%rax), %rax	# __closure_15(D)->__nbr, _1
# foo.cc:69:     for (ll c : nbr[nd]) {
	.loc 7 69 5
	movq	-80(%rbp), %rdx	# nd, nd.48_2
	movq	%rdx, %rsi	# nd.48_2,
	movq	%rax, %rdi	# _1,
	call	_ZNSt6vectorIS_IxSaIxEESaIS1_EEixEm	#
	movq	%rax, -40(%rbp)	# tmp100, __for_range
	movq	-40(%rbp), %rax	# __for_range, tmp101
	movq	%rax, %rdi	# tmp101,
	call	_ZNSt6vectorIxSaIxEE5beginEv	#
	movq	%rax, -56(%rbp)	# tmp103, __for_begin
	movq	-40(%rbp), %rax	# __for_range, tmp104
	movq	%rax, %rdi	# tmp104,
	call	_ZNSt6vectorIxSaIxEE3endEv	#
	movq	%rax, -48(%rbp)	# tmp106, __for_end
	jmp	.L173	#
.L176:
# foo.cc:69:     for (ll c : nbr[nd]) {
	.loc 7 69 5 is_stmt 0 discriminator 3
	leaq	-56(%rbp), %rax	#, tmp107
	movq	%rax, %rdi	# tmp107,
	call	_ZNK9__gnu_cxx17__normal_iteratorIPxSt6vectorIxSaIxEEEdeEv	#
	movq	(%rax), %rax	# *_3, tmp108
	movq	%rax, -32(%rbp)	# tmp108, c
# foo.cc:70:       if (c == pt) continue;
	.loc 7 70 7 is_stmt 1 discriminator 3
	movq	-32(%rbp), %rax	# c, tmp109
	cmpq	-104(%rbp), %rax	# pt, tmp109
	je	.L178	#,
# foo.cc:71:       rF(rF, c, nd);
	.loc 7 71 9
	movq	-80(%rbp), %rdi	# nd, tmp110
	movq	-32(%rbp), %rcx	# c, tmp111
	movq	-96(%rbp), %rsi	# rF, tmp112
	movq	-88(%rbp), %rdx	# rF, tmp113
	leaq	-96(%rbp), %rax	#, tmp114
	movq	%rdi, %r8	# tmp110,
	movq	%rax, %rdi	# tmp114,
	call	_ZZ4mainENKUlT_xxE_clIS0_EEvS_xx	#
# foo.cc:72:       vec1[nd] += vec1[c];
	.loc 7 72 7
	movq	-72(%rbp), %rax	# __closure, tmp115
	movq	8(%rax), %rax	# __closure_15(D)->__vec1, _4
# foo.cc:72:       vec1[nd] += vec1[c];
	.loc 7 72 16
	movq	-32(%rbp), %rdx	# c, c.49_5
	movq	%rdx, %rsi	# c.49_5,
	movq	%rax, %rdi	# _4,
	call	_ZNSt6vectorIxSaIxEEixEm	#
	movq	(%rax), %rbx	# *_6, _30
# foo.cc:72:       vec1[nd] += vec1[c];
	.loc 7 72 7
	movq	-72(%rbp), %rax	# __closure, tmp116
	movq	8(%rax), %rax	# __closure_15(D)->__vec1, _7
# foo.cc:72:       vec1[nd] += vec1[c];
	.loc 7 72 16
	movq	-80(%rbp), %rdx	# nd, nd.50_8
	movq	%rdx, %rsi	# nd.50_8,
	movq	%rax, %rdi	# _7,
	call	_ZNSt6vectorIxSaIxEEixEm	#
	movq	(%rax), %rdx	# *_32, _9
	addq	%rbx, %rdx	# _30, _10
	movq	%rdx, (%rax)	# _10, *_32
	jmp	.L175	#
.L178:
# foo.cc:70:       if (c == pt) continue;
	.loc 7 70 20
	nop	
.L175:
# foo.cc:69:     for (ll c : nbr[nd]) {
	.loc 7 69 5 discriminator 2
	leaq	-56(%rbp), %rax	#, tmp117
	movq	%rax, %rdi	# tmp117,
	call	_ZN9__gnu_cxx17__normal_iteratorIPxSt6vectorIxSaIxEEEppEv	#
.L173:
# foo.cc:69:     for (ll c : nbr[nd]) {
	.loc 7 69 5 is_stmt 0 discriminator 1
	leaq	-48(%rbp), %rdx	#, tmp118
	leaq	-56(%rbp), %rax	#, tmp119
	movq	%rdx, %rsi	# tmp118,
	movq	%rax, %rdi	# tmp119,
	call	_ZN9__gnu_cxxeqIPxSt6vectorIxSaIxEEEEbRKNS_17__normal_iteratorIT_T0_EESA_	#
	xorl	$1, %eax	#, retval.51_22
	testb	%al, %al	# retval.51_22
	jne	.L176	#,
.LBE55:
.LBE54:
# foo.cc:74:   };
	.loc 7 74 3 is_stmt 1
	nop	
	movq	-24(%rbp), %rax	# D.296615, tmp121
	subq	%fs:40, %rax	# MEM[(<address-space-1> long unsigned int *)40B], tmp121
	je	.L177	#,
	call	__stack_chk_fail@PLT	#
.L177:
	movq	-8(%rbp), %rbx	#,
	leave	
	.cfi_def_cfa 7, 8
	ret	
	.cfi_endproc
.LFE12511:
	.size	_ZZ4mainENKUlT_xxE_clIS0_EEvS_xx, .-_ZZ4mainENKUlT_xxE_clIS0_EEvS_xx
	.section	.text._ZSt12__miter_baseIPKcET_S2_,"axG",@progbits,_ZSt12__miter_baseIPKcET_S2_,comdat
	.weak	_ZSt12__miter_baseIPKcET_S2_
	.type	_ZSt12__miter_baseIPKcET_S2_, @function
_ZSt12__miter_baseIPKcET_S2_:
.LFB12567:
	.file 17 "/usr/include/c++/11/bits/cpp_type_traits.h"
	.loc 17 560 5
	.cfi_startproc
	endbr64	
	pushq	%rbp	#
	.cfi_def_cfa_offset 16
	.cfi_offset 6, -16
	movq	%rsp, %rbp	#,
	.cfi_def_cfa_register 6
	movq	%rdi, -8(%rbp)	# __it, __it
# /usr/include/c++/11/bits/cpp_type_traits.h:561:     { return __it; }
	.loc 17 561 14
	movq	-8(%rbp), %rax	# __it, _2
# /usr/include/c++/11/bits/cpp_type_traits.h:561:     { return __it; }
	.loc 17 561 20
	popq	%rbp	#
	.cfi_def_cfa 7, 8
	ret	
	.cfi_endproc
.LFE12567:
	.size	_ZSt12__miter_baseIPKcET_S2_, .-_ZSt12__miter_baseIPKcET_S2_
	.section	.text._ZSt13__copy_move_aILb0EPKcPcET1_T0_S4_S3_,"axG",@progbits,_ZSt13__copy_move_aILb0EPKcPcET1_T0_S4_S3_,comdat
	.weak	_ZSt13__copy_move_aILb0EPKcPcET1_T0_S4_S3_
	.type	_ZSt13__copy_move_aILb0EPKcPcET1_T0_S4_S3_, @function
_ZSt13__copy_move_aILb0EPKcPcET1_T0_S4_S3_:
.LFB12568:
	.loc 3 527 5
	.cfi_startproc
	endbr64	
	pushq	%rbp	#
	.cfi_def_cfa_offset 16
	.cfi_offset 6, -16
	movq	%rsp, %rbp	#,
	.cfi_def_cfa_register 6
	pushq	%r12	#
	pushq	%rbx	#
	subq	$32, %rsp	#,
	.cfi_offset 12, -24
	.cfi_offset 3, -32
	movq	%rdi, -24(%rbp)	# __first, __first
	movq	%rsi, -32(%rbp)	# __last, __last
	movq	%rdx, -40(%rbp)	# __result, __result
# /usr/include/c++/11/bits/stl_algobase.h:529:       return std::__niter_wrap(__result,
	.loc 3 529 31
	movq	-40(%rbp), %rax	# __result, __result.69_1
	movq	%rax, %rdi	# __result.69_1,
	call	_ZSt12__niter_baseIPcET_S1_	#
	movq	%rax, %r12	#, _2
	movq	-32(%rbp), %rax	# __last, tmp89
	movq	%rax, %rdi	# tmp89,
	call	_ZSt12__niter_baseIPKcET_S2_	#
	movq	%rax, %rbx	#, _3
	movq	-24(%rbp), %rax	# __first, tmp90
	movq	%rax, %rdi	# tmp90,
	call	_ZSt12__niter_baseIPKcET_S2_	#
	movq	%r12, %rdx	# _2,
	movq	%rbx, %rsi	# _3,
	movq	%rax, %rdi	# _4,
	call	_ZSt14__copy_move_a1ILb0EPKcPcET1_T0_S4_S3_	#
	movq	%rax, %rdx	#, _5
	leaq	-40(%rbp), %rax	#, tmp91
	movq	%rdx, %rsi	# _5,
	movq	%rax, %rdi	# tmp91,
	call	_ZSt12__niter_wrapIPcET_RKS1_S1_	#
# /usr/include/c++/11/bits/stl_algobase.h:533:     }
	.loc 3 533 5
	addq	$32, %rsp	#,
	popq	%rbx	#
	popq	%r12	#
	popq	%rbp	#
	.cfi_def_cfa 7, 8
	ret	
	.cfi_endproc
.LFE12568:
	.size	_ZSt13__copy_move_aILb0EPKcPcET1_T0_S4_S3_, .-_ZSt13__copy_move_aILb0EPKcPcET1_T0_S4_S3_
	.section	.text._ZNKSt7__cxx1112basic_stringIcSt11char_traitsIcESaIcEE7_M_dataEv,"axG",@progbits,_ZNKSt7__cxx1112basic_stringIcSt11char_traitsIcESaIcEE7_M_dataEv,comdat
	.align 2
	.weak	_ZNKSt7__cxx1112basic_stringIcSt11char_traitsIcESaIcEE7_M_dataEv
	.type	_ZNKSt7__cxx1112basic_stringIcSt11char_traitsIcESaIcEE7_M_dataEv, @function
_ZNKSt7__cxx1112basic_stringIcSt11char_traitsIcESaIcEE7_M_dataEv:
.LFB12591:
	.loc 10 194 7
	.cfi_startproc
	endbr64	
	pushq	%rbp	#
	.cfi_def_cfa_offset 16
	.cfi_offset 6, -16
	movq	%rsp, %rbp	#,
	.cfi_def_cfa_register 6
	movq	%rdi, -8(%rbp)	# this, this
# /usr/include/c++/11/bits/basic_string.h:195:       { return _M_dataplus._M_p; }
	.loc 10 195 28
	movq	-8(%rbp), %rax	# this, tmp84
	movq	(%rax), %rax	# this_2(D)->_M_dataplus._M_p, _3
# /usr/include/c++/11/bits/basic_string.h:195:       { return _M_dataplus._M_p; }
	.loc 10 195 34
	popq	%rbp	#
	.cfi_def_cfa 7, 8
	ret	
	.cfi_endproc
.LFE12591:
	.size	_ZNKSt7__cxx1112basic_stringIcSt11char_traitsIcESaIcEE7_M_dataEv, .-_ZNKSt7__cxx1112basic_stringIcSt11char_traitsIcESaIcEE7_M_dataEv
	.section	.text._ZNSt7__cxx1112basic_stringIcSt11char_traitsIcESaIcEE13_M_local_dataEv,"axG",@progbits,_ZNSt7__cxx1112basic_stringIcSt11char_traitsIcESaIcEE13_M_local_dataEv,comdat
	.align 2
	.weak	_ZNSt7__cxx1112basic_stringIcSt11char_traitsIcESaIcEE13_M_local_dataEv
	.type	_ZNSt7__cxx1112basic_stringIcSt11char_traitsIcESaIcEE13_M_local_dataEv, @function
_ZNSt7__cxx1112basic_stringIcSt11char_traitsIcESaIcEE13_M_local_dataEv:
.LFB12595:
	.loc 10 198 7
	.cfi_startproc
	endbr64	
	pushq	%rbp	#
	.cfi_def_cfa_offset 16
	.cfi_offset 6, -16
	movq	%rsp, %rbp	#,
	.cfi_def_cfa_register 6
	subq	$16, %rsp	#,
	movq	%rdi, -8(%rbp)	# this, this
# /usr/include/c++/11/bits/basic_string.h:201: 	return std::pointer_traits<pointer>::pointer_to(*_M_local_buf);
	.loc 10 201 51
	movq	-8(%rbp), %rax	# this, tmp85
	addq	$16, %rax	#, _1
# /usr/include/c++/11/bits/basic_string.h:201: 	return std::pointer_traits<pointer>::pointer_to(*_M_local_buf);
	.loc 10 201 49
	movq	%rax, %rdi	# _1,
	call	_ZNSt14pointer_traitsIPcE10pointer_toERc	#
# /usr/include/c++/11/bits/basic_string.h:205:       }
	.loc 10 205 7
	leave	
	.cfi_def_cfa 7, 8
	ret	
	.cfi_endproc
.LFE12595:
	.size	_ZNSt7__cxx1112basic_stringIcSt11char_traitsIcESaIcEE13_M_local_dataEv, .-_ZNSt7__cxx1112basic_stringIcSt11char_traitsIcESaIcEE13_M_local_dataEv
	.section	.text._ZNSt7__cxx1112basic_stringIcSt11char_traitsIcESaIcEE12_Alloc_hiderC2EPcRKS3_,"axG",@progbits,_ZNSt7__cxx1112basic_stringIcSt11char_traitsIcESaIcEE12_Alloc_hiderC5EPcRKS3_,comdat
	.align 2
	.weak	_ZNSt7__cxx1112basic_stringIcSt11char_traitsIcESaIcEE12_Alloc_hiderC2EPcRKS3_
	.type	_ZNSt7__cxx1112basic_stringIcSt11char_traitsIcESaIcEE12_Alloc_hiderC2EPcRKS3_, @function
_ZNSt7__cxx1112basic_stringIcSt11char_traitsIcESaIcEE12_Alloc_hiderC2EPcRKS3_:
.LFB12597:
	.loc 10 164 2
	.cfi_startproc
	endbr64	
	pushq	%rbp	#
	.cfi_def_cfa_offset 16
	.cfi_offset 6, -16
	movq	%rsp, %rbp	#,
	.cfi_def_cfa_register 6
	subq	$32, %rsp	#,
	movq	%rdi, -8(%rbp)	# this, this
	movq	%rsi, -16(%rbp)	# __dat, __dat
	movq	%rdx, -24(%rbp)	# __a, __a
.LBB56:
# /usr/include/c++/11/bits/basic_string.h:165: 	: allocator_type(__a), _M_p(__dat) { }
	.loc 10 165 35
	movq	-24(%rbp), %rdx	# __a, tmp82
	movq	-8(%rbp), %rax	# this, tmp83
	movq	%rdx, %rsi	# tmp82,
	movq	%rax, %rdi	# tmp83,
	call	_ZNSaIcEC2ERKS_@PLT	#
# /usr/include/c++/11/bits/basic_string.h:165: 	: allocator_type(__a), _M_p(__dat) { }
	.loc 10 165 25
	movq	-8(%rbp), %rax	# this, tmp84
	movq	-16(%rbp), %rdx	# __dat, tmp85
	movq	%rdx, (%rax)	# tmp85, this_2(D)->_M_p
.LBE56:
# /usr/include/c++/11/bits/basic_string.h:165: 	: allocator_type(__a), _M_p(__dat) { }
	.loc 10 165 39
	nop	
	leave	
	.cfi_def_cfa 7, 8
	ret	
	.cfi_endproc
.LFE12597:
	.size	_ZNSt7__cxx1112basic_stringIcSt11char_traitsIcESaIcEE12_Alloc_hiderC2EPcRKS3_, .-_ZNSt7__cxx1112basic_stringIcSt11char_traitsIcESaIcEE12_Alloc_hiderC2EPcRKS3_
	.weak	_ZNSt7__cxx1112basic_stringIcSt11char_traitsIcESaIcEE12_Alloc_hiderC1EPcRKS3_
	.set	_ZNSt7__cxx1112basic_stringIcSt11char_traitsIcESaIcEE12_Alloc_hiderC1EPcRKS3_,_ZNSt7__cxx1112basic_stringIcSt11char_traitsIcESaIcEE12_Alloc_hiderC2EPcRKS3_
	.section	.text._ZNSt7__cxx1112basic_stringIcSt11char_traitsIcESaIcEE10_M_disposeEv,"axG",@progbits,_ZNSt7__cxx1112basic_stringIcSt11char_traitsIcESaIcEE10_M_disposeEv,comdat
	.align 2
	.weak	_ZNSt7__cxx1112basic_stringIcSt11char_traitsIcESaIcEE10_M_disposeEv
	.type	_ZNSt7__cxx1112basic_stringIcSt11char_traitsIcESaIcEE10_M_disposeEv, @function
_ZNSt7__cxx1112basic_stringIcSt11char_traitsIcESaIcEE10_M_disposeEv:
.LFB12600:
	.loc 10 237 7
	.cfi_startproc
	endbr64	
	pushq	%rbp	#
	.cfi_def_cfa_offset 16
	.cfi_offset 6, -16
	movq	%rsp, %rbp	#,
	.cfi_def_cfa_register 6
	subq	$16, %rsp	#,
	movq	%rdi, -8(%rbp)	# this, this
# /usr/include/c++/11/bits/basic_string.h:239: 	if (!_M_is_local())
	.loc 10 239 18
	movq	-8(%rbp), %rax	# this, tmp85
	movq	%rax, %rdi	# tmp85,
	call	_ZNKSt7__cxx1112basic_stringIcSt11char_traitsIcESaIcEE11_M_is_localEv	#
	xorl	$1, %eax	#, retval.73_8
# /usr/include/c++/11/bits/basic_string.h:239: 	if (!_M_is_local())
	.loc 10 239 2
	testb	%al, %al	# retval.73_8
	je	.L190	#,
# /usr/include/c++/11/bits/basic_string.h:240: 	  _M_destroy(_M_allocated_capacity);
	.loc 10 240 14
	movq	-8(%rbp), %rax	# this, tmp86
	movq	16(%rax), %rdx	# this_5(D)->D.46550._M_allocated_capacity, _2
	movq	-8(%rbp), %rax	# this, tmp87
	movq	%rdx, %rsi	# _2,
	movq	%rax, %rdi	# tmp87,
	call	_ZNSt7__cxx1112basic_stringIcSt11char_traitsIcESaIcEE10_M_destroyEm	#
.L190:
# /usr/include/c++/11/bits/basic_string.h:241:       }
	.loc 10 241 7
	nop	
	leave	
	.cfi_def_cfa 7, 8
	ret	
	.cfi_endproc
.LFE12600:
	.size	_ZNSt7__cxx1112basic_stringIcSt11char_traitsIcESaIcEE10_M_disposeEv, .-_ZNSt7__cxx1112basic_stringIcSt11char_traitsIcESaIcEE10_M_disposeEv
	.section	.text._ZNSt7__cxx1112basic_stringIcSt11char_traitsIcESaIcEE16_M_get_allocatorEv,"axG",@progbits,_ZNSt7__cxx1112basic_stringIcSt11char_traitsIcESaIcEE16_M_get_allocatorEv,comdat
	.align 2
	.weak	_ZNSt7__cxx1112basic_stringIcSt11char_traitsIcESaIcEE16_M_get_allocatorEv
	.type	_ZNSt7__cxx1112basic_stringIcSt11char_traitsIcESaIcEE16_M_get_allocatorEv, @function
_ZNSt7__cxx1112basic_stringIcSt11char_traitsIcESaIcEE16_M_get_allocatorEv:
.LFB12601:
	.loc 10 294 7
	.cfi_startproc
	endbr64	
	pushq	%rbp	#
	.cfi_def_cfa_offset 16
	.cfi_offset 6, -16
	movq	%rsp, %rbp	#,
	.cfi_def_cfa_register 6
	movq	%rdi, -8(%rbp)	# this, this
# /usr/include/c++/11/bits/basic_string.h:295:       { return _M_dataplus; }
	.loc 10 295 16
	movq	-8(%rbp), %rax	# this, _2
# /usr/include/c++/11/bits/basic_string.h:295:       { return _M_dataplus; }
	.loc 10 295 29
	popq	%rbp	#
	.cfi_def_cfa 7, 8
	ret	
	.cfi_endproc
.LFE12601:
	.size	_ZNSt7__cxx1112basic_stringIcSt11char_traitsIcESaIcEE16_M_get_allocatorEv, .-_ZNSt7__cxx1112basic_stringIcSt11char_traitsIcESaIcEE16_M_get_allocatorEv
	.section	.text._ZNKSt7__cxx1112basic_stringIcSt11char_traitsIcESaIcEE11_M_is_localEv,"axG",@progbits,_ZNKSt7__cxx1112basic_stringIcSt11char_traitsIcESaIcEE11_M_is_localEv,comdat
	.align 2
	.weak	_ZNKSt7__cxx1112basic_stringIcSt11char_traitsIcESaIcEE11_M_is_localEv
	.type	_ZNKSt7__cxx1112basic_stringIcSt11char_traitsIcESaIcEE11_M_is_localEv, @function
_ZNKSt7__cxx1112basic_stringIcSt11char_traitsIcESaIcEE11_M_is_localEv:
.LFB12606:
	.loc 10 229 7
	.cfi_startproc
	endbr64	
	pushq	%rbp	#
	.cfi_def_cfa_offset 16
	.cfi_offset 6, -16
	movq	%rsp, %rbp	#,
	.cfi_def_cfa_register 6
	pushq	%rbx	#
	subq	$24, %rsp	#,
	.cfi_offset 3, -24
	movq	%rdi, -24(%rbp)	# this, this
# /usr/include/c++/11/bits/basic_string.h:230:       { return _M_data() == _M_local_data(); }
	.loc 10 230 23
	movq	-24(%rbp), %rax	# this, tmp86
	movq	%rax, %rdi	# tmp86,
	call	_ZNKSt7__cxx1112basic_stringIcSt11char_traitsIcESaIcEE7_M_dataEv	#
	movq	%rax, %rbx	#, _1
# /usr/include/c++/11/bits/basic_string.h:230:       { return _M_data() == _M_local_data(); }
	.loc 10 230 42
	movq	-24(%rbp), %rax	# this, tmp87
	movq	%rax, %rdi	# tmp87,
	call	_ZNKSt7__cxx1112basic_stringIcSt11char_traitsIcESaIcEE13_M_local_dataEv	#
# /usr/include/c++/11/bits/basic_string.h:230:       { return _M_data() == _M_local_data(); }
	.loc 10 230 43
	cmpq	%rax, %rbx	# _2, _1
	sete	%al	#, _7
# /usr/include/c++/11/bits/basic_string.h:230:       { return _M_data() == _M_local_data(); }
	.loc 10 230 46
	movq	-8(%rbp), %rbx	#,
	leave	
	.cfi_def_cfa 7, 8
	ret	
	.cfi_endproc
.LFE12606:
	.size	_ZNKSt7__cxx1112basic_stringIcSt11char_traitsIcESaIcEE11_M_is_localEv, .-_ZNKSt7__cxx1112basic_stringIcSt11char_traitsIcESaIcEE11_M_is_localEv
	.section	.text._ZNSt7__cxx1112basic_stringIcSt11char_traitsIcESaIcEE7_M_dataEPc,"axG",@progbits,_ZNSt7__cxx1112basic_stringIcSt11char_traitsIcESaIcEE7_M_dataEPc,comdat
	.align 2
	.weak	_ZNSt7__cxx1112basic_stringIcSt11char_traitsIcESaIcEE7_M_dataEPc
	.type	_ZNSt7__cxx1112basic_stringIcSt11char_traitsIcESaIcEE7_M_dataEPc, @function
_ZNSt7__cxx1112basic_stringIcSt11char_traitsIcESaIcEE7_M_dataEPc:
.LFB12607:
	.loc 10 186 7
	.cfi_startproc
	endbr64	
	pushq	%rbp	#
	.cfi_def_cfa_offset 16
	.cfi_offset 6, -16
	movq	%rsp, %rbp	#,
	.cfi_def_cfa_register 6
	movq	%rdi, -8(%rbp)	# this, this
	movq	%rsi, -16(%rbp)	# __p, __p
# /usr/include/c++/11/bits/basic_string.h:187:       { _M_dataplus._M_p = __p; }
	.loc 10 187 26
	movq	-8(%rbp), %rax	# this, tmp82
	movq	-16(%rbp), %rdx	# __p, tmp83
	movq	%rdx, (%rax)	# tmp83, this_2(D)->_M_dataplus._M_p
# /usr/include/c++/11/bits/basic_string.h:187:       { _M_dataplus._M_p = __p; }
	.loc 10 187 33
	nop	
	popq	%rbp	#
	.cfi_def_cfa 7, 8
	ret	
	.cfi_endproc
.LFE12607:
	.size	_ZNSt7__cxx1112basic_stringIcSt11char_traitsIcESaIcEE7_M_dataEPc, .-_ZNSt7__cxx1112basic_stringIcSt11char_traitsIcESaIcEE7_M_dataEPc
	.section	.text._ZNSt7__cxx1112basic_stringIcSt11char_traitsIcESaIcEE11_M_capacityEm,"axG",@progbits,_ZNSt7__cxx1112basic_stringIcSt11char_traitsIcESaIcEE11_M_capacityEm,comdat
	.align 2
	.weak	_ZNSt7__cxx1112basic_stringIcSt11char_traitsIcESaIcEE11_M_capacityEm
	.type	_ZNSt7__cxx1112basic_stringIcSt11char_traitsIcESaIcEE11_M_capacityEm, @function
_ZNSt7__cxx1112basic_stringIcSt11char_traitsIcESaIcEE11_M_capacityEm:
.LFB12608:
	.loc 10 218 7
	.cfi_startproc
	endbr64	
	pushq	%rbp	#
	.cfi_def_cfa_offset 16
	.cfi_offset 6, -16
	movq	%rsp, %rbp	#,
	.cfi_def_cfa_register 6
	movq	%rdi, -8(%rbp)	# this, this
	movq	%rsi, -16(%rbp)	# __capacity, __capacity
# /usr/include/c++/11/bits/basic_string.h:219:       { _M_allocated_capacity = __capacity; }
	.loc 10 219 31
	movq	-8(%rbp), %rax	# this, tmp82
	movq	-16(%rbp), %rdx	# __capacity, tmp83
	movq	%rdx, 16(%rax)	# tmp83, this_2(D)->D.46550._M_allocated_capacity
# /usr/include/c++/11/bits/basic_string.h:219:       { _M_allocated_capacity = __capacity; }
	.loc 10 219 45
	nop	
	popq	%rbp	#
	.cfi_def_cfa 7, 8
	ret	
	.cfi_endproc
.LFE12608:
	.size	_ZNSt7__cxx1112basic_stringIcSt11char_traitsIcESaIcEE11_M_capacityEm, .-_ZNSt7__cxx1112basic_stringIcSt11char_traitsIcESaIcEE11_M_capacityEm
	.section	.text._ZNSt7__cxx1112basic_stringIcSt11char_traitsIcESaIcEE9_M_lengthEm,"axG",@progbits,_ZNSt7__cxx1112basic_stringIcSt11char_traitsIcESaIcEE9_M_lengthEm,comdat
	.align 2
	.weak	_ZNSt7__cxx1112basic_stringIcSt11char_traitsIcESaIcEE9_M_lengthEm
	.type	_ZNSt7__cxx1112basic_stringIcSt11char_traitsIcESaIcEE9_M_lengthEm, @function
_ZNSt7__cxx1112basic_stringIcSt11char_traitsIcESaIcEE9_M_lengthEm:
.LFB12609:
	.loc 10 190 7
	.cfi_startproc
	endbr64	
	pushq	%rbp	#
	.cfi_def_cfa_offset 16
	.cfi_offset 6, -16
	movq	%rsp, %rbp	#,
	.cfi_def_cfa_register 6
	movq	%rdi, -8(%rbp)	# this, this
	movq	%rsi, -16(%rbp)	# __length, __length
# /usr/include/c++/11/bits/basic_string.h:191:       { _M_string_length = __length; }
	.loc 10 191 26
	movq	-8(%rbp), %rax	# this, tmp82
	movq	-16(%rbp), %rdx	# __length, tmp83
	movq	%rdx, 8(%rax)	# tmp83, this_2(D)->_M_string_length
# /usr/include/c++/11/bits/basic_string.h:191:       { _M_string_length = __length; }
	.loc 10 191 38
	nop	
	popq	%rbp	#
	.cfi_def_cfa 7, 8
	ret	
	.cfi_endproc
.LFE12609:
	.size	_ZNSt7__cxx1112basic_stringIcSt11char_traitsIcESaIcEE9_M_lengthEm, .-_ZNSt7__cxx1112basic_stringIcSt11char_traitsIcESaIcEE9_M_lengthEm
	.section	.text._ZNSt7__cxx1112basic_stringIcSt11char_traitsIcESaIcEE13_M_set_lengthEm,"axG",@progbits,_ZNSt7__cxx1112basic_stringIcSt11char_traitsIcESaIcEE13_M_set_lengthEm,comdat
	.align 2
	.weak	_ZNSt7__cxx1112basic_stringIcSt11char_traitsIcESaIcEE13_M_set_lengthEm
	.type	_ZNSt7__cxx1112basic_stringIcSt11char_traitsIcESaIcEE13_M_set_lengthEm, @function
_ZNSt7__cxx1112basic_stringIcSt11char_traitsIcESaIcEE13_M_set_lengthEm:
.LFB12610:
	.loc 10 222 7
	.cfi_startproc
	endbr64	
	pushq	%rbp	#
	.cfi_def_cfa_offset 16
	.cfi_offset 6, -16
	movq	%rsp, %rbp	#,
	.cfi_def_cfa_register 6
	subq	$32, %rsp	#,
	movq	%rdi, -24(%rbp)	# this, this
	movq	%rsi, -32(%rbp)	# __n, __n
# /usr/include/c++/11/bits/basic_string.h:222:       _M_set_length(size_type __n)
	.loc 10 222 7
	movq	%fs:40, %rax	# MEM[(<address-space-1> long unsigned int *)40B], tmp89
	movq	%rax, -8(%rbp)	# tmp89, D.296616
	xorl	%eax, %eax	# tmp89
# /usr/include/c++/11/bits/basic_string.h:224: 	_M_length(__n);
	.loc 10 224 11
	movq	-32(%rbp), %rdx	# __n, tmp84
	movq	-24(%rbp), %rax	# this, tmp85
	movq	%rdx, %rsi	# tmp84,
	movq	%rax, %rdi	# tmp85,
	call	_ZNSt7__cxx1112basic_stringIcSt11char_traitsIcESaIcEE9_M_lengthEm	#
# /usr/include/c++/11/bits/basic_string.h:225: 	traits_type::assign(_M_data()[__n], _CharT());
	.loc 10 225 21
	movb	$0, -9(%rbp)	#, D.279899
# /usr/include/c++/11/bits/basic_string.h:225: 	traits_type::assign(_M_data()[__n], _CharT());
	.loc 10 225 29
	movq	-24(%rbp), %rax	# this, tmp86
	movq	%rax, %rdi	# tmp86,
	call	_ZNKSt7__cxx1112basic_stringIcSt11char_traitsIcESaIcEE7_M_dataEv	#
# /usr/include/c++/11/bits/basic_string.h:225: 	traits_type::assign(_M_data()[__n], _CharT());
	.loc 10 225 31
	movq	-32(%rbp), %rdx	# __n, tmp87
	addq	%rax, %rdx	# _1, _2
# /usr/include/c++/11/bits/basic_string.h:225: 	traits_type::assign(_M_data()[__n], _CharT());
	.loc 10 225 21
	leaq	-9(%rbp), %rax	#, tmp88
	movq	%rax, %rsi	# tmp88,
	movq	%rdx, %rdi	# _2,
	call	_ZNSt11char_traitsIcE6assignERcRKc	#
# /usr/include/c++/11/bits/basic_string.h:226:       }
	.loc 10 226 7
	nop	
	movq	-8(%rbp), %rax	# D.296616, tmp90
	subq	%fs:40, %rax	# MEM[(<address-space-1> long unsigned int *)40B], tmp90
	je	.L199	#,
	call	__stack_chk_fail@PLT	#
.L199:
	leave	
	.cfi_def_cfa 7, 8
	ret	
	.cfi_endproc
.LFE12610:
	.size	_ZNSt7__cxx1112basic_stringIcSt11char_traitsIcESaIcEE13_M_set_lengthEm, .-_ZNSt7__cxx1112basic_stringIcSt11char_traitsIcESaIcEE13_M_set_lengthEm
	.section	.text._ZSt8distanceIPKcENSt15iterator_traitsIT_E15difference_typeES3_S3_,"axG",@progbits,_ZSt8distanceIPKcENSt15iterator_traitsIT_E15difference_typeES3_S3_,comdat
	.weak	_ZSt8distanceIPKcENSt15iterator_traitsIT_E15difference_typeES3_S3_
	.type	_ZSt8distanceIPKcENSt15iterator_traitsIT_E15difference_typeES3_S3_, @function
_ZSt8distanceIPKcENSt15iterator_traitsIT_E15difference_typeES3_S3_:
.LFB12859:
	.file 18 "/usr/include/c++/11/bits/stl_iterator_base_funcs.h"
	.loc 18 138 5
	.cfi_startproc
	endbr64	
	pushq	%rbp	#
	.cfi_def_cfa_offset 16
	.cfi_offset 6, -16
	movq	%rsp, %rbp	#,
	.cfi_def_cfa_register 6
	subq	$16, %rsp	#,
	movq	%rdi, -8(%rbp)	# __first, __first
	movq	%rsi, -16(%rbp)	# __last, __last
# /usr/include/c++/11/bits/stl_iterator_base_funcs.h:142: 			     std::__iterator_category(__first));
	.loc 18 142 33
	leaq	-8(%rbp), %rax	#, tmp86
	movq	%rax, %rdi	# tmp86,
	call	_ZSt19__iterator_categoryIPKcENSt15iterator_traitsIT_E17iterator_categoryERKS3_	#
# /usr/include/c++/11/bits/stl_iterator_base_funcs.h:141:       return std::__distance(__first, __last,
	.loc 18 141 29
	movq	-8(%rbp), %rax	# __first, __first.63_1
	movq	-16(%rbp), %rdx	# __last, tmp87
	movq	%rdx, %rsi	# tmp87,
	movq	%rax, %rdi	# __first.63_1,
	call	_ZSt10__distanceIPKcENSt15iterator_traitsIT_E15difference_typeES3_S3_St26random_access_iterator_tag	#
# /usr/include/c++/11/bits/stl_iterator_base_funcs.h:143:     }
	.loc 18 143 5
	leave	
	.cfi_def_cfa 7, 8
	ret	
	.cfi_endproc
.LFE12859:
	.size	_ZSt8distanceIPKcENSt15iterator_traitsIT_E15difference_typeES3_S3_, .-_ZSt8distanceIPKcENSt15iterator_traitsIT_E15difference_typeES3_S3_
	.section	.rodata
	.align 8
.LC7:
	.string	"basic_string::_M_construct null not valid"
	.section	.text._ZNSt7__cxx1112basic_stringIcSt11char_traitsIcESaIcEE12_M_constructIPKcEEvT_S8_St20forward_iterator_tag,"axG",@progbits,_ZNSt7__cxx1112basic_stringIcSt11char_traitsIcESaIcEE12_M_constructIPKcEEvT_S8_St20forward_iterator_tag,comdat
	.align 2
	.weak	_ZNSt7__cxx1112basic_stringIcSt11char_traitsIcESaIcEE12_M_constructIPKcEEvT_S8_St20forward_iterator_tag
	.type	_ZNSt7__cxx1112basic_stringIcSt11char_traitsIcESaIcEE12_M_constructIPKcEEvT_S8_St20forward_iterator_tag, @function
_ZNSt7__cxx1112basic_stringIcSt11char_traitsIcESaIcEE12_M_constructIPKcEEvT_S8_St20forward_iterator_tag:
.LFB12858:
	.file 19 "/usr/include/c++/11/bits/basic_string.tcc"
	.loc 19 206 7
	.cfi_startproc
	endbr64	
	pushq	%rbp	#
	.cfi_def_cfa_offset 16
	.cfi_offset 6, -16
	movq	%rsp, %rbp	#,
	.cfi_def_cfa_register 6
	subq	$48, %rsp	#,
	movq	%rdi, -24(%rbp)	# this, this
	movq	%rsi, -32(%rbp)	# __beg, __beg
	movq	%rdx, -40(%rbp)	# __end, __end
# /usr/include/c++/11/bits/basic_string.tcc:206:       basic_string<_CharT, _Traits, _Alloc>::
	.loc 19 206 7
	movq	%fs:40, %rax	# MEM[(<address-space-1> long unsigned int *)40B], tmp105
	movq	%rax, -8(%rbp)	# tmp105, D.296617
	xorl	%eax, %eax	# tmp105
# /usr/include/c++/11/bits/basic_string.tcc:211: 	if (__gnu_cxx::__is_null_pointer(__beg) && __beg != __end)
	.loc 19 211 34
	movq	-32(%rbp), %rax	# __beg, tmp92
	movq	%rax, %rdi	# tmp92,
	call	_ZN9__gnu_cxx17__is_null_pointerIKcEEbPT_	#
# /usr/include/c++/11/bits/basic_string.tcc:211: 	if (__gnu_cxx::__is_null_pointer(__beg) && __beg != __end)
	.loc 19 211 42
	testb	%al, %al	# _1
	je	.L203	#,
# /usr/include/c++/11/bits/basic_string.tcc:211: 	if (__gnu_cxx::__is_null_pointer(__beg) && __beg != __end)
	.loc 19 211 42 is_stmt 0 discriminator 1
	movq	-32(%rbp), %rax	# __beg, tmp93
	cmpq	-40(%rbp), %rax	# __end, tmp93
	je	.L203	#,
# /usr/include/c++/11/bits/basic_string.tcc:211: 	if (__gnu_cxx::__is_null_pointer(__beg) && __beg != __end)
	.loc 19 211 42 discriminator 3
	movl	$1, %eax	#, iftmp.59_10
	jmp	.L204	#
.L203:
# /usr/include/c++/11/bits/basic_string.tcc:211: 	if (__gnu_cxx::__is_null_pointer(__beg) && __beg != __end)
	.loc 19 211 42 discriminator 4
	movl	$0, %eax	#, iftmp.59_10
.L204:
# /usr/include/c++/11/bits/basic_string.tcc:211: 	if (__gnu_cxx::__is_null_pointer(__beg) && __beg != __end)
	.loc 19 211 2 is_stmt 1 discriminator 6
	testb	%al, %al	# iftmp.59_10
	je	.L205	#,
# /usr/include/c++/11/bits/basic_string.tcc:212: 	  std::__throw_logic_error(__N("basic_string::"
	.loc 19 212 28
	leaq	.LC7(%rip), %rax	#, tmp94
	movq	%rax, %rdi	# tmp94,
	call	_ZSt19__throw_logic_errorPKc@PLT	#
.L205:
# /usr/include/c++/11/bits/basic_string.tcc:215: 	size_type __dnew = static_cast<size_type>(std::distance(__beg, __end));
	.loc 19 215 57
	movq	-40(%rbp), %rdx	# __end, tmp95
	movq	-32(%rbp), %rax	# __beg, tmp96
	movq	%rdx, %rsi	# tmp95,
	movq	%rax, %rdi	# tmp96,
	call	_ZSt8distanceIPKcENSt15iterator_traitsIT_E15difference_typeES3_S3_	#
# /usr/include/c++/11/bits/basic_string.tcc:215: 	size_type __dnew = static_cast<size_type>(std::distance(__beg, __end));
	.loc 19 215 12
	movq	%rax, -16(%rbp)	# _3, __dnew
# /usr/include/c++/11/bits/basic_string.tcc:217: 	if (__dnew > size_type(_S_local_capacity))
	.loc 19 217 13
	movq	-16(%rbp), %rax	# __dnew, __dnew.60_4
# /usr/include/c++/11/bits/basic_string.tcc:217: 	if (__dnew > size_type(_S_local_capacity))
	.loc 19 217 2
	cmpq	$15, %rax	#, __dnew.60_4
	jbe	.L206	#,
# /usr/include/c++/11/bits/basic_string.tcc:219: 	    _M_data(_M_create(__dnew, size_type(0)));
	.loc 19 219 13
	leaq	-16(%rbp), %rcx	#, tmp97
	movq	-24(%rbp), %rax	# this, tmp98
	movl	$0, %edx	#,
	movq	%rcx, %rsi	# tmp97,
	movq	%rax, %rdi	# tmp98,
	call	_ZNSt7__cxx1112basic_stringIcSt11char_traitsIcESaIcEE9_M_createERmm	#
	movq	%rax, %rdx	#, _5
	movq	-24(%rbp), %rax	# this, tmp99
	movq	%rdx, %rsi	# _5,
	movq	%rax, %rdi	# tmp99,
	call	_ZNSt7__cxx1112basic_stringIcSt11char_traitsIcESaIcEE7_M_dataEPc	#
# /usr/include/c++/11/bits/basic_string.tcc:220: 	    _M_capacity(__dnew);
	.loc 19 220 17
	movq	-16(%rbp), %rdx	# __dnew, __dnew.61_6
	movq	-24(%rbp), %rax	# this, tmp100
	movq	%rdx, %rsi	# __dnew.61_6,
	movq	%rax, %rdi	# tmp100,
	call	_ZNSt7__cxx1112basic_stringIcSt11char_traitsIcESaIcEE11_M_capacityEm	#
.L206:
# /usr/include/c++/11/bits/basic_string.tcc:225: 	  { this->_S_copy_chars(_M_data(), __beg, __end); }
	.loc 19 225 25
	movq	-24(%rbp), %rax	# this, tmp101
	movq	%rax, %rdi	# tmp101,
	call	_ZNKSt7__cxx1112basic_stringIcSt11char_traitsIcESaIcEE7_M_dataEv	#
	movq	%rax, %rcx	#, _7
	movq	-40(%rbp), %rdx	# __end, tmp102
	movq	-32(%rbp), %rax	# __beg, tmp103
	movq	%rax, %rsi	# tmp103,
	movq	%rcx, %rdi	# _7,
	call	_ZNSt7__cxx1112basic_stringIcSt11char_traitsIcESaIcEE13_S_copy_charsEPcPKcS7_	#
# /usr/include/c++/11/bits/basic_string.tcc:232: 	_M_set_length(__dnew);
	.loc 19 232 15
	movq	-16(%rbp), %rdx	# __dnew, __dnew.62_9
	movq	-24(%rbp), %rax	# this, tmp104
	movq	%rdx, %rsi	# __dnew.62_9,
	movq	%rax, %rdi	# tmp104,
	call	_ZNSt7__cxx1112basic_stringIcSt11char_traitsIcESaIcEE13_M_set_lengthEm	#
# /usr/include/c++/11/bits/basic_string.tcc:233:       }
	.loc 19 233 7
	nop	
	movq	-8(%rbp), %rax	# D.296617, tmp106
	subq	%fs:40, %rax	# MEM[(<address-space-1> long unsigned int *)40B], tmp106
	je	.L207	#,
	call	__stack_chk_fail@PLT	#
.L207:
	leave	
	.cfi_def_cfa 7, 8
	ret	
	.cfi_endproc
.LFE12858:
	.size	_ZNSt7__cxx1112basic_stringIcSt11char_traitsIcESaIcEE12_M_constructIPKcEEvT_S8_St20forward_iterator_tag, .-_ZNSt7__cxx1112basic_stringIcSt11char_traitsIcESaIcEE12_M_constructIPKcEEvT_S8_St20forward_iterator_tag
	.section	.text._ZNKSt7__cxx1112basic_stringIcSt11char_traitsIcESaIcEE16_M_get_allocatorEv,"axG",@progbits,_ZNKSt7__cxx1112basic_stringIcSt11char_traitsIcESaIcEE16_M_get_allocatorEv,comdat
	.align 2
	.weak	_ZNKSt7__cxx1112basic_stringIcSt11char_traitsIcESaIcEE16_M_get_allocatorEv
	.type	_ZNKSt7__cxx1112basic_stringIcSt11char_traitsIcESaIcEE16_M_get_allocatorEv, @function
_ZNKSt7__cxx1112basic_stringIcSt11char_traitsIcESaIcEE16_M_get_allocatorEv:
.LFB12909:
	.loc 10 298 7
	.cfi_startproc
	endbr64	
	pushq	%rbp	#
	.cfi_def_cfa_offset 16
	.cfi_offset 6, -16
	movq	%rsp, %rbp	#,
	.cfi_def_cfa_register 6
	movq	%rdi, -8(%rbp)	# this, this
# /usr/include/c++/11/bits/basic_string.h:299:       { return _M_dataplus; }
	.loc 10 299 16
	movq	-8(%rbp), %rax	# this, _2
# /usr/include/c++/11/bits/basic_string.h:299:       { return _M_dataplus; }
	.loc 10 299 29
	popq	%rbp	#
	.cfi_def_cfa 7, 8
	ret	
	.cfi_endproc
.LFE12909:
	.size	_ZNKSt7__cxx1112basic_stringIcSt11char_traitsIcESaIcEE16_M_get_allocatorEv, .-_ZNKSt7__cxx1112basic_stringIcSt11char_traitsIcESaIcEE16_M_get_allocatorEv
	.section	.text._ZNSt7__cxx1112basic_stringIcSt11char_traitsIcESaIcEE10_M_destroyEm,"axG",@progbits,_ZNSt7__cxx1112basic_stringIcSt11char_traitsIcESaIcEE10_M_destroyEm,comdat
	.align 2
	.weak	_ZNSt7__cxx1112basic_stringIcSt11char_traitsIcESaIcEE10_M_destroyEm
	.type	_ZNSt7__cxx1112basic_stringIcSt11char_traitsIcESaIcEE10_M_destroyEm, @function
_ZNSt7__cxx1112basic_stringIcSt11char_traitsIcESaIcEE10_M_destroyEm:
.LFB12915:
	.loc 10 244 7
	.cfi_startproc
	.cfi_personality 0x9b,DW.ref.__gxx_personality_v0
	.cfi_lsda 0x1b,.LLSDA12915
	endbr64	
	pushq	%rbp	#
	.cfi_def_cfa_offset 16
	.cfi_offset 6, -16
	movq	%rsp, %rbp	#,
	.cfi_def_cfa_register 6
	pushq	%r12	#
	pushq	%rbx	#
	subq	$16, %rsp	#,
	.cfi_offset 12, -24
	.cfi_offset 3, -32
	movq	%rdi, -24(%rbp)	# this, this
	movq	%rsi, -32(%rbp)	# __size, __size
# /usr/include/c++/11/bits/basic_string.h:245:       { _Alloc_traits::deallocate(_M_get_allocator(), _M_data(), __size + 1); }
	.loc 10 245 34
	movq	-32(%rbp), %rax	# __size, tmp85
	leaq	1(%rax), %rbx	#, _1
	movq	-24(%rbp), %rax	# this, tmp86
	movq	%rax, %rdi	# tmp86,
	call	_ZNKSt7__cxx1112basic_stringIcSt11char_traitsIcESaIcEE7_M_dataEv	#
	movq	%rax, %r12	#, _2
# /usr/include/c++/11/bits/basic_string.h:245:       { _Alloc_traits::deallocate(_M_get_allocator(), _M_data(), __size + 1); }
	.loc 10 245 51
	movq	-24(%rbp), %rax	# this, tmp87
	movq	%rax, %rdi	# tmp87,
	call	_ZNSt7__cxx1112basic_stringIcSt11char_traitsIcESaIcEE16_M_get_allocatorEv	#
# /usr/include/c++/11/bits/basic_string.h:245:       { _Alloc_traits::deallocate(_M_get_allocator(), _M_data(), __size + 1); }
	.loc 10 245 34
	movq	%rbx, %rdx	# _1,
	movq	%r12, %rsi	# _2,
	movq	%rax, %rdi	# _3,
	call	_ZNSt16allocator_traitsISaIcEE10deallocateERS0_Pcm	#
# /usr/include/c++/11/bits/basic_string.h:245:       { _Alloc_traits::deallocate(_M_get_allocator(), _M_data(), __size + 1); }
	.loc 10 245 79
	nop	
	addq	$16, %rsp	#,
	popq	%rbx	#
	popq	%r12	#
	popq	%rbp	#
	.cfi_def_cfa 7, 8
	ret	
	.cfi_endproc
.LFE12915:
	.section	.gcc_except_table
.LLSDA12915:
	.byte	0xff
	.byte	0xff
	.byte	0x1
	.uleb128 .LLSDACSE12915-.LLSDACSB12915
.LLSDACSB12915:
.LLSDACSE12915:
	.section	.text._ZNSt7__cxx1112basic_stringIcSt11char_traitsIcESaIcEE10_M_destroyEm,"axG",@progbits,_ZNSt7__cxx1112basic_stringIcSt11char_traitsIcESaIcEE10_M_destroyEm,comdat
	.size	_ZNSt7__cxx1112basic_stringIcSt11char_traitsIcESaIcEE10_M_destroyEm, .-_ZNSt7__cxx1112basic_stringIcSt11char_traitsIcESaIcEE10_M_destroyEm
	.section	.text._ZNSt7__cxx1112basic_stringIcSt11char_traitsIcESaIcEE7_S_copyEPcPKcm,"axG",@progbits,_ZNSt7__cxx1112basic_stringIcSt11char_traitsIcESaIcEE7_S_copyEPcPKcm,comdat
	.weak	_ZNSt7__cxx1112basic_stringIcSt11char_traitsIcESaIcEE7_S_copyEPcPKcm
	.type	_ZNSt7__cxx1112basic_stringIcSt11char_traitsIcESaIcEE7_S_copyEPcPKcm, @function
_ZNSt7__cxx1112basic_stringIcSt11char_traitsIcESaIcEE7_S_copyEPcPKcm:
.LFB12917:
	.loc 10 354 7
	.cfi_startproc
	endbr64	
	pushq	%rbp	#
	.cfi_def_cfa_offset 16
	.cfi_offset 6, -16
	movq	%rsp, %rbp	#,
	.cfi_def_cfa_register 6
	subq	$32, %rsp	#,
	movq	%rdi, -8(%rbp)	# __d, __d
	movq	%rsi, -16(%rbp)	# __s, __s
	movq	%rdx, -24(%rbp)	# __n, __n
# /usr/include/c++/11/bits/basic_string.h:356: 	if (__n == 1)
	.loc 10 356 2
	cmpq	$1, -24(%rbp)	#, __n
	jne	.L212	#,
# /usr/include/c++/11/bits/basic_string.h:357: 	  traits_type::assign(*__d, *__s);
	.loc 10 357 23
	movq	-16(%rbp), %rdx	# __s, tmp82
	movq	-8(%rbp), %rax	# __d, tmp83
	movq	%rdx, %rsi	# tmp82,
	movq	%rax, %rdi	# tmp83,
	call	_ZNSt11char_traitsIcE6assignERcRKc	#
# /usr/include/c++/11/bits/basic_string.h:360:       }
	.loc 10 360 7
	jmp	.L214	#
.L212:
# /usr/include/c++/11/bits/basic_string.h:359: 	  traits_type::copy(__d, __s, __n);
	.loc 10 359 21
	movq	-24(%rbp), %rdx	# __n, tmp84
	movq	-16(%rbp), %rcx	# __s, tmp85
	movq	-8(%rbp), %rax	# __d, tmp86
	movq	%rcx, %rsi	# tmp85,
	movq	%rax, %rdi	# tmp86,
	call	_ZNSt11char_traitsIcE4copyEPcPKcm	#
.L214:
# /usr/include/c++/11/bits/basic_string.h:360:       }
	.loc 10 360 7
	nop	
	leave	
	.cfi_def_cfa 7, 8
	ret	
	.cfi_endproc
.LFE12917:
	.size	_ZNSt7__cxx1112basic_stringIcSt11char_traitsIcESaIcEE7_S_copyEPcPKcm, .-_ZNSt7__cxx1112basic_stringIcSt11char_traitsIcESaIcEE7_S_copyEPcPKcm
	.section	.text._ZNSt16allocator_traitsISaIcEE8allocateERS0_m,"axG",@progbits,_ZNSt16allocator_traitsISaIcEE8allocateERS0_m,comdat
	.weak	_ZNSt16allocator_traitsISaIcEE8allocateERS0_m
	.type	_ZNSt16allocator_traitsISaIcEE8allocateERS0_m, @function
_ZNSt16allocator_traitsISaIcEE8allocateERS0_m:
.LFB12920:
	.file 20 "/usr/include/c++/11/bits/alloc_traits.h"
	.loc 20 463 7
	.cfi_startproc
	endbr64	
	pushq	%rbp	#
	.cfi_def_cfa_offset 16
	.cfi_offset 6, -16
	movq	%rsp, %rbp	#,
	.cfi_def_cfa_register 6
	subq	$32, %rsp	#,
	movq	%rdi, -24(%rbp)	# __a, __a
	movq	%rsi, -32(%rbp)	# __n, __n
	movq	-24(%rbp), %rax	# __a, tmp85
	movq	%rax, -16(%rbp)	# tmp85, this
	movq	-32(%rbp), %rax	# __n, tmp86
	movq	%rax, -8(%rbp)	# tmp86, __n
.LBB57:
.LBB58:
# /usr/include/c++/11/bits/allocator.h:182: 	if (std::is_constant_evaluated())
	.loc 13 182 32
	call	_ZSt21is_constant_evaluatedv	#
# /usr/include/c++/11/bits/allocator.h:182: 	if (std::is_constant_evaluated())
	.loc 13 182 2
	testb	%al, %al	# retval.66_8
	je	.L216	#,
# /usr/include/c++/11/bits/allocator.h:183: 	  return static_cast<_Tp*>(::operator new(__n * sizeof(_Tp)));
	.loc 13 183 43
	movq	-8(%rbp), %rax	# __n, tmp87
	movq	%rax, %rdi	# tmp87,
	call	_Znwm@PLT	#
# /usr/include/c++/11/bits/allocator.h:183: 	  return static_cast<_Tp*>(::operator new(__n * sizeof(_Tp)));
	.loc 13 183 62
	jmp	.L217	#
.L216:
# /usr/include/c++/11/bits/allocator.h:185: 	return __allocator_base<_Tp>::allocate(__n, 0);
	.loc 13 185 40
	movq	-8(%rbp), %rcx	# __n, tmp89
	movq	-16(%rbp), %rax	# this, tmp90
	movl	$0, %edx	#,
	movq	%rcx, %rsi	# tmp89,
	movq	%rax, %rdi	# tmp90,
	call	_ZN9__gnu_cxx13new_allocatorIcE8allocateEmPKv	#
# /usr/include/c++/11/bits/allocator.h:185: 	return __allocator_base<_Tp>::allocate(__n, 0);
	.loc 13 185 47
	nop	
.L217:
.LBE58:
.LBE57:
# /usr/include/c++/11/bits/alloc_traits.h:464:       { return __a.allocate(__n); }
	.loc 20 464 35
	leave	
	.cfi_def_cfa 7, 8
	ret	
	.cfi_endproc
.LFE12920:
	.size	_ZNSt16allocator_traitsISaIcEE8allocateERS0_m, .-_ZNSt16allocator_traitsISaIcEE8allocateERS0_m
	.section	.text._ZNSt23mersenne_twister_engineImLm64ELm312ELm156ELm31ELm13043109905998158313ELm29ELm6148914691236517205ELm17ELm8202884508482404352ELm37ELm18444473444759240704ELm43ELm6364136223846793005EE4seedEm,"axG",@progbits,_ZNSt23mersenne_twister_engineImLm64ELm312ELm156ELm31ELm13043109905998158313ELm29ELm6148914691236517205ELm17ELm8202884508482404352ELm37ELm18444473444759240704ELm43ELm6364136223846793005EE4seedEm,comdat
	.align 2
	.weak	_ZNSt23mersenne_twister_engineImLm64ELm312ELm156ELm31ELm13043109905998158313ELm29ELm6148914691236517205ELm17ELm8202884508482404352ELm37ELm18444473444759240704ELm43ELm6364136223846793005EE4seedEm
	.type	_ZNSt23mersenne_twister_engineImLm64ELm312ELm156ELm31ELm13043109905998158313ELm29ELm6148914691236517205ELm17ELm8202884508482404352ELm37ELm18444473444759240704ELm43ELm6364136223846793005EE4seedEm, @function
_ZNSt23mersenne_twister_engineImLm64ELm312ELm156ELm31ELm13043109905998158313ELm29ELm6148914691236517205ELm17ELm8202884508482404352ELm37ELm18444473444759240704ELm43ELm6364136223846793005EE4seedEm:
.LFB12983:
	.file 21 "/usr/include/c++/11/bits/random.tcc"
	.loc 21 323 5
	.cfi_startproc
	endbr64	
	pushq	%rbp	#
	.cfi_def_cfa_offset 16
	.cfi_offset 6, -16
	movq	%rsp, %rbp	#,
	.cfi_def_cfa_register 6
	subq	$32, %rsp	#,
	movq	%rdi, -24(%rbp)	# this, this
	movq	%rsi, -32(%rbp)	# __sd, __sd
# /usr/include/c++/11/bits/random.tcc:328: 	__detail::_Shift<_UIntType, __w>::__value>(__sd);
	.loc 21 328 44
	movq	-32(%rbp), %rax	# __sd, tmp87
	movq	%rax, %rdi	# tmp87,
	call	_ZNSt8__detail5__modImLm0ELm1ELm0EEET_S1_	#
# /usr/include/c++/11/bits/random.tcc:327:       _M_x[0] = __detail::__mod<_UIntType,
	.loc 21 327 15
	movq	-24(%rbp), %rdx	# this, tmp88
	movq	%rax, (%rdx)	# _1, this_11(D)->_M_x[0]
.LBB59:
# /usr/include/c++/11/bits/random.tcc:330:       for (size_t __i = 1; __i < state_size; ++__i)
	.loc 21 330 19
	movq	$1, -16(%rbp)	#, __i
# /usr/include/c++/11/bits/random.tcc:330:       for (size_t __i = 1; __i < state_size; ++__i)
	.loc 21 330 7
	jmp	.L220	#
.L221:
.LBB60:
# /usr/include/c++/11/bits/random.tcc:332: 	  _UIntType __x = _M_x[__i - 1];
	.loc 21 332 29 discriminator 3
	movq	-16(%rbp), %rax	# __i, tmp89
	leaq	-1(%rax), %rdx	#, _2
# /usr/include/c++/11/bits/random.tcc:332: 	  _UIntType __x = _M_x[__i - 1];
	.loc 21 332 14 discriminator 3
	movq	-24(%rbp), %rax	# this, tmp90
	movq	(%rax,%rdx,8), %rax	# this_11(D)->_M_x[_2], tmp91
	movq	%rax, -8(%rbp)	# tmp91, __x
# /usr/include/c++/11/bits/random.tcc:333: 	  __x ^= __x >> (__w - 2);
	.loc 21 333 15 discriminator 3
	movq	-8(%rbp), %rax	# __x, tmp92
	shrq	$62, %rax	#, _3
# /usr/include/c++/11/bits/random.tcc:333: 	  __x ^= __x >> (__w - 2);
	.loc 21 333 8 discriminator 3
	xorq	%rax, -8(%rbp)	# _3, __x
# /usr/include/c++/11/bits/random.tcc:334: 	  __x *= __f;
	.loc 21 334 8 discriminator 3
	movq	-8(%rbp), %rax	# __x, tmp94
	movabsq	$6364136223846793005, %rdx	#, tmp95
	imulq	%rdx, %rax	# tmp95, tmp93
	movq	%rax, -8(%rbp)	# tmp93, __x
# /usr/include/c++/11/bits/random.tcc:335: 	  __x += __detail::__mod<_UIntType, __n>(__i);
	.loc 21 335 42 discriminator 3
	movq	-16(%rbp), %rax	# __i, tmp96
	movq	%rax, %rdi	# tmp96,
	call	_ZNSt8__detail5__modImLm312ELm1ELm0EEET_S1_	#
# /usr/include/c++/11/bits/random.tcc:335: 	  __x += __detail::__mod<_UIntType, __n>(__i);
	.loc 21 335 8 discriminator 3
	addq	%rax, -8(%rbp)	# _19, __x
# /usr/include/c++/11/bits/random.tcc:337: 	    __detail::_Shift<_UIntType, __w>::__value>(__x);
	.loc 21 337 48 discriminator 3
	movq	-8(%rbp), %rax	# __x, tmp97
	movq	%rax, %rdi	# tmp97,
	call	_ZNSt8__detail5__modImLm0ELm1ELm0EEET_S1_	#
# /usr/include/c++/11/bits/random.tcc:336: 	  _M_x[__i] = __detail::__mod<_UIntType,
	.loc 21 336 14 discriminator 3
	movq	-24(%rbp), %rdx	# this, tmp98
	movq	-16(%rbp), %rcx	# __i, tmp99
	movq	%rax, (%rdx,%rcx,8)	# _4, this_11(D)->_M_x[__i_5]
.LBE60:
# /usr/include/c++/11/bits/random.tcc:330:       for (size_t __i = 1; __i < state_size; ++__i)
	.loc 21 330 7 discriminator 3
	addq	$1, -16(%rbp)	#, __i
.L220:
# /usr/include/c++/11/bits/random.tcc:330:       for (size_t __i = 1; __i < state_size; ++__i)
	.loc 21 330 32 discriminator 1
	cmpq	$311, -16(%rbp)	#, __i
	jbe	.L221	#,
.LBE59:
# /usr/include/c++/11/bits/random.tcc:339:       _M_p = state_size;
	.loc 21 339 12
	movq	-24(%rbp), %rax	# this, tmp100
	movq	$312, 2496(%rax)	#, this_11(D)->_M_p
# /usr/include/c++/11/bits/random.tcc:340:     }
	.loc 21 340 5
	nop	
	leave	
	.cfi_def_cfa 7, 8
	ret	
	.cfi_endproc
.LFE12983:
	.size	_ZNSt23mersenne_twister_engineImLm64ELm312ELm156ELm31ELm13043109905998158313ELm29ELm6148914691236517205ELm17ELm8202884508482404352ELm37ELm18444473444759240704ELm43ELm6364136223846793005EE4seedEm, .-_ZNSt23mersenne_twister_engineImLm64ELm312ELm156ELm31ELm13043109905998158313ELm29ELm6148914691236517205ELm17ELm8202884508482404352ELm37ELm18444473444759240704ELm43ELm6364136223846793005EE4seedEm
	.section	.text._ZNSt24uniform_int_distributionIxE10param_typeC2Exx,"axG",@progbits,_ZNSt24uniform_int_distributionIxE10param_typeC5Exx,comdat
	.align 2
	.weak	_ZNSt24uniform_int_distributionIxE10param_typeC2Exx
	.type	_ZNSt24uniform_int_distributionIxE10param_typeC2Exx, @function
_ZNSt24uniform_int_distributionIxE10param_typeC2Exx:
.LFB12985:
	.loc 12 93 2
	.cfi_startproc
	endbr64	
	pushq	%rbp	#
	.cfi_def_cfa_offset 16
	.cfi_offset 6, -16
	movq	%rsp, %rbp	#,
	.cfi_def_cfa_register 6
	movq	%rdi, -8(%rbp)	# this, this
	movq	%rsi, -16(%rbp)	# __a, __a
	movq	%rdx, -24(%rbp)	# __b, __b
.LBB61:
# /usr/include/c++/11/bits/uniform_int_dist.h:95: 	: _M_a(__a), _M_b(__b)
	.loc 12 95 4
	movq	-8(%rbp), %rax	# this, tmp82
	movq	-16(%rbp), %rdx	# __a, tmp83
	movq	%rdx, (%rax)	# tmp83, this_2(D)->_M_a
# /usr/include/c++/11/bits/uniform_int_dist.h:95: 	: _M_a(__a), _M_b(__b)
	.loc 12 95 15
	movq	-8(%rbp), %rax	# this, tmp84
	movq	-24(%rbp), %rdx	# __b, tmp85
	movq	%rdx, 8(%rax)	# tmp85, this_2(D)->_M_b
.LBE61:
# /usr/include/c++/11/bits/uniform_int_dist.h:98: 	}
	.loc 12 98 2
	nop	
	popq	%rbp	#
	.cfi_def_cfa 7, 8
	ret	
	.cfi_endproc
.LFE12985:
	.size	_ZNSt24uniform_int_distributionIxE10param_typeC2Exx, .-_ZNSt24uniform_int_distributionIxE10param_typeC2Exx
	.weak	_ZNSt24uniform_int_distributionIxE10param_typeC1Exx
	.set	_ZNSt24uniform_int_distributionIxE10param_typeC1Exx,_ZNSt24uniform_int_distributionIxE10param_typeC2Exx
	.section	.text._ZNSt24uniform_int_distributionIxEclISt23mersenne_twister_engineImLm64ELm312ELm156ELm31ELm13043109905998158313ELm29ELm6148914691236517205ELm17ELm8202884508482404352ELm37ELm18444473444759240704ELm43ELm6364136223846793005EEEExRT_RKNS0_10param_typeE,"axG",@progbits,_ZNSt24uniform_int_distributionIxEclISt23mersenne_twister_engineImLm64ELm312ELm156ELm31ELm13043109905998158313ELm29ELm6148914691236517205ELm17ELm8202884508482404352ELm37ELm18444473444759240704ELm43ELm6364136223846793005EEEExRT_RKNS0_10param_typeE,comdat
	.align 2
	.weak	_ZNSt24uniform_int_distributionIxEclISt23mersenne_twister_engineImLm64ELm312ELm156ELm31ELm13043109905998158313ELm29ELm6148914691236517205ELm17ELm8202884508482404352ELm37ELm18444473444759240704ELm43ELm6364136223846793005EEEExRT_RKNS0_10param_typeE
	.type	_ZNSt24uniform_int_distributionIxEclISt23mersenne_twister_engineImLm64ELm312ELm156ELm31ELm13043109905998158313ELm29ELm6148914691236517205ELm17ELm8202884508482404352ELm37ELm18444473444759240704ELm43ELm6364136223846793005EEEExRT_RKNS0_10param_typeE, @function
_ZNSt24uniform_int_distributionIxEclISt23mersenne_twister_engineImLm64ELm312ELm156ELm31ELm13043109905998158313ELm29ELm6148914691236517205ELm17ELm8202884508482404352ELm37ELm18444473444759240704ELm43ELm6364136223846793005EEEExRT_RKNS0_10param_typeE:
.LFB12987:
	.loc 12 276 7
	.cfi_startproc
	endbr64	
	pushq	%rbp	#
	.cfi_def_cfa_offset 16
	.cfi_offset 6, -16
	movq	%rsp, %rbp	#,
	.cfi_def_cfa_register 6
	pushq	%rbx	#
	subq	$136, %rsp	#,
	.cfi_offset 3, -24
	movq	%rdi, -120(%rbp)	# this, this
	movq	%rsi, -128(%rbp)	# __urng, __urng
	movq	%rdx, -136(%rbp)	# __param, __param
# /usr/include/c++/11/bits/uniform_int_dist.h:276:       uniform_int_distribution<_IntType>::
	.loc 12 276 7
	movq	%fs:40, %rax	# MEM[(<address-space-1> long unsigned int *)40B], tmp107
	movq	%rax, -24(%rbp)	# tmp107, D.296619
	xorl	%eax, %eax	# tmp107
# /usr/include/c++/11/bits/uniform_int_dist.h:284: 	constexpr __uctype __urngmin = _UniformRandomBitGenerator::min();
	.loc 12 284 21
	movq	$0, -104(%rbp)	#, __urngmin
# /usr/include/c++/11/bits/uniform_int_dist.h:285: 	constexpr __uctype __urngmax = _UniformRandomBitGenerator::max();
	.loc 12 285 21
	movq	$-1, -88(%rbp)	#, __urngmax
# /usr/include/c++/11/bits/uniform_int_dist.h:288: 	constexpr __uctype __urngrange = __urngmax - __urngmin;
	.loc 12 288 21
	movq	$-1, -80(%rbp)	#, __urngrange
# /usr/include/c++/11/bits/uniform_int_dist.h:291: 	  = __uctype(__param.b()) - __uctype(__param.a());
	.loc 12 291 24
	movq	-136(%rbp), %rax	# __param, tmp93
	movq	%rax, %rdi	# tmp93,
	call	_ZNKSt24uniform_int_distributionIxE10param_type1bEv	#
# /usr/include/c++/11/bits/uniform_int_dist.h:291: 	  = __uctype(__param.b()) - __uctype(__param.a());
	.loc 12 291 6
	movq	%rax, %rbx	# _1, _2
# /usr/include/c++/11/bits/uniform_int_dist.h:291: 	  = __uctype(__param.b()) - __uctype(__param.a());
	.loc 12 291 48
	movq	-136(%rbp), %rax	# __param, tmp94
	movq	%rax, %rdi	# tmp94,
	call	_ZNKSt24uniform_int_distributionIxE10param_type1aEv	#
# /usr/include/c++/11/bits/uniform_int_dist.h:291: 	  = __uctype(__param.b()) - __uctype(__param.a());
	.loc 12 291 30
	movq	%rax, %rdx	# _3, _4
# /usr/include/c++/11/bits/uniform_int_dist.h:290: 	const __uctype __urange
	.loc 12 290 17
	movq	%rbx, %rax	# _2, _2
	subq	%rdx, %rax	# _4, _2
	movq	%rax, -72(%rbp)	# tmp95, __urange
.LBB62:
# /usr/include/c++/11/bits/uniform_int_dist.h:294: 	if (__urngrange > __urange)
	.loc 12 294 2
	cmpq	$-1, -72(%rbp)	#, __urange
	je	.L224	#,
.LBB63:
# /usr/include/c++/11/bits/uniform_int_dist.h:298: 	    const __uctype __uerange = __urange + 1; // __urange can be zero
	.loc 12 298 21
	movq	-72(%rbp), %rax	# __urange, tmp99
	addq	$1, %rax	#, tmp98
	movq	%rax, -64(%rbp)	# tmp98, __uerange
.LBB64:
.LBB65:
# /usr/include/c++/11/bits/uniform_int_dist.h:306: 		__UINT64_TYPE__ __u64erange = __uerange;
	.loc 12 306 19
	movq	-64(%rbp), %rax	# __uerange, tmp100
	movq	%rax, -56(%rbp)	# tmp100, __u64erange
# /usr/include/c++/11/bits/uniform_int_dist.h:307: 		__ret = _S_nd<unsigned __int128>(__urng, __u64erange);
	.loc 12 307 35
	movq	-56(%rbp), %rdx	# __u64erange, tmp101
	movq	-128(%rbp), %rax	# __urng, tmp102
	movq	%rdx, %rsi	# tmp101,
	movq	%rax, %rdi	# tmp102,
	call	_ZNSt24uniform_int_distributionIxE5_S_ndIoSt23mersenne_twister_engineImLm64ELm312ELm156ELm31ELm13043109905998158313ELm29ELm6148914691236517205ELm17ELm8202884508482404352ELm37ELm18444473444759240704ELm43ELm6364136223846793005EEmEET1_RT0_S4_	#
	movq	%rax, -96(%rbp)	# _25, __ret
.LBE65:
.LBE64:
.LBE63:
	jmp	.L225	#
.L224:
.LBB66:
.LBB67:
# /usr/include/c++/11/bits/uniform_int_dist.h:358: 	  __ret = __uctype(__urng()) - __urngmin;
	.loc 12 358 27
	movq	-128(%rbp), %rax	# __urng, tmp103
	movq	%rax, %rdi	# tmp103,
	call	_ZNSt23mersenne_twister_engineImLm64ELm312ELm156ELm31ELm13043109905998158313ELm29ELm6148914691236517205ELm17ELm8202884508482404352ELm37ELm18444473444759240704ELm43ELm6364136223846793005EEclEv	#
	movq	%rax, -96(%rbp)	# _20, __ret
.L225:
.LBE67:
.LBE66:
.LBE62:
# /usr/include/c++/11/bits/uniform_int_dist.h:360: 	return __ret + __param.a();
	.loc 12 360 26
	movq	-136(%rbp), %rax	# __param, tmp104
	movq	%rax, %rdi	# tmp104,
	call	_ZNKSt24uniform_int_distributionIxE10param_type1aEv	#
	movq	%rax, %rdx	# _8, _9
# /usr/include/c++/11/bits/uniform_int_dist.h:360: 	return __ret + __param.a();
	.loc 12 360 15
	movq	-96(%rbp), %rax	# __ret, tmp105
	addq	%rdx, %rax	# _9, _10
# /usr/include/c++/11/bits/uniform_int_dist.h:361:       }
	.loc 12 361 7
	movq	-24(%rbp), %rdx	# D.296619, tmp108
	subq	%fs:40, %rdx	# MEM[(<address-space-1> long unsigned int *)40B], tmp108
	je	.L227	#,
	call	__stack_chk_fail@PLT	#
.L227:
	movq	-8(%rbp), %rbx	#,
	leave	
	.cfi_def_cfa 7, 8
	ret	
	.cfi_endproc
.LFE12987:
	.size	_ZNSt24uniform_int_distributionIxEclISt23mersenne_twister_engineImLm64ELm312ELm156ELm31ELm13043109905998158313ELm29ELm6148914691236517205ELm17ELm8202884508482404352ELm37ELm18444473444759240704ELm43ELm6364136223846793005EEEExRT_RKNS0_10param_typeE, .-_ZNSt24uniform_int_distributionIxEclISt23mersenne_twister_engineImLm64ELm312ELm156ELm31ELm13043109905998158313ELm29ELm6148914691236517205ELm17ELm8202884508482404352ELm37ELm18444473444759240704ELm43ELm6364136223846793005EEEExRT_RKNS0_10param_typeE
	.section	.text._ZN9__gnu_cxx13new_allocatorISt6vectorIxSaIxEEEC2Ev,"axG",@progbits,_ZN9__gnu_cxx13new_allocatorISt6vectorIxSaIxEEEC5Ev,comdat
	.align 2
	.weak	_ZN9__gnu_cxx13new_allocatorISt6vectorIxSaIxEEEC2Ev
	.type	_ZN9__gnu_cxx13new_allocatorISt6vectorIxSaIxEEEC2Ev, @function
_ZN9__gnu_cxx13new_allocatorISt6vectorIxSaIxEEEC2Ev:
.LFB12991:
	.file 22 "/usr/include/c++/11/ext/new_allocator.h"
	.loc 22 79 7
	.cfi_startproc
	endbr64	
	pushq	%rbp	#
	.cfi_def_cfa_offset 16
	.cfi_offset 6, -16
	movq	%rsp, %rbp	#,
	.cfi_def_cfa_register 6
	movq	%rdi, -8(%rbp)	# this, this
# /usr/include/c++/11/ext/new_allocator.h:79:       new_allocator() _GLIBCXX_USE_NOEXCEPT { }
	.loc 22 79 47
	nop	
	popq	%rbp	#
	.cfi_def_cfa 7, 8
	ret	
	.cfi_endproc
.LFE12991:
	.size	_ZN9__gnu_cxx13new_allocatorISt6vectorIxSaIxEEEC2Ev, .-_ZN9__gnu_cxx13new_allocatorISt6vectorIxSaIxEEEC2Ev
	.weak	_ZN9__gnu_cxx13new_allocatorISt6vectorIxSaIxEEEC1Ev
	.set	_ZN9__gnu_cxx13new_allocatorISt6vectorIxSaIxEEEC1Ev,_ZN9__gnu_cxx13new_allocatorISt6vectorIxSaIxEEEC2Ev
	.section	.rodata
	.align 8
.LC8:
	.string	"cannot create std::vector larger than max_size()"
	.section	.text._ZNSt6vectorIS_IxSaIxEESaIS1_EE17_S_check_init_lenEmRKS2_,"axG",@progbits,_ZNSt6vectorIS_IxSaIxEESaIS1_EE17_S_check_init_lenEmRKS2_,comdat
	.weak	_ZNSt6vectorIS_IxSaIxEESaIS1_EE17_S_check_init_lenEmRKS2_
	.type	_ZNSt6vectorIS_IxSaIxEESaIS1_EE17_S_check_init_lenEmRKS2_, @function
_ZNSt6vectorIS_IxSaIxEESaIS1_EE17_S_check_init_lenEmRKS2_:
.LFB12993:
	.loc 8 1767 7
	.cfi_startproc
	endbr64	
	pushq	%rbp	#
	.cfi_def_cfa_offset 16
	.cfi_offset 6, -16
	movq	%rsp, %rbp	#,
	.cfi_def_cfa_register 6
	pushq	%rbx	#
	subq	$40, %rsp	#,
	.cfi_offset 3, -24
	movq	%rdi, -40(%rbp)	# __n, __n
	movq	%rsi, -48(%rbp)	# __a, __a
# /usr/include/c++/11/bits/stl_vector.h:1767:       _S_check_init_len(size_type __n, const allocator_type& __a)
	.loc 8 1767 7
	movq	%fs:40, %rax	# MEM[(<address-space-1> long unsigned int *)40B], tmp92
	movq	%rax, -24(%rbp)	# tmp92, D.296620
	xorl	%eax, %eax	# tmp92
# /usr/include/c++/11/bits/stl_vector.h:1769: 	if (__n > _S_max_size(_Tp_alloc_type(__a)))
	.loc 8 1769 24
	movq	-48(%rbp), %rdx	# __a, tmp86
	leaq	-25(%rbp), %rax	#, tmp87
	movq	%rdx, %rsi	# tmp86,
	movq	%rax, %rdi	# tmp87,
	call	_ZNSaISt6vectorIxSaIxEEEC1ERKS2_	#
# /usr/include/c++/11/bits/stl_vector.h:1769: 	if (__n > _S_max_size(_Tp_alloc_type(__a)))
	.loc 8 1769 23
	leaq	-25(%rbp), %rax	#, tmp88
	movq	%rax, %rdi	# tmp88,
	call	_ZNSt6vectorIS_IxSaIxEESaIS1_EE11_S_max_sizeERKS2_	#
# /usr/include/c++/11/bits/stl_vector.h:1769: 	if (__n > _S_max_size(_Tp_alloc_type(__a)))
	.loc 8 1769 10
	cmpq	%rax, -40(%rbp)	# _1, __n
	seta	%bl	#, retval.19_7
# /usr/include/c++/11/bits/stl_vector.h:1769: 	if (__n > _S_max_size(_Tp_alloc_type(__a)))
	.loc 8 1769 24
	leaq	-25(%rbp), %rax	#, tmp89
	movq	%rax, %rdi	# tmp89,
	call	_ZNSaISt6vectorIxSaIxEEED1Ev	#
# /usr/include/c++/11/bits/stl_vector.h:1769: 	if (__n > _S_max_size(_Tp_alloc_type(__a)))
	.loc 8 1769 2
	testb	%bl, %bl	# retval.19_7
	je	.L230	#,
# /usr/include/c++/11/bits/stl_vector.h:1770: 	  __throw_length_error(
	.loc 8 1770 24
	leaq	.LC8(%rip), %rax	#, tmp90
	movq	%rax, %rdi	# tmp90,
	call	_ZSt20__throw_length_errorPKc@PLT	#
.L230:
# /usr/include/c++/11/bits/stl_vector.h:1772: 	return __n;
	.loc 8 1772 9
	movq	-40(%rbp), %rax	# __n, _10
# /usr/include/c++/11/bits/stl_vector.h:1773:       }
	.loc 8 1773 7
	movq	-24(%rbp), %rdx	# D.296620, tmp93
	subq	%fs:40, %rdx	# MEM[(<address-space-1> long unsigned int *)40B], tmp93
	je	.L232	#,
	call	__stack_chk_fail@PLT	#
.L232:
	movq	-8(%rbp), %rbx	#,
	leave	
	.cfi_def_cfa 7, 8
	ret	
	.cfi_endproc
.LFE12993:
	.size	_ZNSt6vectorIS_IxSaIxEESaIS1_EE17_S_check_init_lenEmRKS2_, .-_ZNSt6vectorIS_IxSaIxEESaIS1_EE17_S_check_init_lenEmRKS2_
	.section	.text._ZNSt12_Vector_baseISt6vectorIxSaIxEESaIS2_EE12_Vector_implD2Ev,"axG",@progbits,_ZNSt12_Vector_baseISt6vectorIxSaIxEESaIS2_EE12_Vector_implD5Ev,comdat
	.align 2
	.weak	_ZNSt12_Vector_baseISt6vectorIxSaIxEESaIS2_EE12_Vector_implD2Ev
	.type	_ZNSt12_Vector_baseISt6vectorIxSaIxEESaIS2_EE12_Vector_implD2Ev, @function
_ZNSt12_Vector_baseISt6vectorIxSaIxEESaIS2_EE12_Vector_implD2Ev:
.LFB12996:
	.loc 8 128 14
	.cfi_startproc
	endbr64	
	pushq	%rbp	#
	.cfi_def_cfa_offset 16
	.cfi_offset 6, -16
	movq	%rsp, %rbp	#,
	.cfi_def_cfa_register 6
	subq	$16, %rsp	#,
	movq	%rdi, -8(%rbp)	# this, this
.LBB68:
# /usr/include/c++/11/bits/stl_vector.h:128:       struct _Vector_impl
	.loc 8 128 14
	movq	-8(%rbp), %rax	# this, tmp82
	movq	%rax, %rdi	# tmp82,
	call	_ZNSaISt6vectorIxSaIxEEED2Ev	#
.LBE68:
	nop	
	leave	
	.cfi_def_cfa 7, 8
	ret	
	.cfi_endproc
.LFE12996:
	.size	_ZNSt12_Vector_baseISt6vectorIxSaIxEESaIS2_EE12_Vector_implD2Ev, .-_ZNSt12_Vector_baseISt6vectorIxSaIxEESaIS2_EE12_Vector_implD2Ev
	.weak	_ZNSt12_Vector_baseISt6vectorIxSaIxEESaIS2_EE12_Vector_implD1Ev
	.set	_ZNSt12_Vector_baseISt6vectorIxSaIxEESaIS2_EE12_Vector_implD1Ev,_ZNSt12_Vector_baseISt6vectorIxSaIxEESaIS2_EE12_Vector_implD2Ev
	.section	.text._ZNSt12_Vector_baseISt6vectorIxSaIxEESaIS2_EEC2EmRKS3_,"axG",@progbits,_ZNSt12_Vector_baseISt6vectorIxSaIxEESaIS2_EEC5EmRKS3_,comdat
	.align 2
	.weak	_ZNSt12_Vector_baseISt6vectorIxSaIxEESaIS2_EEC2EmRKS3_
	.type	_ZNSt12_Vector_baseISt6vectorIxSaIxEESaIS2_EEC2EmRKS3_, @function
_ZNSt12_Vector_baseISt6vectorIxSaIxEESaIS2_EEC2EmRKS3_:
.LFB12998:
	.loc 8 303 7
	.cfi_startproc
	.cfi_personality 0x9b,DW.ref.__gxx_personality_v0
	.cfi_lsda 0x1b,.LLSDA12998
	endbr64	
	pushq	%rbp	#
	.cfi_def_cfa_offset 16
	.cfi_offset 6, -16
	movq	%rsp, %rbp	#,
	.cfi_def_cfa_register 6
	pushq	%rbx	#
	subq	$40, %rsp	#,
	.cfi_offset 3, -24
	movq	%rdi, -24(%rbp)	# this, this
	movq	%rsi, -32(%rbp)	# __n, __n
	movq	%rdx, -40(%rbp)	# __a, __a
.LBB69:
# /usr/include/c++/11/bits/stl_vector.h:304:       : _M_impl(__a)
	.loc 8 304 9
	movq	-24(%rbp), %rax	# this, _1
	movq	-40(%rbp), %rdx	# __a, tmp85
	movq	%rdx, %rsi	# tmp85,
	movq	%rax, %rdi	# _1,
	call	_ZNSt12_Vector_baseISt6vectorIxSaIxEESaIS2_EE12_Vector_implC1ERKS3_	#
# /usr/include/c++/11/bits/stl_vector.h:305:       { _M_create_storage(__n); }
	.loc 8 305 26
	movq	-32(%rbp), %rdx	# __n, tmp86
	movq	-24(%rbp), %rax	# this, tmp87
	movq	%rdx, %rsi	# tmp86,
	movq	%rax, %rdi	# tmp87,
.LEHB20:
	call	_ZNSt12_Vector_baseISt6vectorIxSaIxEESaIS2_EE17_M_create_storageEm	#
.LEHE20:
.LBE69:
# /usr/include/c++/11/bits/stl_vector.h:305:       { _M_create_storage(__n); }
	.loc 8 305 33
	jmp	.L237	#
.L236:
	endbr64	
.LBB70:
	movq	%rax, %rbx	#, tmp88
	movq	-24(%rbp), %rax	# this, _2
	movq	%rax, %rdi	# _2,
	call	_ZNSt12_Vector_baseISt6vectorIxSaIxEESaIS2_EE12_Vector_implD1Ev	#
	movq	%rbx, %rax	# tmp88, D.296622
	movq	%rax, %rdi	# D.296622,
.LEHB21:
	call	_Unwind_Resume@PLT	#
.LEHE21:
.L237:
.LBE70:
	movq	-8(%rbp), %rbx	#,
	leave	
	.cfi_def_cfa 7, 8
	ret	
	.cfi_endproc
.LFE12998:
	.section	.gcc_except_table
.LLSDA12998:
	.byte	0xff
	.byte	0xff
	.byte	0x1
	.uleb128 .LLSDACSE12998-.LLSDACSB12998
.LLSDACSB12998:
	.uleb128 .LEHB20-.LFB12998
	.uleb128 .LEHE20-.LEHB20
	.uleb128 .L236-.LFB12998
	.uleb128 0
	.uleb128 .LEHB21-.LFB12998
	.uleb128 .LEHE21-.LEHB21
	.uleb128 0
	.uleb128 0
.LLSDACSE12998:
	.section	.text._ZNSt12_Vector_baseISt6vectorIxSaIxEESaIS2_EEC2EmRKS3_,"axG",@progbits,_ZNSt12_Vector_baseISt6vectorIxSaIxEESaIS2_EEC5EmRKS3_,comdat
	.size	_ZNSt12_Vector_baseISt6vectorIxSaIxEESaIS2_EEC2EmRKS3_, .-_ZNSt12_Vector_baseISt6vectorIxSaIxEESaIS2_EEC2EmRKS3_
	.weak	_ZNSt12_Vector_baseISt6vectorIxSaIxEESaIS2_EEC1EmRKS3_
	.set	_ZNSt12_Vector_baseISt6vectorIxSaIxEESaIS2_EEC1EmRKS3_,_ZNSt12_Vector_baseISt6vectorIxSaIxEESaIS2_EEC2EmRKS3_
	.section	.text._ZNSt12_Vector_baseISt6vectorIxSaIxEESaIS2_EED2Ev,"axG",@progbits,_ZNSt12_Vector_baseISt6vectorIxSaIxEESaIS2_EED5Ev,comdat
	.align 2
	.weak	_ZNSt12_Vector_baseISt6vectorIxSaIxEESaIS2_EED2Ev
	.type	_ZNSt12_Vector_baseISt6vectorIxSaIxEESaIS2_EED2Ev, @function
_ZNSt12_Vector_baseISt6vectorIxSaIxEESaIS2_EED2Ev:
.LFB13001:
	.loc 8 333 7
	.cfi_startproc
	.cfi_personality 0x9b,DW.ref.__gxx_personality_v0
	.cfi_lsda 0x1b,.LLSDA13001
	endbr64	
	pushq	%rbp	#
	.cfi_def_cfa_offset 16
	.cfi_offset 6, -16
	movq	%rsp, %rbp	#,
	.cfi_def_cfa_register 6
	subq	$16, %rsp	#,
	movq	%rdi, -8(%rbp)	# this, this
.LBB71:
# /usr/include/c++/11/bits/stl_vector.h:336: 		      _M_impl._M_end_of_storage - _M_impl._M_start);
	.loc 8 336 17
	movq	-8(%rbp), %rax	# this, tmp89
	movq	16(%rax), %rdx	# this_9(D)->_M_impl.D.259526._M_end_of_storage, _1
# /usr/include/c++/11/bits/stl_vector.h:336: 		      _M_impl._M_end_of_storage - _M_impl._M_start);
	.loc 8 336 45
	movq	-8(%rbp), %rax	# this, tmp90
	movq	(%rax), %rcx	# this_9(D)->_M_impl.D.259526._M_start, _2
# /usr/include/c++/11/bits/stl_vector.h:336: 		      _M_impl._M_end_of_storage - _M_impl._M_start);
	.loc 8 336 35
	movq	%rdx, %rax	# _1, _1
	subq	%rcx, %rax	# _2, _1
	sarq	$3, %rax	#, _3
	movq	%rax, %rdx	# _3, tmp91
	movabsq	$-6148914691236517205, %rax	#, tmp93
	imulq	%rdx, %rax	# tmp91, tmp92
# /usr/include/c++/11/bits/stl_vector.h:335: 	_M_deallocate(_M_impl._M_start,
	.loc 8 335 15
	movq	%rax, %rdx	# _4, _5
	movq	-8(%rbp), %rax	# this, tmp94
	movq	(%rax), %rcx	# this_9(D)->_M_impl.D.259526._M_start, _6
	movq	-8(%rbp), %rax	# this, tmp95
	movq	%rcx, %rsi	# _6,
	movq	%rax, %rdi	# tmp95,
	call	_ZNSt12_Vector_baseISt6vectorIxSaIxEESaIS2_EE13_M_deallocateEPS2_m	#
# /usr/include/c++/11/bits/stl_vector.h:337:       }
	.loc 8 337 7
	movq	-8(%rbp), %rax	# this, _7
	movq	%rax, %rdi	# _7,
	call	_ZNSt12_Vector_baseISt6vectorIxSaIxEESaIS2_EE12_Vector_implD1Ev	#
.LBE71:
	nop	
	leave	
	.cfi_def_cfa 7, 8
	ret	
	.cfi_endproc
.LFE13001:
	.section	.gcc_except_table
.LLSDA13001:
	.byte	0xff
	.byte	0xff
	.byte	0x1
	.uleb128 .LLSDACSE13001-.LLSDACSB13001
.LLSDACSB13001:
.LLSDACSE13001:
	.section	.text._ZNSt12_Vector_baseISt6vectorIxSaIxEESaIS2_EED2Ev,"axG",@progbits,_ZNSt12_Vector_baseISt6vectorIxSaIxEESaIS2_EED5Ev,comdat
	.size	_ZNSt12_Vector_baseISt6vectorIxSaIxEESaIS2_EED2Ev, .-_ZNSt12_Vector_baseISt6vectorIxSaIxEESaIS2_EED2Ev
	.weak	_ZNSt12_Vector_baseISt6vectorIxSaIxEESaIS2_EED1Ev
	.set	_ZNSt12_Vector_baseISt6vectorIxSaIxEESaIS2_EED1Ev,_ZNSt12_Vector_baseISt6vectorIxSaIxEESaIS2_EED2Ev
	.section	.text._ZNSt6vectorIS_IxSaIxEESaIS1_EE21_M_default_initializeEm,"axG",@progbits,_ZNSt6vectorIS_IxSaIxEESaIS1_EE21_M_default_initializeEm,comdat
	.align 2
	.weak	_ZNSt6vectorIS_IxSaIxEESaIS1_EE21_M_default_initializeEm
	.type	_ZNSt6vectorIS_IxSaIxEESaIS1_EE21_M_default_initializeEm, @function
_ZNSt6vectorIS_IxSaIxEESaIS1_EE21_M_default_initializeEm:
.LFB13003:
	.loc 8 1603 7
	.cfi_startproc
	endbr64	
	pushq	%rbp	#
	.cfi_def_cfa_offset 16
	.cfi_offset 6, -16
	movq	%rsp, %rbp	#,
	.cfi_def_cfa_register 6
	subq	$16, %rsp	#,
	movq	%rdi, -8(%rbp)	# this, this
	movq	%rsi, -16(%rbp)	# __n, __n
# /usr/include/c++/11/bits/stl_vector.h:1607: 					   _M_get_Tp_allocator());
	.loc 8 1607 28
	movq	-8(%rbp), %rax	# this, _1
	movq	%rax, %rdi	# _1,
	call	_ZNSt12_Vector_baseISt6vectorIxSaIxEESaIS2_EE19_M_get_Tp_allocatorEv	#
	movq	%rax, %rdx	#, _2
# /usr/include/c++/11/bits/stl_vector.h:1606: 	  std::__uninitialized_default_n_a(this->_M_impl._M_start, __n,
	.loc 8 1606 36
	movq	-8(%rbp), %rax	# this, tmp86
	movq	(%rax), %rax	# this_5(D)->D.260181._M_impl.D.259526._M_start, _3
	movq	-16(%rbp), %rcx	# __n, tmp87
	movq	%rcx, %rsi	# tmp87,
	movq	%rax, %rdi	# _3,
	call	_ZSt27__uninitialized_default_n_aIPSt6vectorIxSaIxEEmS2_ET_S4_T0_RSaIT1_E	#
# /usr/include/c++/11/bits/stl_vector.h:1605: 	this->_M_impl._M_finish =
	.loc 8 1605 26
	movq	-8(%rbp), %rdx	# this, tmp88
	movq	%rax, 8(%rdx)	# _4, this_5(D)->D.260181._M_impl.D.259526._M_finish
# /usr/include/c++/11/bits/stl_vector.h:1608:       }
	.loc 8 1608 7
	nop	
	leave	
	.cfi_def_cfa 7, 8
	ret	
	.cfi_endproc
.LFE13003:
	.size	_ZNSt6vectorIS_IxSaIxEESaIS1_EE21_M_default_initializeEm, .-_ZNSt6vectorIS_IxSaIxEESaIS1_EE21_M_default_initializeEm
	.section	.text._ZNSt12_Vector_baseISt6vectorIxSaIxEESaIS2_EE19_M_get_Tp_allocatorEv,"axG",@progbits,_ZNSt12_Vector_baseISt6vectorIxSaIxEESaIS2_EE19_M_get_Tp_allocatorEv,comdat
	.align 2
	.weak	_ZNSt12_Vector_baseISt6vectorIxSaIxEESaIS2_EE19_M_get_Tp_allocatorEv
	.type	_ZNSt12_Vector_baseISt6vectorIxSaIxEESaIS2_EE19_M_get_Tp_allocatorEv, @function
_ZNSt12_Vector_baseISt6vectorIxSaIxEESaIS2_EE19_M_get_Tp_allocatorEv:
.LFB13004:
	.loc 8 276 7
	.cfi_startproc
	endbr64	
	pushq	%rbp	#
	.cfi_def_cfa_offset 16
	.cfi_offset 6, -16
	movq	%rsp, %rbp	#,
	.cfi_def_cfa_register 6
	movq	%rdi, -8(%rbp)	# this, this
# /usr/include/c++/11/bits/stl_vector.h:277:       { return this->_M_impl; }
	.loc 8 277 22
	movq	-8(%rbp), %rax	# this, _2
# /usr/include/c++/11/bits/stl_vector.h:277:       { return this->_M_impl; }
	.loc 8 277 31
	popq	%rbp	#
	.cfi_def_cfa 7, 8
	ret	
	.cfi_endproc
.LFE13004:
	.size	_ZNSt12_Vector_baseISt6vectorIxSaIxEESaIS2_EE19_M_get_Tp_allocatorEv, .-_ZNSt12_Vector_baseISt6vectorIxSaIxEESaIS2_EE19_M_get_Tp_allocatorEv
	.section	.text._ZSt8_DestroyIPSt6vectorIxSaIxEES2_EvT_S4_RSaIT0_E,"axG",@progbits,_ZSt8_DestroyIPSt6vectorIxSaIxEES2_EvT_S4_RSaIT0_E,comdat
	.weak	_ZSt8_DestroyIPSt6vectorIxSaIxEES2_EvT_S4_RSaIT0_E
	.type	_ZSt8_DestroyIPSt6vectorIxSaIxEES2_EvT_S4_RSaIT0_E, @function
_ZSt8_DestroyIPSt6vectorIxSaIxEES2_EvT_S4_RSaIT0_E:
.LFB13005:
	.loc 20 845 5
	.cfi_startproc
	endbr64	
	pushq	%rbp	#
	.cfi_def_cfa_offset 16
	.cfi_offset 6, -16
	movq	%rsp, %rbp	#,
	.cfi_def_cfa_register 6
	subq	$32, %rsp	#,
	movq	%rdi, -8(%rbp)	# __first, __first
	movq	%rsi, -16(%rbp)	# __last, __last
	movq	%rdx, -24(%rbp)	# D.284325, D.284325
# /usr/include/c++/11/bits/alloc_traits.h:848:       _Destroy(__first, __last);
	.loc 20 848 15
	movq	-16(%rbp), %rdx	# __last, tmp82
	movq	-8(%rbp), %rax	# __first, tmp83
	movq	%rdx, %rsi	# tmp82,
	movq	%rax, %rdi	# tmp83,
	call	_ZSt8_DestroyIPSt6vectorIxSaIxEEEvT_S4_	#
# /usr/include/c++/11/bits/alloc_traits.h:849:     }
	.loc 20 849 5
	nop	
	leave	
	.cfi_def_cfa 7, 8
	ret	
	.cfi_endproc
.LFE13005:
	.size	_ZSt8_DestroyIPSt6vectorIxSaIxEES2_EvT_S4_RSaIT0_E, .-_ZSt8_DestroyIPSt6vectorIxSaIxEES2_EvT_S4_RSaIT0_E
	.section	.text._ZSt12construct_atIxJRKxEEDTgsnwcvPvLi0E_T_pispcl7declvalIT0_EEEEPS3_DpOS4_,"axG",@progbits,_ZSt12construct_atIxJRKxEEDTgsnwcvPvLi0E_T_pispcl7declvalIT0_EEEEPS3_DpOS4_,comdat
	.weak	_ZSt12construct_atIxJRKxEEDTgsnwcvPvLi0E_T_pispcl7declvalIT0_EEEEPS3_DpOS4_
	.type	_ZSt12construct_atIxJRKxEEDTgsnwcvPvLi0E_T_pispcl7declvalIT0_EEEEPS3_DpOS4_, @function
_ZSt12construct_atIxJRKxEEDTgsnwcvPvLi0E_T_pispcl7declvalIT0_EEEEPS3_DpOS4_:
.LFB13007:
	.file 23 "/usr/include/c++/11/bits/stl_construct.h"
	.loc 23 94 5
	.cfi_startproc
	endbr64	
	pushq	%rbp	#
	.cfi_def_cfa_offset 16
	.cfi_offset 6, -16
	movq	%rsp, %rbp	#,
	.cfi_def_cfa_register 6
	pushq	%rbx	#
	subq	$24, %rsp	#,
	.cfi_offset 3, -24
	movq	%rdi, -24(%rbp)	# __location, __location
	movq	%rsi, -32(%rbp)	# __args#0, __args#0
# /usr/include/c++/11/bits/stl_construct.h:97:     { return ::new((void*)__location) _Tp(std::forward<_Args>(__args)...); }
	.loc 23 97 62
	movq	-32(%rbp), %rax	# __args#0, tmp87
	movq	%rax, %rdi	# tmp87,
	call	_ZSt7forwardIRKxEOT_RNSt16remove_referenceIS2_E4typeE	#
# /usr/include/c++/11/bits/stl_construct.h:97:     { return ::new((void*)__location) _Tp(std::forward<_Args>(__args)...); }
	.loc 23 97 73
	movq	(%rax), %rbx	# *_1, _5
# /usr/include/c++/11/bits/stl_construct.h:97:     { return ::new((void*)__location) _Tp(std::forward<_Args>(__args)...); }
	.loc 23 97 20
	movq	-24(%rbp), %rax	# __location, _7
# /usr/include/c++/11/bits/stl_construct.h:97:     { return ::new((void*)__location) _Tp(std::forward<_Args>(__args)...); }
	.loc 23 97 14
	movq	%rax, %rsi	# _7,
	movl	$8, %edi	#,
	call	_ZnwmPv	#
	movq	%rbx, (%rax)	# _5, MEM[(long long int *)_9]
# /usr/include/c++/11/bits/stl_construct.h:97:     { return ::new((void*)__location) _Tp(std::forward<_Args>(__args)...); }
	.loc 23 97 76
	movq	-8(%rbp), %rbx	#,
	leave	
	.cfi_def_cfa 7, 8
	ret	
	.cfi_endproc
.LFE13007:
	.size	_ZSt12construct_atIxJRKxEEDTgsnwcvPvLi0E_T_pispcl7declvalIT0_EEEEPS3_DpOS4_, .-_ZSt12construct_atIxJRKxEEDTgsnwcvPvLi0E_T_pispcl7declvalIT0_EEEEPS3_DpOS4_
	.section	.text._ZNSt16allocator_traitsISaIxEE9constructIxJRKxEEEvRS0_PT_DpOT0_,"axG",@progbits,_ZNSt16allocator_traitsISaIxEE9constructIxJRKxEEEvRS0_PT_DpOT0_,comdat
	.weak	_ZNSt16allocator_traitsISaIxEE9constructIxJRKxEEEvRS0_PT_DpOT0_
	.type	_ZNSt16allocator_traitsISaIxEE9constructIxJRKxEEEvRS0_PT_DpOT0_, @function
_ZNSt16allocator_traitsISaIxEE9constructIxJRKxEEEvRS0_PT_DpOT0_:
.LFB13006:
	.loc 20 511 2
	.cfi_startproc
	endbr64	
	pushq	%rbp	#
	.cfi_def_cfa_offset 16
	.cfi_offset 6, -16
	movq	%rsp, %rbp	#,
	.cfi_def_cfa_register 6
	subq	$32, %rsp	#,
	movq	%rdi, -8(%rbp)	# __a, __a
	movq	%rsi, -16(%rbp)	# __p, __p
	movq	%rdx, -24(%rbp)	# __args#0, __args#0
# /usr/include/c++/11/bits/alloc_traits.h:518: 	  std::construct_at(__p, std::forward<_Args>(__args)...);
	.loc 20 518 21
	movq	-24(%rbp), %rax	# __args#0, tmp83
	movq	%rax, %rdi	# tmp83,
	call	_ZSt7forwardIRKxEOT_RNSt16remove_referenceIS2_E4typeE	#
	movq	%rax, %rdx	#, _1
	movq	-16(%rbp), %rax	# __p, tmp84
	movq	%rdx, %rsi	# _1,
	movq	%rax, %rdi	# tmp84,
	call	_ZSt12construct_atIxJRKxEEDTgsnwcvPvLi0E_T_pispcl7declvalIT0_EEEEPS3_DpOS4_	#
# /usr/include/c++/11/bits/alloc_traits.h:520: 	}
	.loc 20 520 2
	nop	
	leave	
	.cfi_def_cfa 7, 8
	ret	
	.cfi_endproc
.LFE13006:
	.size	_ZNSt16allocator_traitsISaIxEE9constructIxJRKxEEEvRS0_PT_DpOT0_, .-_ZNSt16allocator_traitsISaIxEE9constructIxJRKxEEEvRS0_PT_DpOT0_
	.section	.text._ZNSt6vectorIxSaIxEE3endEv,"axG",@progbits,_ZNSt6vectorIxSaIxEE3endEv,comdat
	.align 2
	.weak	_ZNSt6vectorIxSaIxEE3endEv
	.type	_ZNSt6vectorIxSaIxEE3endEv, @function
_ZNSt6vectorIxSaIxEE3endEv:
.LFB13008:
	.loc 8 829 7
	.cfi_startproc
	endbr64	
	pushq	%rbp	#
	.cfi_def_cfa_offset 16
	.cfi_offset 6, -16
	movq	%rsp, %rbp	#,
	.cfi_def_cfa_register 6
	subq	$32, %rsp	#,
	movq	%rdi, -24(%rbp)	# this, this
# /usr/include/c++/11/bits/stl_vector.h:829:       end() _GLIBCXX_NOEXCEPT
	.loc 8 829 7
	movq	%fs:40, %rax	# MEM[(<address-space-1> long unsigned int *)40B], tmp88
	movq	%rax, -8(%rbp)	# tmp88, D.296623
	xorl	%eax, %eax	# tmp88
# /usr/include/c++/11/bits/stl_vector.h:830:       { return iterator(this->_M_impl._M_finish); }
	.loc 8 830 39
	movq	-24(%rbp), %rax	# this, tmp85
	leaq	8(%rax), %rdx	#, _1
# /usr/include/c++/11/bits/stl_vector.h:830:       { return iterator(this->_M_impl._M_finish); }
	.loc 8 830 16
	leaq	-16(%rbp), %rax	#, tmp86
	movq	%rdx, %rsi	# _1,
	movq	%rax, %rdi	# tmp86,
	call	_ZN9__gnu_cxx17__normal_iteratorIPxSt6vectorIxSaIxEEEC1ERKS1_	#
# /usr/include/c++/11/bits/stl_vector.h:830:       { return iterator(this->_M_impl._M_finish); }
	.loc 8 830 48
	movq	-16(%rbp), %rax	# D.284387, D.295660
# /usr/include/c++/11/bits/stl_vector.h:830:       { return iterator(this->_M_impl._M_finish); }
	.loc 8 830 51
	movq	-8(%rbp), %rdx	# D.296623, tmp89
	subq	%fs:40, %rdx	# MEM[(<address-space-1> long unsigned int *)40B], tmp89
	je	.L248	#,
	call	__stack_chk_fail@PLT	#
.L248:
	leave	
	.cfi_def_cfa 7, 8
	ret	
	.cfi_endproc
.LFE13008:
	.size	_ZNSt6vectorIxSaIxEE3endEv, .-_ZNSt6vectorIxSaIxEE3endEv
	.section	.rodata
.LC9:
	.string	"vector::_M_realloc_insert"
	.section	.text._ZNSt6vectorIxSaIxEE17_M_realloc_insertIJRKxEEEvN9__gnu_cxx17__normal_iteratorIPxS1_EEDpOT_,"axG",@progbits,_ZNSt6vectorIxSaIxEE17_M_realloc_insertIJRKxEEEvN9__gnu_cxx17__normal_iteratorIPxS1_EEDpOT_,comdat
	.align 2
	.weak	_ZNSt6vectorIxSaIxEE17_M_realloc_insertIJRKxEEEvN9__gnu_cxx17__normal_iteratorIPxS1_EEDpOT_
	.type	_ZNSt6vectorIxSaIxEE17_M_realloc_insertIJRKxEEEvN9__gnu_cxx17__normal_iteratorIPxS1_EEDpOT_, @function
_ZNSt6vectorIxSaIxEE17_M_realloc_insertIJRKxEEEvN9__gnu_cxx17__normal_iteratorIPxS1_EEDpOT_:
.LFB13009:
	.loc 14 426 7
	.cfi_startproc
	endbr64	
	pushq	%rbp	#
	.cfi_def_cfa_offset 16
	.cfi_offset 6, -16
	movq	%rsp, %rbp	#,
	.cfi_def_cfa_register 6
	pushq	%rbx	#
	subq	$104, %rsp	#,
	.cfi_offset 3, -24
	movq	%rdi, -88(%rbp)	# this, this
	movq	%rsi, -96(%rbp)	# __position, __position
	movq	%rdx, -104(%rbp)	# __args#0, __args#0
# /usr/include/c++/11/bits/vector.tcc:426:       vector<_Tp, _Alloc>::
	.loc 14 426 7
	movq	%fs:40, %rax	# MEM[(<address-space-1> long unsigned int *)40B], tmp146
	movq	%rax, -24(%rbp)	# tmp146, D.296624
	xorl	%eax, %eax	# tmp146
# /usr/include/c++/11/bits/vector.tcc:436: 	_M_check_len(size_type(1), "vector::_M_realloc_insert");
	.loc 14 436 14
	movq	-88(%rbp), %rax	# this, tmp112
	leaq	.LC9(%rip), %rdx	#, tmp113
	movl	$1, %esi	#,
	movq	%rax, %rdi	# tmp112,
	call	_ZNKSt6vectorIxSaIxEE12_M_check_lenEmPKc	#
	movq	%rax, -72(%rbp)	# _32, __len
# /usr/include/c++/11/bits/vector.tcc:437:       pointer __old_start = this->_M_impl._M_start;
	.loc 14 437 15
	movq	-88(%rbp), %rax	# this, tmp114
	movq	(%rax), %rax	# this_30(D)->D.261229._M_impl.D.260584._M_start, tmp115
	movq	%rax, -64(%rbp)	# tmp115, __old_start
# /usr/include/c++/11/bits/vector.tcc:438:       pointer __old_finish = this->_M_impl._M_finish;
	.loc 14 438 15
	movq	-88(%rbp), %rax	# this, tmp116
	movq	8(%rax), %rax	# this_30(D)->D.261229._M_impl.D.260584._M_finish, tmp117
	movq	%rax, -56(%rbp)	# tmp117, __old_finish
# /usr/include/c++/11/bits/vector.tcc:439:       const size_type __elems_before = __position - begin();
	.loc 14 439 58
	movq	-88(%rbp), %rax	# this, tmp118
	movq	%rax, %rdi	# tmp118,
	call	_ZNSt6vectorIxSaIxEE5beginEv	#
	movq	%rax, -80(%rbp)	# tmp120, D.284395
# /usr/include/c++/11/bits/vector.tcc:439:       const size_type __elems_before = __position - begin();
	.loc 14 439 51
	leaq	-80(%rbp), %rdx	#, tmp121
	leaq	-96(%rbp), %rax	#, tmp122
	movq	%rdx, %rsi	# tmp121,
	movq	%rax, %rdi	# tmp122,
	call	_ZN9__gnu_cxxmiIPxSt6vectorIxSaIxEEEENS_17__normal_iteratorIT_T0_E15difference_typeERKS8_SB_	#
# /usr/include/c++/11/bits/vector.tcc:439:       const size_type __elems_before = __position - begin();
	.loc 14 439 23
	movq	%rax, -48(%rbp)	# _1, __elems_before
# /usr/include/c++/11/bits/vector.tcc:440:       pointer __new_start(this->_M_allocate(__len));
	.loc 14 440 44
	movq	-88(%rbp), %rax	# this, _2
	movq	-72(%rbp), %rdx	# __len, tmp123
	movq	%rdx, %rsi	# tmp123,
	movq	%rax, %rdi	# _2,
	call	_ZNSt12_Vector_baseIxSaIxEE11_M_allocateEm	#
	movq	%rax, -40(%rbp)	# _41, __new_start
# /usr/include/c++/11/bits/vector.tcc:441:       pointer __new_finish(__new_start);
	.loc 14 441 15
	movq	-40(%rbp), %rax	# __new_start, tmp124
	movq	%rax, -32(%rbp)	# tmp124, __new_finish
# /usr/include/c++/11/bits/vector.tcc:449: 	  _Alloc_traits::construct(this->_M_impl,
	.loc 14 449 28
	movq	-104(%rbp), %rax	# __args#0, tmp125
	movq	%rax, %rdi	# tmp125,
	call	_ZSt7forwardIRKxEOT_RNSt16remove_referenceIS2_E4typeE	#
	movq	%rax, %rdx	#, _3
# /usr/include/c++/11/bits/vector.tcc:450: 				   __new_start + __elems_before,
	.loc 14 450 20
	movq	-48(%rbp), %rax	# __elems_before, tmp126
	leaq	0(,%rax,8), %rcx	#, _4
# /usr/include/c++/11/bits/vector.tcc:449: 	  _Alloc_traits::construct(this->_M_impl,
	.loc 14 449 28
	movq	-40(%rbp), %rax	# __new_start, tmp127
	addq	%rax, %rcx	# tmp127, _5
# /usr/include/c++/11/bits/vector.tcc:449: 	  _Alloc_traits::construct(this->_M_impl,
	.loc 14 449 35
	movq	-88(%rbp), %rax	# this, _6
# /usr/include/c++/11/bits/vector.tcc:449: 	  _Alloc_traits::construct(this->_M_impl,
	.loc 14 449 28
	movq	%rcx, %rsi	# _5,
	movq	%rax, %rdi	# _6,
	call	_ZNSt16allocator_traitsISaIxEE9constructIxJRKxEEEvRS0_PT_DpOT0_	#
# /usr/include/c++/11/bits/vector.tcc:456: 	  __new_finish = pointer();
	.loc 14 456 17
	movq	$0, -32(%rbp)	#, __new_finish
# /usr/include/c++/11/bits/vector.tcc:462: 					 __new_start, _M_get_Tp_allocator());
	.loc 14 462 39
	movq	-88(%rbp), %rax	# this, _7
	movq	%rax, %rdi	# _7,
	call	_ZNSt12_Vector_baseIxSaIxEE19_M_get_Tp_allocatorEv	#
	movq	%rax, %rbx	#, _8
# /usr/include/c++/11/bits/vector.tcc:461: 	      __new_finish = _S_relocate(__old_start, __position.base(),
	.loc 14 461 63
	leaq	-96(%rbp), %rax	#, tmp128
	movq	%rax, %rdi	# tmp128,
	call	_ZNK9__gnu_cxx17__normal_iteratorIPxSt6vectorIxSaIxEEE4baseEv	#
# /usr/include/c++/11/bits/vector.tcc:461: 	      __new_finish = _S_relocate(__old_start, __position.base(),
	.loc 14 461 34
	movq	(%rax), %rsi	# *_9, _10
	movq	-40(%rbp), %rdx	# __new_start, tmp129
	movq	-64(%rbp), %rax	# __old_start, tmp130
	movq	%rbx, %rcx	# _8,
	movq	%rax, %rdi	# tmp130,
	call	_ZNSt6vectorIxSaIxEE11_S_relocateEPxS2_S2_RS0_	#
	movq	%rax, -32(%rbp)	# tmp131, __new_finish
# /usr/include/c++/11/bits/vector.tcc:464: 	      ++__new_finish;
	.loc 14 464 8
	addq	$8, -32(%rbp)	#, __new_finish
# /usr/include/c++/11/bits/vector.tcc:467: 					 __new_finish, _M_get_Tp_allocator());
	.loc 14 467 40
	movq	-88(%rbp), %rax	# this, _11
	movq	%rax, %rdi	# _11,
	call	_ZNSt12_Vector_baseIxSaIxEE19_M_get_Tp_allocatorEv	#
	movq	%rax, %rbx	#, _12
# /usr/include/c++/11/bits/vector.tcc:466: 	      __new_finish = _S_relocate(__position.base(), __old_finish,
	.loc 14 466 50
	leaq	-96(%rbp), %rax	#, tmp132
	movq	%rax, %rdi	# tmp132,
	call	_ZNK9__gnu_cxx17__normal_iteratorIPxSt6vectorIxSaIxEEE4baseEv	#
# /usr/include/c++/11/bits/vector.tcc:466: 	      __new_finish = _S_relocate(__position.base(), __old_finish,
	.loc 14 466 34
	movq	(%rax), %rax	# *_13, _14
	movq	-32(%rbp), %rdx	# __new_finish, tmp133
	movq	-56(%rbp), %rsi	# __old_finish, tmp134
	movq	%rbx, %rcx	# _12,
	movq	%rax, %rdi	# _14,
	call	_ZNSt6vectorIxSaIxEE11_S_relocateEPxS2_S2_RS0_	#
	movq	%rax, -32(%rbp)	# tmp135, __new_finish
# /usr/include/c++/11/bits/vector.tcc:500:       _M_deallocate(__old_start,
	.loc 14 500 20
	movq	-88(%rbp), %rax	# this, _22
# /usr/include/c++/11/bits/vector.tcc:501: 		    this->_M_impl._M_end_of_storage - __old_start);
	.loc 14 501 21
	movq	-88(%rbp), %rdx	# this, tmp136
	movq	16(%rdx), %rdx	# this_30(D)->D.261229._M_impl.D.260584._M_end_of_storage, _23
# /usr/include/c++/11/bits/vector.tcc:501: 		    this->_M_impl._M_end_of_storage - __old_start);
	.loc 14 501 39
	subq	-64(%rbp), %rdx	# __old_start, _24
	sarq	$3, %rdx	#, tmp137
# /usr/include/c++/11/bits/vector.tcc:500:       _M_deallocate(__old_start,
	.loc 14 500 20
	movq	-64(%rbp), %rcx	# __old_start, tmp138
	movq	%rcx, %rsi	# tmp138,
	movq	%rax, %rdi	# _22,
	call	_ZNSt12_Vector_baseIxSaIxEE13_M_deallocateEPxm	#
# /usr/include/c++/11/bits/vector.tcc:502:       this->_M_impl._M_start = __new_start;
	.loc 14 502 30
	movq	-88(%rbp), %rax	# this, tmp139
	movq	-40(%rbp), %rdx	# __new_start, tmp140
	movq	%rdx, (%rax)	# tmp140, this_30(D)->D.261229._M_impl.D.260584._M_start
# /usr/include/c++/11/bits/vector.tcc:503:       this->_M_impl._M_finish = __new_finish;
	.loc 14 503 31
	movq	-88(%rbp), %rax	# this, tmp141
	movq	-32(%rbp), %rdx	# __new_finish, tmp142
	movq	%rdx, 8(%rax)	# tmp142, this_30(D)->D.261229._M_impl.D.260584._M_finish
# /usr/include/c++/11/bits/vector.tcc:504:       this->_M_impl._M_end_of_storage = __new_start + __len;
	.loc 14 504 53
	movq	-72(%rbp), %rax	# __len, tmp143
	leaq	0(,%rax,8), %rdx	#, _27
	movq	-40(%rbp), %rax	# __new_start, tmp144
	addq	%rax, %rdx	# tmp144, _28
# /usr/include/c++/11/bits/vector.tcc:504:       this->_M_impl._M_end_of_storage = __new_start + __len;
	.loc 14 504 39
	movq	-88(%rbp), %rax	# this, tmp145
	movq	%rdx, 16(%rax)	# _28, this_30(D)->D.261229._M_impl.D.260584._M_end_of_storage
# /usr/include/c++/11/bits/vector.tcc:505:     }
	.loc 14 505 5
	nop	
	movq	-24(%rbp), %rax	# D.296624, tmp147
	subq	%fs:40, %rax	# MEM[(<address-space-1> long unsigned int *)40B], tmp147
	je	.L250	#,
	call	__stack_chk_fail@PLT	#
.L250:
	movq	-8(%rbp), %rbx	#,
	leave	
	.cfi_def_cfa 7, 8
	ret	
	.cfi_endproc
.LFE13009:
	.size	_ZNSt6vectorIxSaIxEE17_M_realloc_insertIJRKxEEEvN9__gnu_cxx17__normal_iteratorIPxS1_EEDpOT_, .-_ZNSt6vectorIxSaIxEE17_M_realloc_insertIJRKxEEEvN9__gnu_cxx17__normal_iteratorIPxS1_EEDpOT_
	.section	.text._ZN9__gnu_cxx13new_allocatorIxEC2Ev,"axG",@progbits,_ZN9__gnu_cxx13new_allocatorIxEC5Ev,comdat
	.align 2
	.weak	_ZN9__gnu_cxx13new_allocatorIxEC2Ev
	.type	_ZN9__gnu_cxx13new_allocatorIxEC2Ev, @function
_ZN9__gnu_cxx13new_allocatorIxEC2Ev:
.LFB13014:
	.loc 22 79 7
	.cfi_startproc
	endbr64	
	pushq	%rbp	#
	.cfi_def_cfa_offset 16
	.cfi_offset 6, -16
	movq	%rsp, %rbp	#,
	.cfi_def_cfa_register 6
	movq	%rdi, -8(%rbp)	# this, this
# /usr/include/c++/11/ext/new_allocator.h:79:       new_allocator() _GLIBCXX_USE_NOEXCEPT { }
	.loc 22 79 47
	nop	
	popq	%rbp	#
	.cfi_def_cfa 7, 8
	ret	
	.cfi_endproc
.LFE13014:
	.size	_ZN9__gnu_cxx13new_allocatorIxEC2Ev, .-_ZN9__gnu_cxx13new_allocatorIxEC2Ev
	.weak	_ZN9__gnu_cxx13new_allocatorIxEC1Ev
	.set	_ZN9__gnu_cxx13new_allocatorIxEC1Ev,_ZN9__gnu_cxx13new_allocatorIxEC2Ev
	.section	.text._ZNSt6vectorIxSaIxEE17_S_check_init_lenEmRKS0_,"axG",@progbits,_ZNSt6vectorIxSaIxEE17_S_check_init_lenEmRKS0_,comdat
	.weak	_ZNSt6vectorIxSaIxEE17_S_check_init_lenEmRKS0_
	.type	_ZNSt6vectorIxSaIxEE17_S_check_init_lenEmRKS0_, @function
_ZNSt6vectorIxSaIxEE17_S_check_init_lenEmRKS0_:
.LFB13016:
	.loc 8 1767 7
	.cfi_startproc
	endbr64	
	pushq	%rbp	#
	.cfi_def_cfa_offset 16
	.cfi_offset 6, -16
	movq	%rsp, %rbp	#,
	.cfi_def_cfa_register 6
	pushq	%rbx	#
	subq	$40, %rsp	#,
	.cfi_offset 3, -24
	movq	%rdi, -40(%rbp)	# __n, __n
	movq	%rsi, -48(%rbp)	# __a, __a
# /usr/include/c++/11/bits/stl_vector.h:1767:       _S_check_init_len(size_type __n, const allocator_type& __a)
	.loc 8 1767 7
	movq	%fs:40, %rax	# MEM[(<address-space-1> long unsigned int *)40B], tmp92
	movq	%rax, -24(%rbp)	# tmp92, D.296626
	xorl	%eax, %eax	# tmp92
# /usr/include/c++/11/bits/stl_vector.h:1769: 	if (__n > _S_max_size(_Tp_alloc_type(__a)))
	.loc 8 1769 24
	movq	-48(%rbp), %rdx	# __a, tmp86
	leaq	-25(%rbp), %rax	#, tmp87
	movq	%rdx, %rsi	# tmp86,
	movq	%rax, %rdi	# tmp87,
	call	_ZNSaIxEC1ERKS_	#
# /usr/include/c++/11/bits/stl_vector.h:1769: 	if (__n > _S_max_size(_Tp_alloc_type(__a)))
	.loc 8 1769 23
	leaq	-25(%rbp), %rax	#, tmp88
	movq	%rax, %rdi	# tmp88,
	call	_ZNSt6vectorIxSaIxEE11_S_max_sizeERKS0_	#
# /usr/include/c++/11/bits/stl_vector.h:1769: 	if (__n > _S_max_size(_Tp_alloc_type(__a)))
	.loc 8 1769 10
	cmpq	%rax, -40(%rbp)	# _1, __n
	seta	%bl	#, retval.36_7
# /usr/include/c++/11/bits/stl_vector.h:1769: 	if (__n > _S_max_size(_Tp_alloc_type(__a)))
	.loc 8 1769 24
	leaq	-25(%rbp), %rax	#, tmp89
	movq	%rax, %rdi	# tmp89,
	call	_ZNSaIxED1Ev	#
# /usr/include/c++/11/bits/stl_vector.h:1769: 	if (__n > _S_max_size(_Tp_alloc_type(__a)))
	.loc 8 1769 2
	testb	%bl, %bl	# retval.36_7
	je	.L253	#,
# /usr/include/c++/11/bits/stl_vector.h:1770: 	  __throw_length_error(
	.loc 8 1770 24
	leaq	.LC8(%rip), %rax	#, tmp90
	movq	%rax, %rdi	# tmp90,
	call	_ZSt20__throw_length_errorPKc@PLT	#
.L253:
# /usr/include/c++/11/bits/stl_vector.h:1772: 	return __n;
	.loc 8 1772 9
	movq	-40(%rbp), %rax	# __n, _10
# /usr/include/c++/11/bits/stl_vector.h:1773:       }
	.loc 8 1773 7
	movq	-24(%rbp), %rdx	# D.296626, tmp93
	subq	%fs:40, %rdx	# MEM[(<address-space-1> long unsigned int *)40B], tmp93
	je	.L255	#,
	call	__stack_chk_fail@PLT	#
.L255:
	movq	-8(%rbp), %rbx	#,
	leave	
	.cfi_def_cfa 7, 8
	ret	
	.cfi_endproc
.LFE13016:
	.size	_ZNSt6vectorIxSaIxEE17_S_check_init_lenEmRKS0_, .-_ZNSt6vectorIxSaIxEE17_S_check_init_lenEmRKS0_
	.section	.text._ZNSt12_Vector_baseIxSaIxEE12_Vector_implD2Ev,"axG",@progbits,_ZNSt12_Vector_baseIxSaIxEE12_Vector_implD5Ev,comdat
	.align 2
	.weak	_ZNSt12_Vector_baseIxSaIxEE12_Vector_implD2Ev
	.type	_ZNSt12_Vector_baseIxSaIxEE12_Vector_implD2Ev, @function
_ZNSt12_Vector_baseIxSaIxEE12_Vector_implD2Ev:
.LFB13019:
	.loc 8 128 14
	.cfi_startproc
	endbr64	
	pushq	%rbp	#
	.cfi_def_cfa_offset 16
	.cfi_offset 6, -16
	movq	%rsp, %rbp	#,
	.cfi_def_cfa_register 6
	subq	$16, %rsp	#,
	movq	%rdi, -8(%rbp)	# this, this
.LBB72:
# /usr/include/c++/11/bits/stl_vector.h:128:       struct _Vector_impl
	.loc 8 128 14
	movq	-8(%rbp), %rax	# this, tmp82
	movq	%rax, %rdi	# tmp82,
	call	_ZNSaIxED2Ev	#
.LBE72:
	nop	
	leave	
	.cfi_def_cfa 7, 8
	ret	
	.cfi_endproc
.LFE13019:
	.size	_ZNSt12_Vector_baseIxSaIxEE12_Vector_implD2Ev, .-_ZNSt12_Vector_baseIxSaIxEE12_Vector_implD2Ev
	.weak	_ZNSt12_Vector_baseIxSaIxEE12_Vector_implD1Ev
	.set	_ZNSt12_Vector_baseIxSaIxEE12_Vector_implD1Ev,_ZNSt12_Vector_baseIxSaIxEE12_Vector_implD2Ev
	.section	.text._ZNSt12_Vector_baseIxSaIxEEC2EmRKS0_,"axG",@progbits,_ZNSt12_Vector_baseIxSaIxEEC5EmRKS0_,comdat
	.align 2
	.weak	_ZNSt12_Vector_baseIxSaIxEEC2EmRKS0_
	.type	_ZNSt12_Vector_baseIxSaIxEEC2EmRKS0_, @function
_ZNSt12_Vector_baseIxSaIxEEC2EmRKS0_:
.LFB13021:
	.loc 8 303 7
	.cfi_startproc
	.cfi_personality 0x9b,DW.ref.__gxx_personality_v0
	.cfi_lsda 0x1b,.LLSDA13021
	endbr64	
	pushq	%rbp	#
	.cfi_def_cfa_offset 16
	.cfi_offset 6, -16
	movq	%rsp, %rbp	#,
	.cfi_def_cfa_register 6
	pushq	%rbx	#
	subq	$40, %rsp	#,
	.cfi_offset 3, -24
	movq	%rdi, -24(%rbp)	# this, this
	movq	%rsi, -32(%rbp)	# __n, __n
	movq	%rdx, -40(%rbp)	# __a, __a
.LBB73:
# /usr/include/c++/11/bits/stl_vector.h:304:       : _M_impl(__a)
	.loc 8 304 9
	movq	-24(%rbp), %rax	# this, _1
	movq	-40(%rbp), %rdx	# __a, tmp85
	movq	%rdx, %rsi	# tmp85,
	movq	%rax, %rdi	# _1,
	call	_ZNSt12_Vector_baseIxSaIxEE12_Vector_implC1ERKS0_	#
# /usr/include/c++/11/bits/stl_vector.h:305:       { _M_create_storage(__n); }
	.loc 8 305 26
	movq	-32(%rbp), %rdx	# __n, tmp86
	movq	-24(%rbp), %rax	# this, tmp87
	movq	%rdx, %rsi	# tmp86,
	movq	%rax, %rdi	# tmp87,
.LEHB22:
	call	_ZNSt12_Vector_baseIxSaIxEE17_M_create_storageEm	#
.LEHE22:
.LBE73:
# /usr/include/c++/11/bits/stl_vector.h:305:       { _M_create_storage(__n); }
	.loc 8 305 33
	jmp	.L260	#
.L259:
	endbr64	
.LBB74:
	movq	%rax, %rbx	#, tmp88
	movq	-24(%rbp), %rax	# this, _2
	movq	%rax, %rdi	# _2,
	call	_ZNSt12_Vector_baseIxSaIxEE12_Vector_implD1Ev	#
	movq	%rbx, %rax	# tmp88, D.296627
	movq	%rax, %rdi	# D.296627,
.LEHB23:
	call	_Unwind_Resume@PLT	#
.LEHE23:
.L260:
.LBE74:
	movq	-8(%rbp), %rbx	#,
	leave	
	.cfi_def_cfa 7, 8
	ret	
	.cfi_endproc
.LFE13021:
	.section	.gcc_except_table
.LLSDA13021:
	.byte	0xff
	.byte	0xff
	.byte	0x1
	.uleb128 .LLSDACSE13021-.LLSDACSB13021
.LLSDACSB13021:
	.uleb128 .LEHB22-.LFB13021
	.uleb128 .LEHE22-.LEHB22
	.uleb128 .L259-.LFB13021
	.uleb128 0
	.uleb128 .LEHB23-.LFB13021
	.uleb128 .LEHE23-.LEHB23
	.uleb128 0
	.uleb128 0
.LLSDACSE13021:
	.section	.text._ZNSt12_Vector_baseIxSaIxEEC2EmRKS0_,"axG",@progbits,_ZNSt12_Vector_baseIxSaIxEEC5EmRKS0_,comdat
	.size	_ZNSt12_Vector_baseIxSaIxEEC2EmRKS0_, .-_ZNSt12_Vector_baseIxSaIxEEC2EmRKS0_
	.weak	_ZNSt12_Vector_baseIxSaIxEEC1EmRKS0_
	.set	_ZNSt12_Vector_baseIxSaIxEEC1EmRKS0_,_ZNSt12_Vector_baseIxSaIxEEC2EmRKS0_
	.section	.text._ZNSt12_Vector_baseIxSaIxEED2Ev,"axG",@progbits,_ZNSt12_Vector_baseIxSaIxEED5Ev,comdat
	.align 2
	.weak	_ZNSt12_Vector_baseIxSaIxEED2Ev
	.type	_ZNSt12_Vector_baseIxSaIxEED2Ev, @function
_ZNSt12_Vector_baseIxSaIxEED2Ev:
.LFB13024:
	.loc 8 333 7
	.cfi_startproc
	.cfi_personality 0x9b,DW.ref.__gxx_personality_v0
	.cfi_lsda 0x1b,.LLSDA13024
	endbr64	
	pushq	%rbp	#
	.cfi_def_cfa_offset 16
	.cfi_offset 6, -16
	movq	%rsp, %rbp	#,
	.cfi_def_cfa_register 6
	subq	$16, %rsp	#,
	movq	%rdi, -8(%rbp)	# this, this
.LBB75:
# /usr/include/c++/11/bits/stl_vector.h:336: 		      _M_impl._M_end_of_storage - _M_impl._M_start);
	.loc 8 336 17
	movq	-8(%rbp), %rax	# this, tmp89
	movq	16(%rax), %rdx	# this_9(D)->_M_impl.D.260584._M_end_of_storage, _1
# /usr/include/c++/11/bits/stl_vector.h:336: 		      _M_impl._M_end_of_storage - _M_impl._M_start);
	.loc 8 336 45
	movq	-8(%rbp), %rax	# this, tmp90
	movq	(%rax), %rcx	# this_9(D)->_M_impl.D.260584._M_start, _2
# /usr/include/c++/11/bits/stl_vector.h:336: 		      _M_impl._M_end_of_storage - _M_impl._M_start);
	.loc 8 336 35
	movq	%rdx, %rax	# _1, _1
	subq	%rcx, %rax	# _2, _1
	sarq	$3, %rax	#, tmp91
# /usr/include/c++/11/bits/stl_vector.h:335: 	_M_deallocate(_M_impl._M_start,
	.loc 8 335 15
	movq	%rax, %rdx	# _4, _5
	movq	-8(%rbp), %rax	# this, tmp92
	movq	(%rax), %rcx	# this_9(D)->_M_impl.D.260584._M_start, _6
	movq	-8(%rbp), %rax	# this, tmp93
	movq	%rcx, %rsi	# _6,
	movq	%rax, %rdi	# tmp93,
	call	_ZNSt12_Vector_baseIxSaIxEE13_M_deallocateEPxm	#
# /usr/include/c++/11/bits/stl_vector.h:337:       }
	.loc 8 337 7
	movq	-8(%rbp), %rax	# this, _7
	movq	%rax, %rdi	# _7,
	call	_ZNSt12_Vector_baseIxSaIxEE12_Vector_implD1Ev	#
.LBE75:
	nop	
	leave	
	.cfi_def_cfa 7, 8
	ret	
	.cfi_endproc
.LFE13024:
	.section	.gcc_except_table
.LLSDA13024:
	.byte	0xff
	.byte	0xff
	.byte	0x1
	.uleb128 .LLSDACSE13024-.LLSDACSB13024
.LLSDACSB13024:
.LLSDACSE13024:
	.section	.text._ZNSt12_Vector_baseIxSaIxEED2Ev,"axG",@progbits,_ZNSt12_Vector_baseIxSaIxEED5Ev,comdat
	.size	_ZNSt12_Vector_baseIxSaIxEED2Ev, .-_ZNSt12_Vector_baseIxSaIxEED2Ev
	.weak	_ZNSt12_Vector_baseIxSaIxEED1Ev
	.set	_ZNSt12_Vector_baseIxSaIxEED1Ev,_ZNSt12_Vector_baseIxSaIxEED2Ev
	.section	.text._ZNSt6vectorIxSaIxEE18_M_fill_initializeEmRKx,"axG",@progbits,_ZNSt6vectorIxSaIxEE18_M_fill_initializeEmRKx,comdat
	.align 2
	.weak	_ZNSt6vectorIxSaIxEE18_M_fill_initializeEmRKx
	.type	_ZNSt6vectorIxSaIxEE18_M_fill_initializeEmRKx, @function
_ZNSt6vectorIxSaIxEE18_M_fill_initializeEmRKx:
.LFB13026:
	.loc 8 1593 7
	.cfi_startproc
	endbr64	
	pushq	%rbp	#
	.cfi_def_cfa_offset 16
	.cfi_offset 6, -16
	movq	%rsp, %rbp	#,
	.cfi_def_cfa_register 6
	subq	$32, %rsp	#,
	movq	%rdi, -8(%rbp)	# this, this
	movq	%rsi, -16(%rbp)	# __n, __n
	movq	%rdx, -24(%rbp)	# __value, __value
# /usr/include/c++/11/bits/stl_vector.h:1597: 					_M_get_Tp_allocator());
	.loc 8 1597 25
	movq	-8(%rbp), %rax	# this, _1
	movq	%rax, %rdi	# _1,
	call	_ZNSt12_Vector_baseIxSaIxEE19_M_get_Tp_allocatorEv	#
	movq	%rax, %rcx	#, _2
# /usr/include/c++/11/bits/stl_vector.h:1596: 	  std::__uninitialized_fill_n_a(this->_M_impl._M_start, __n, __value,
	.loc 8 1596 33
	movq	-8(%rbp), %rax	# this, tmp86
	movq	(%rax), %rax	# this_5(D)->D.261229._M_impl.D.260584._M_start, _3
	movq	-24(%rbp), %rdx	# __value, tmp87
	movq	-16(%rbp), %rsi	# __n, tmp88
	movq	%rax, %rdi	# _3,
	call	_ZSt24__uninitialized_fill_n_aIPxmxxET_S1_T0_RKT1_RSaIT2_E	#
# /usr/include/c++/11/bits/stl_vector.h:1595: 	this->_M_impl._M_finish =
	.loc 8 1595 26
	movq	-8(%rbp), %rdx	# this, tmp89
	movq	%rax, 8(%rdx)	# _4, this_5(D)->D.261229._M_impl.D.260584._M_finish
# /usr/include/c++/11/bits/stl_vector.h:1598:       }
	.loc 8 1598 7
	nop	
	leave	
	.cfi_def_cfa 7, 8
	ret	
	.cfi_endproc
.LFE13026:
	.size	_ZNSt6vectorIxSaIxEE18_M_fill_initializeEmRKx, .-_ZNSt6vectorIxSaIxEE18_M_fill_initializeEmRKx
	.section	.text._ZNSt12_Vector_baseIxSaIxEE19_M_get_Tp_allocatorEv,"axG",@progbits,_ZNSt12_Vector_baseIxSaIxEE19_M_get_Tp_allocatorEv,comdat
	.align 2
	.weak	_ZNSt12_Vector_baseIxSaIxEE19_M_get_Tp_allocatorEv
	.type	_ZNSt12_Vector_baseIxSaIxEE19_M_get_Tp_allocatorEv, @function
_ZNSt12_Vector_baseIxSaIxEE19_M_get_Tp_allocatorEv:
.LFB13027:
	.loc 8 276 7
	.cfi_startproc
	endbr64	
	pushq	%rbp	#
	.cfi_def_cfa_offset 16
	.cfi_offset 6, -16
	movq	%rsp, %rbp	#,
	.cfi_def_cfa_register 6
	movq	%rdi, -8(%rbp)	# this, this
# /usr/include/c++/11/bits/stl_vector.h:277:       { return this->_M_impl; }
	.loc 8 277 22
	movq	-8(%rbp), %rax	# this, _2
# /usr/include/c++/11/bits/stl_vector.h:277:       { return this->_M_impl; }
	.loc 8 277 31
	popq	%rbp	#
	.cfi_def_cfa 7, 8
	ret	
	.cfi_endproc
.LFE13027:
	.size	_ZNSt12_Vector_baseIxSaIxEE19_M_get_Tp_allocatorEv, .-_ZNSt12_Vector_baseIxSaIxEE19_M_get_Tp_allocatorEv
	.section	.text._ZSt8_DestroyIPxxEvT_S1_RSaIT0_E,"axG",@progbits,_ZSt8_DestroyIPxxEvT_S1_RSaIT0_E,comdat
	.weak	_ZSt8_DestroyIPxxEvT_S1_RSaIT0_E
	.type	_ZSt8_DestroyIPxxEvT_S1_RSaIT0_E, @function
_ZSt8_DestroyIPxxEvT_S1_RSaIT0_E:
.LFB13028:
	.loc 20 845 5
	.cfi_startproc
	endbr64	
	pushq	%rbp	#
	.cfi_def_cfa_offset 16
	.cfi_offset 6, -16
	movq	%rsp, %rbp	#,
	.cfi_def_cfa_register 6
	subq	$32, %rsp	#,
	movq	%rdi, -8(%rbp)	# __first, __first
	movq	%rsi, -16(%rbp)	# __last, __last
	movq	%rdx, -24(%rbp)	# D.284849, D.284849
# /usr/include/c++/11/bits/alloc_traits.h:848:       _Destroy(__first, __last);
	.loc 20 848 15
	movq	-16(%rbp), %rdx	# __last, tmp82
	movq	-8(%rbp), %rax	# __first, tmp83
	movq	%rdx, %rsi	# tmp82,
	movq	%rax, %rdi	# tmp83,
	call	_ZSt8_DestroyIPxEvT_S1_	#
# /usr/include/c++/11/bits/alloc_traits.h:849:     }
	.loc 20 849 5
	nop	
	leave	
	.cfi_def_cfa 7, 8
	ret	
	.cfi_endproc
.LFE13028:
	.size	_ZSt8_DestroyIPxxEvT_S1_RSaIT0_E, .-_ZSt8_DestroyIPxxEvT_S1_RSaIT0_E
	.section	.text._ZNSaISt5tupleIJxxxEEEC2Ev,"axG",@progbits,_ZNSaISt5tupleIJxxxEEEC5Ev,comdat
	.align 2
	.weak	_ZNSaISt5tupleIJxxxEEEC2Ev
	.type	_ZNSaISt5tupleIJxxxEEEC2Ev, @function
_ZNSaISt5tupleIJxxxEEEC2Ev:
.LFB13030:
	.loc 13 156 7
	.cfi_startproc
	endbr64	
	pushq	%rbp	#
	.cfi_def_cfa_offset 16
	.cfi_offset 6, -16
	movq	%rsp, %rbp	#,
	.cfi_def_cfa_register 6
	subq	$16, %rsp	#,
	movq	%rdi, -8(%rbp)	# this, this
.LBB76:
# /usr/include/c++/11/bits/allocator.h:156:       allocator() _GLIBCXX_NOTHROW { }
	.loc 13 156 36
	movq	-8(%rbp), %rax	# this, tmp82
	movq	%rax, %rdi	# tmp82,
	call	_ZN9__gnu_cxx13new_allocatorISt5tupleIJxxxEEEC2Ev	#
.LBE76:
# /usr/include/c++/11/bits/allocator.h:156:       allocator() _GLIBCXX_NOTHROW { }
	.loc 13 156 38
	nop	
	leave	
	.cfi_def_cfa 7, 8
	ret	
	.cfi_endproc
.LFE13030:
	.size	_ZNSaISt5tupleIJxxxEEEC2Ev, .-_ZNSaISt5tupleIJxxxEEEC2Ev
	.weak	_ZNSaISt5tupleIJxxxEEEC1Ev
	.set	_ZNSaISt5tupleIJxxxEEEC1Ev,_ZNSaISt5tupleIJxxxEEEC2Ev
	.section	.text._ZNSt12_Vector_baseISt5tupleIJxxxEESaIS1_EE17_Vector_impl_dataC2Ev,"axG",@progbits,_ZNSt12_Vector_baseISt5tupleIJxxxEESaIS1_EE17_Vector_impl_dataC5Ev,comdat
	.align 2
	.weak	_ZNSt12_Vector_baseISt5tupleIJxxxEESaIS1_EE17_Vector_impl_dataC2Ev
	.type	_ZNSt12_Vector_baseISt5tupleIJxxxEESaIS1_EE17_Vector_impl_dataC2Ev, @function
_ZNSt12_Vector_baseISt5tupleIJxxxEESaIS1_EE17_Vector_impl_dataC2Ev:
.LFB13033:
	.loc 8 97 2
	.cfi_startproc
	endbr64	
	pushq	%rbp	#
	.cfi_def_cfa_offset 16
	.cfi_offset 6, -16
	movq	%rsp, %rbp	#,
	.cfi_def_cfa_register 6
	movq	%rdi, -8(%rbp)	# this, this
.LBB77:
# /usr/include/c++/11/bits/stl_vector.h:98: 	: _M_start(), _M_finish(), _M_end_of_storage()
	.loc 8 98 4
	movq	-8(%rbp), %rax	# this, tmp82
	movq	$0, (%rax)	#, this_2(D)->_M_start
# /usr/include/c++/11/bits/stl_vector.h:98: 	: _M_start(), _M_finish(), _M_end_of_storage()
	.loc 8 98 16
	movq	-8(%rbp), %rax	# this, tmp83
	movq	$0, 8(%rax)	#, this_2(D)->_M_finish
# /usr/include/c++/11/bits/stl_vector.h:98: 	: _M_start(), _M_finish(), _M_end_of_storage()
	.loc 8 98 29
	movq	-8(%rbp), %rax	# this, tmp84
	movq	$0, 16(%rax)	#, this_2(D)->_M_end_of_storage
.LBE77:
# /usr/include/c++/11/bits/stl_vector.h:99: 	{ }
	.loc 8 99 4
	nop	
	popq	%rbp	#
	.cfi_def_cfa 7, 8
	ret	
	.cfi_endproc
.LFE13033:
	.size	_ZNSt12_Vector_baseISt5tupleIJxxxEESaIS1_EE17_Vector_impl_dataC2Ev, .-_ZNSt12_Vector_baseISt5tupleIJxxxEESaIS1_EE17_Vector_impl_dataC2Ev
	.weak	_ZNSt12_Vector_baseISt5tupleIJxxxEESaIS1_EE17_Vector_impl_dataC1Ev
	.set	_ZNSt12_Vector_baseISt5tupleIJxxxEESaIS1_EE17_Vector_impl_dataC1Ev,_ZNSt12_Vector_baseISt5tupleIJxxxEESaIS1_EE17_Vector_impl_dataC2Ev
	.section	.text._ZNSt12_Vector_baseISt5tupleIJxxxEESaIS1_EE13_M_deallocateEPS1_m,"axG",@progbits,_ZNSt12_Vector_baseISt5tupleIJxxxEESaIS1_EE13_M_deallocateEPS1_m,comdat
	.align 2
	.weak	_ZNSt12_Vector_baseISt5tupleIJxxxEESaIS1_EE13_M_deallocateEPS1_m
	.type	_ZNSt12_Vector_baseISt5tupleIJxxxEESaIS1_EE13_M_deallocateEPS1_m, @function
_ZNSt12_Vector_baseISt5tupleIJxxxEESaIS1_EE13_M_deallocateEPS1_m:
.LFB13035:
	.loc 8 350 7
	.cfi_startproc
	endbr64	
	pushq	%rbp	#
	.cfi_def_cfa_offset 16
	.cfi_offset 6, -16
	movq	%rsp, %rbp	#,
	.cfi_def_cfa_register 6
	subq	$32, %rsp	#,
	movq	%rdi, -8(%rbp)	# this, this
	movq	%rsi, -16(%rbp)	# __p, __p
	movq	%rdx, -24(%rbp)	# __n, __n
# /usr/include/c++/11/bits/stl_vector.h:353: 	if (__p)
	.loc 8 353 2
	cmpq	$0, -16(%rbp)	#, __p
	je	.L270	#,
# /usr/include/c++/11/bits/stl_vector.h:354: 	  _Tr::deallocate(_M_impl, __p, __n);
	.loc 8 354 20
	movq	-8(%rbp), %rax	# this, _1
# /usr/include/c++/11/bits/stl_vector.h:354: 	  _Tr::deallocate(_M_impl, __p, __n);
	.loc 8 354 19
	movq	-24(%rbp), %rdx	# __n, tmp83
	movq	-16(%rbp), %rcx	# __p, tmp84
	movq	%rcx, %rsi	# tmp84,
	movq	%rax, %rdi	# _1,
	call	_ZNSt16allocator_traitsISaISt5tupleIJxxxEEEE10deallocateERS2_PS1_m	#
.L270:
# /usr/include/c++/11/bits/stl_vector.h:355:       }
	.loc 8 355 7
	nop	
	leave	
	.cfi_def_cfa 7, 8
	ret	
	.cfi_endproc
.LFE13035:
	.size	_ZNSt12_Vector_baseISt5tupleIJxxxEESaIS1_EE13_M_deallocateEPS1_m, .-_ZNSt12_Vector_baseISt5tupleIJxxxEESaIS1_EE13_M_deallocateEPS1_m
	.section	.text._ZNSt12_Vector_baseISt5tupleIJxxxEESaIS1_EE19_M_get_Tp_allocatorEv,"axG",@progbits,_ZNSt12_Vector_baseISt5tupleIJxxxEESaIS1_EE19_M_get_Tp_allocatorEv,comdat
	.align 2
	.weak	_ZNSt12_Vector_baseISt5tupleIJxxxEESaIS1_EE19_M_get_Tp_allocatorEv
	.type	_ZNSt12_Vector_baseISt5tupleIJxxxEESaIS1_EE19_M_get_Tp_allocatorEv, @function
_ZNSt12_Vector_baseISt5tupleIJxxxEESaIS1_EE19_M_get_Tp_allocatorEv:
.LFB13036:
	.loc 8 276 7
	.cfi_startproc
	endbr64	
	pushq	%rbp	#
	.cfi_def_cfa_offset 16
	.cfi_offset 6, -16
	movq	%rsp, %rbp	#,
	.cfi_def_cfa_register 6
	movq	%rdi, -8(%rbp)	# this, this
# /usr/include/c++/11/bits/stl_vector.h:277:       { return this->_M_impl; }
	.loc 8 277 22
	movq	-8(%rbp), %rax	# this, _2
# /usr/include/c++/11/bits/stl_vector.h:277:       { return this->_M_impl; }
	.loc 8 277 31
	popq	%rbp	#
	.cfi_def_cfa 7, 8
	ret	
	.cfi_endproc
.LFE13036:
	.size	_ZNSt12_Vector_baseISt5tupleIJxxxEESaIS1_EE19_M_get_Tp_allocatorEv, .-_ZNSt12_Vector_baseISt5tupleIJxxxEESaIS1_EE19_M_get_Tp_allocatorEv
	.section	.text._ZSt8_DestroyIPSt5tupleIJxxxEES1_EvT_S3_RSaIT0_E,"axG",@progbits,_ZSt8_DestroyIPSt5tupleIJxxxEES1_EvT_S3_RSaIT0_E,comdat
	.weak	_ZSt8_DestroyIPSt5tupleIJxxxEES1_EvT_S3_RSaIT0_E
	.type	_ZSt8_DestroyIPSt5tupleIJxxxEES1_EvT_S3_RSaIT0_E, @function
_ZSt8_DestroyIPSt5tupleIJxxxEES1_EvT_S3_RSaIT0_E:
.LFB13037:
	.loc 20 845 5
	.cfi_startproc
	endbr64	
	pushq	%rbp	#
	.cfi_def_cfa_offset 16
	.cfi_offset 6, -16
	movq	%rsp, %rbp	#,
	.cfi_def_cfa_register 6
	subq	$32, %rsp	#,
	movq	%rdi, -8(%rbp)	# __first, __first
	movq	%rsi, -16(%rbp)	# __last, __last
	movq	%rdx, -24(%rbp)	# D.284869, D.284869
# /usr/include/c++/11/bits/alloc_traits.h:848:       _Destroy(__first, __last);
	.loc 20 848 15
	movq	-16(%rbp), %rdx	# __last, tmp82
	movq	-8(%rbp), %rax	# __first, tmp83
	movq	%rdx, %rsi	# tmp82,
	movq	%rax, %rdi	# tmp83,
	call	_ZSt8_DestroyIPSt5tupleIJxxxEEEvT_S3_	#
# /usr/include/c++/11/bits/alloc_traits.h:849:     }
	.loc 20 849 5
	nop	
	leave	
	.cfi_def_cfa 7, 8
	ret	
	.cfi_endproc
.LFE13037:
	.size	_ZSt8_DestroyIPSt5tupleIJxxxEES1_EvT_S3_RSaIT0_E, .-_ZSt8_DestroyIPSt5tupleIJxxxEES1_EvT_S3_RSaIT0_E
	.section	.text._ZNKSt6vectorISt5tupleIJxxxEESaIS1_EE8max_sizeEv,"axG",@progbits,_ZNKSt6vectorISt5tupleIJxxxEESaIS1_EE8max_sizeEv,comdat
	.align 2
	.weak	_ZNKSt6vectorISt5tupleIJxxxEESaIS1_EE8max_sizeEv
	.type	_ZNKSt6vectorISt5tupleIJxxxEESaIS1_EE8max_sizeEv, @function
_ZNKSt6vectorISt5tupleIJxxxEESaIS1_EE8max_sizeEv:
.LFB13038:
	.loc 8 923 7
	.cfi_startproc
	endbr64	
	pushq	%rbp	#
	.cfi_def_cfa_offset 16
	.cfi_offset 6, -16
	movq	%rsp, %rbp	#,
	.cfi_def_cfa_register 6
	subq	$16, %rsp	#,
	movq	%rdi, -8(%rbp)	# this, this
# /usr/include/c++/11/bits/stl_vector.h:924:       { return _S_max_size(_M_get_Tp_allocator()); }
	.loc 8 924 47
	movq	-8(%rbp), %rax	# this, _1
	movq	%rax, %rdi	# _1,
	call	_ZNKSt12_Vector_baseISt5tupleIJxxxEESaIS1_EE19_M_get_Tp_allocatorEv	#
# /usr/include/c++/11/bits/stl_vector.h:924:       { return _S_max_size(_M_get_Tp_allocator()); }
	.loc 8 924 27
	movq	%rax, %rdi	# _2,
	call	_ZNSt6vectorISt5tupleIJxxxEESaIS1_EE11_S_max_sizeERKS2_	#
# /usr/include/c++/11/bits/stl_vector.h:924:       { return _S_max_size(_M_get_Tp_allocator()); }
	.loc 8 924 52
	leave	
	.cfi_def_cfa 7, 8
	ret	
	.cfi_endproc
.LFE13038:
	.size	_ZNKSt6vectorISt5tupleIJxxxEESaIS1_EE8max_sizeEv, .-_ZNKSt6vectorISt5tupleIJxxxEESaIS1_EE8max_sizeEv
	.section	.text._ZNKSt6vectorISt5tupleIJxxxEESaIS1_EE8capacityEv,"axG",@progbits,_ZNKSt6vectorISt5tupleIJxxxEESaIS1_EE8capacityEv,comdat
	.align 2
	.weak	_ZNKSt6vectorISt5tupleIJxxxEESaIS1_EE8capacityEv
	.type	_ZNKSt6vectorISt5tupleIJxxxEESaIS1_EE8capacityEv, @function
_ZNKSt6vectorISt5tupleIJxxxEESaIS1_EE8capacityEv:
.LFB13039:
	.loc 8 998 7
	.cfi_startproc
	endbr64	
	pushq	%rbp	#
	.cfi_def_cfa_offset 16
	.cfi_offset 6, -16
	movq	%rsp, %rbp	#,
	.cfi_def_cfa_register 6
	movq	%rdi, -8(%rbp)	# this, this
# /usr/include/c++/11/bits/stl_vector.h:999:       { return size_type(this->_M_impl._M_end_of_storage
	.loc 8 999 40
	movq	-8(%rbp), %rax	# this, tmp88
	movq	16(%rax), %rdx	# this_6(D)->D.262364._M_impl.D.261709._M_end_of_storage, _1
# /usr/include/c++/11/bits/stl_vector.h:1000: 			 - this->_M_impl._M_start); }
	.loc 8 1000 21
	movq	-8(%rbp), %rax	# this, tmp89
	movq	(%rax), %rcx	# this_6(D)->D.262364._M_impl.D.261709._M_start, _2
# /usr/include/c++/11/bits/stl_vector.h:1000: 			 - this->_M_impl._M_start); }
	.loc 8 1000 5
	movq	%rdx, %rax	# _1, _1
	subq	%rcx, %rax	# _2, _1
	sarq	$3, %rax	#, _3
	movq	%rax, %rdx	# _3, tmp90
	movabsq	$-6148914691236517205, %rax	#, tmp92
	imulq	%rdx, %rax	# tmp90, tmp91
# /usr/include/c++/11/bits/stl_vector.h:1000: 			 - this->_M_impl._M_start); }
	.loc 8 1000 32
	popq	%rbp	#
	.cfi_def_cfa 7, 8
	ret	
	.cfi_endproc
.LFE13039:
	.size	_ZNKSt6vectorISt5tupleIJxxxEESaIS1_EE8capacityEv, .-_ZNKSt6vectorISt5tupleIJxxxEESaIS1_EE8capacityEv
	.section	.text._ZNKSt6vectorISt5tupleIJxxxEESaIS1_EE4sizeEv,"axG",@progbits,_ZNKSt6vectorISt5tupleIJxxxEESaIS1_EE4sizeEv,comdat
	.align 2
	.weak	_ZNKSt6vectorISt5tupleIJxxxEESaIS1_EE4sizeEv
	.type	_ZNKSt6vectorISt5tupleIJxxxEESaIS1_EE4sizeEv, @function
_ZNKSt6vectorISt5tupleIJxxxEESaIS1_EE4sizeEv:
.LFB13040:
	.loc 8 918 7
	.cfi_startproc
	endbr64	
	pushq	%rbp	#
	.cfi_def_cfa_offset 16
	.cfi_offset 6, -16
	movq	%rsp, %rbp	#,
	.cfi_def_cfa_register 6
	movq	%rdi, -8(%rbp)	# this, this
# /usr/include/c++/11/bits/stl_vector.h:919:       { return size_type(this->_M_impl._M_finish - this->_M_impl._M_start); }
	.loc 8 919 40
	movq	-8(%rbp), %rax	# this, tmp88
	movq	8(%rax), %rdx	# this_6(D)->D.262364._M_impl.D.261709._M_finish, _1
# /usr/include/c++/11/bits/stl_vector.h:919:       { return size_type(this->_M_impl._M_finish - this->_M_impl._M_start); }
	.loc 8 919 66
	movq	-8(%rbp), %rax	# this, tmp89
	movq	(%rax), %rcx	# this_6(D)->D.262364._M_impl.D.261709._M_start, _2
# /usr/include/c++/11/bits/stl_vector.h:919:       { return size_type(this->_M_impl._M_finish - this->_M_impl._M_start); }
	.loc 8 919 50
	movq	%rdx, %rax	# _1, _1
	subq	%rcx, %rax	# _2, _1
	sarq	$3, %rax	#, _3
	movq	%rax, %rdx	# _3, tmp90
	movabsq	$-6148914691236517205, %rax	#, tmp92
	imulq	%rdx, %rax	# tmp90, tmp91
# /usr/include/c++/11/bits/stl_vector.h:919:       { return size_type(this->_M_impl._M_finish - this->_M_impl._M_start); }
	.loc 8 919 77
	popq	%rbp	#
	.cfi_def_cfa 7, 8
	ret	
	.cfi_endproc
.LFE13040:
	.size	_ZNKSt6vectorISt5tupleIJxxxEESaIS1_EE4sizeEv, .-_ZNKSt6vectorISt5tupleIJxxxEESaIS1_EE4sizeEv
	.section	.text._ZNSt12_Vector_baseISt5tupleIJxxxEESaIS1_EE11_M_allocateEm,"axG",@progbits,_ZNSt12_Vector_baseISt5tupleIJxxxEESaIS1_EE11_M_allocateEm,comdat
	.align 2
	.weak	_ZNSt12_Vector_baseISt5tupleIJxxxEESaIS1_EE11_M_allocateEm
	.type	_ZNSt12_Vector_baseISt5tupleIJxxxEESaIS1_EE11_M_allocateEm, @function
_ZNSt12_Vector_baseISt5tupleIJxxxEESaIS1_EE11_M_allocateEm:
.LFB13041:
	.loc 8 343 7
	.cfi_startproc
	endbr64	
	pushq	%rbp	#
	.cfi_def_cfa_offset 16
	.cfi_offset 6, -16
	movq	%rsp, %rbp	#,
	.cfi_def_cfa_register 6
	subq	$16, %rsp	#,
	movq	%rdi, -8(%rbp)	# this, this
	movq	%rsi, -16(%rbp)	# __n, __n
# /usr/include/c++/11/bits/stl_vector.h:346: 	return __n != 0 ? _Tr::allocate(_M_impl, __n) : pointer();
	.loc 8 346 18
	cmpq	$0, -16(%rbp)	#, __n
	je	.L281	#,
# /usr/include/c++/11/bits/stl_vector.h:346: 	return __n != 0 ? _Tr::allocate(_M_impl, __n) : pointer();
	.loc 8 346 34 discriminator 1
	movq	-8(%rbp), %rax	# this, _1
# /usr/include/c++/11/bits/stl_vector.h:346: 	return __n != 0 ? _Tr::allocate(_M_impl, __n) : pointer();
	.loc 8 346 33 discriminator 1
	movq	-16(%rbp), %rdx	# __n, tmp85
	movq	%rdx, %rsi	# tmp85,
	movq	%rax, %rdi	# _1,
	call	_ZNSt16allocator_traitsISaISt5tupleIJxxxEEEE8allocateERS2_m	#
# /usr/include/c++/11/bits/stl_vector.h:346: 	return __n != 0 ? _Tr::allocate(_M_impl, __n) : pointer();
	.loc 8 346 58 discriminator 1
	jmp	.L283	#
.L281:
# /usr/include/c++/11/bits/stl_vector.h:346: 	return __n != 0 ? _Tr::allocate(_M_impl, __n) : pointer();
	.loc 8 346 18 discriminator 2
	movl	$0, %eax	#, _9
.L283:
# /usr/include/c++/11/bits/stl_vector.h:347:       }
	.loc 8 347 7 discriminator 5
	leave	
	.cfi_def_cfa 7, 8
	ret	
	.cfi_endproc
.LFE13041:
	.size	_ZNSt12_Vector_baseISt5tupleIJxxxEESaIS1_EE11_M_allocateEm, .-_ZNSt12_Vector_baseISt5tupleIJxxxEESaIS1_EE11_M_allocateEm
	.section	.text._ZNSt6vectorISt5tupleIJxxxEESaIS1_EE11_S_relocateEPS1_S4_S4_RS2_,"axG",@progbits,_ZNSt6vectorISt5tupleIJxxxEESaIS1_EE11_S_relocateEPS1_S4_S4_RS2_,comdat
	.weak	_ZNSt6vectorISt5tupleIJxxxEESaIS1_EE11_S_relocateEPS1_S4_S4_RS2_
	.type	_ZNSt6vectorISt5tupleIJxxxEESaIS1_EE11_S_relocateEPS1_S4_S4_RS2_, @function
_ZNSt6vectorISt5tupleIJxxxEESaIS1_EE11_S_relocateEPS1_S4_S4_RS2_:
.LFB13042:
	.loc 8 465 7
	.cfi_startproc
	endbr64	
	pushq	%rbp	#
	.cfi_def_cfa_offset 16
	.cfi_offset 6, -16
	movq	%rsp, %rbp	#,
	.cfi_def_cfa_register 6
	subq	$32, %rsp	#,
	movq	%rdi, -8(%rbp)	# __first, __first
	movq	%rsi, -16(%rbp)	# __last, __last
	movq	%rdx, -24(%rbp)	# __result, __result
	movq	%rcx, -32(%rbp)	# __alloc, __alloc
# /usr/include/c++/11/bits/stl_vector.h:469: 	return _S_do_relocate(__first, __last, __result, __alloc, __do_it{});
	.loc 8 469 23
	movq	-32(%rbp), %rcx	# __alloc, tmp85
	movq	-24(%rbp), %rdx	# __result, tmp86
	movq	-16(%rbp), %rsi	# __last, tmp87
	movq	-8(%rbp), %rax	# __first, tmp88
	movq	%rax, %rdi	# tmp88,
	call	_ZNSt6vectorISt5tupleIJxxxEESaIS1_EE14_S_do_relocateEPS1_S4_S4_RS2_St17integral_constantIbLb1EE	#
# /usr/include/c++/11/bits/stl_vector.h:470:       }
	.loc 8 470 7
	leave	
	.cfi_def_cfa 7, 8
	ret	
	.cfi_endproc
.LFE13042:
	.size	_ZNSt6vectorISt5tupleIJxxxEESaIS1_EE11_S_relocateEPS1_S4_S4_RS2_, .-_ZNSt6vectorISt5tupleIJxxxEESaIS1_EE11_S_relocateEPS1_S4_S4_RS2_
	.section	.text._ZSt7forwardIRxEOT_RNSt16remove_referenceIS1_E4typeE,"axG",@progbits,_ZSt7forwardIRxEOT_RNSt16remove_referenceIS1_E4typeE,comdat
	.weak	_ZSt7forwardIRxEOT_RNSt16remove_referenceIS1_E4typeE
	.type	_ZSt7forwardIRxEOT_RNSt16remove_referenceIS1_E4typeE, @function
_ZSt7forwardIRxEOT_RNSt16remove_referenceIS1_E4typeE:
.LFB13043:
	.loc 11 77 5
	.cfi_startproc
	endbr64	
	pushq	%rbp	#
	.cfi_def_cfa_offset 16
	.cfi_offset 6, -16
	movq	%rsp, %rbp	#,
	.cfi_def_cfa_register 6
	movq	%rdi, -8(%rbp)	# __t, __t
# /usr/include/c++/11/bits/move.h:78:     { return static_cast<_Tp&&>(__t); }
	.loc 11 78 36
	movq	-8(%rbp), %rax	# __t, _2
# /usr/include/c++/11/bits/move.h:78:     { return static_cast<_Tp&&>(__t); }
	.loc 11 78 39
	popq	%rbp	#
	.cfi_def_cfa 7, 8
	ret	
	.cfi_endproc
.LFE13043:
	.size	_ZSt7forwardIRxEOT_RNSt16remove_referenceIS1_E4typeE, .-_ZSt7forwardIRxEOT_RNSt16remove_referenceIS1_E4typeE
	.section	.text._ZSt12construct_atISt5tupleIJxxxEEJRxiiEEDTgsnwcvPvLi0E_T_pispcl7declvalIT0_EEEEPS4_DpOS5_,"axG",@progbits,_ZSt12construct_atISt5tupleIJxxxEEJRxiiEEDTgsnwcvPvLi0E_T_pispcl7declvalIT0_EEEEPS4_DpOS5_,comdat
	.weak	_ZSt12construct_atISt5tupleIJxxxEEJRxiiEEDTgsnwcvPvLi0E_T_pispcl7declvalIT0_EEEEPS4_DpOS5_
	.type	_ZSt12construct_atISt5tupleIJxxxEEJRxiiEEDTgsnwcvPvLi0E_T_pispcl7declvalIT0_EEEEPS4_DpOS5_, @function
_ZSt12construct_atISt5tupleIJxxxEEJRxiiEEDTgsnwcvPvLi0E_T_pispcl7declvalIT0_EEEEPS4_DpOS5_:
.LFB13045:
	.loc 23 94 5
	.cfi_startproc
	endbr64	
	pushq	%rbp	#
	.cfi_def_cfa_offset 16
	.cfi_offset 6, -16
	movq	%rsp, %rbp	#,
	.cfi_def_cfa_register 6
	pushq	%r14	#
	pushq	%r13	#
	pushq	%r12	#
	pushq	%rbx	#
	subq	$32, %rsp	#,
	.cfi_offset 14, -24
	.cfi_offset 13, -32
	.cfi_offset 12, -40
	.cfi_offset 3, -48
	movq	%rdi, -40(%rbp)	# __location, __location
	movq	%rsi, -48(%rbp)	# __args#0, __args#0
	movq	%rdx, -56(%rbp)	# __args#1, __args#1
	movq	%rcx, -64(%rbp)	# __args#2, __args#2
# /usr/include/c++/11/bits/stl_construct.h:97:     { return ::new((void*)__location) _Tp(std::forward<_Args>(__args)...); }
	.loc 23 97 62
	movq	-48(%rbp), %rax	# __args#0, tmp88
	movq	%rax, %rdi	# tmp88,
	call	_ZSt7forwardIRxEOT_RNSt16remove_referenceIS1_E4typeE	#
	movq	%rax, %r12	#, _4
	movq	-56(%rbp), %rax	# __args#1, tmp89
	movq	%rax, %rdi	# tmp89,
	call	_ZSt7forwardIiEOT_RNSt16remove_referenceIS0_E4typeE	#
	movq	%rax, %r13	#, _7
	movq	-64(%rbp), %rax	# __args#2, tmp90
	movq	%rax, %rdi	# tmp90,
	call	_ZSt7forwardIiEOT_RNSt16remove_referenceIS0_E4typeE	#
	movq	%rax, %r14	#, _10
# /usr/include/c++/11/bits/stl_construct.h:97:     { return ::new((void*)__location) _Tp(std::forward<_Args>(__args)...); }
	.loc 23 97 20
	movq	-40(%rbp), %rax	# __location, _12
# /usr/include/c++/11/bits/stl_construct.h:97:     { return ::new((void*)__location) _Tp(std::forward<_Args>(__args)...); }
	.loc 23 97 14
	movq	%rax, %rsi	# _12,
	movl	$24, %edi	#,
	call	_ZnwmPv	#
	movq	%rax, %rbx	#, _14
	movq	%r14, %rcx	# _10,
	movq	%r13, %rdx	# _7,
	movq	%r12, %rsi	# _4,
	movq	%rbx, %rdi	# _14,
	call	_ZNSt5tupleIJxxxEEC1IJRxiiELb1ELb1EEEDpOT_	#
# /usr/include/c++/11/bits/stl_construct.h:97:     { return ::new((void*)__location) _Tp(std::forward<_Args>(__args)...); }
	.loc 23 97 73
	movq	%rbx, %rax	# _14, <retval>
# /usr/include/c++/11/bits/stl_construct.h:97:     { return ::new((void*)__location) _Tp(std::forward<_Args>(__args)...); }
	.loc 23 97 76
	addq	$32, %rsp	#,
	popq	%rbx	#
	popq	%r12	#
	popq	%r13	#
	popq	%r14	#
	popq	%rbp	#
	.cfi_def_cfa 7, 8
	ret	
	.cfi_endproc
.LFE13045:
	.size	_ZSt12construct_atISt5tupleIJxxxEEJRxiiEEDTgsnwcvPvLi0E_T_pispcl7declvalIT0_EEEEPS4_DpOS5_, .-_ZSt12construct_atISt5tupleIJxxxEEJRxiiEEDTgsnwcvPvLi0E_T_pispcl7declvalIT0_EEEEPS4_DpOS5_
	.section	.text._ZNSt16allocator_traitsISaISt5tupleIJxxxEEEE9constructIS1_JRxiiEEEvRS2_PT_DpOT0_,"axG",@progbits,_ZNSt16allocator_traitsISaISt5tupleIJxxxEEEE9constructIS1_JRxiiEEEvRS2_PT_DpOT0_,comdat
	.weak	_ZNSt16allocator_traitsISaISt5tupleIJxxxEEEE9constructIS1_JRxiiEEEvRS2_PT_DpOT0_
	.type	_ZNSt16allocator_traitsISaISt5tupleIJxxxEEEE9constructIS1_JRxiiEEEvRS2_PT_DpOT0_, @function
_ZNSt16allocator_traitsISaISt5tupleIJxxxEEEE9constructIS1_JRxiiEEEvRS2_PT_DpOT0_:
.LFB13044:
	.loc 20 511 2
	.cfi_startproc
	endbr64	
	pushq	%rbp	#
	.cfi_def_cfa_offset 16
	.cfi_offset 6, -16
	movq	%rsp, %rbp	#,
	.cfi_def_cfa_register 6
	pushq	%r12	#
	pushq	%rbx	#
	subq	$48, %rsp	#,
	.cfi_offset 12, -24
	.cfi_offset 3, -32
	movq	%rdi, -24(%rbp)	# __a, __a
	movq	%rsi, -32(%rbp)	# __p, __p
	movq	%rdx, -40(%rbp)	# __args#0, __args#0
	movq	%rcx, -48(%rbp)	# __args#1, __args#1
	movq	%r8, -56(%rbp)	# __args#2, __args#2
# /usr/include/c++/11/bits/alloc_traits.h:518: 	  std::construct_at(__p, std::forward<_Args>(__args)...);
	.loc 20 518 21
	movq	-56(%rbp), %rax	# __args#2, tmp85
	movq	%rax, %rdi	# tmp85,
	call	_ZSt7forwardIiEOT_RNSt16remove_referenceIS0_E4typeE	#
	movq	%rax, %r12	#, _1
	movq	-48(%rbp), %rax	# __args#1, tmp86
	movq	%rax, %rdi	# tmp86,
	call	_ZSt7forwardIiEOT_RNSt16remove_referenceIS0_E4typeE	#
	movq	%rax, %rbx	#, _2
	movq	-40(%rbp), %rax	# __args#0, tmp87
	movq	%rax, %rdi	# tmp87,
	call	_ZSt7forwardIRxEOT_RNSt16remove_referenceIS1_E4typeE	#
	movq	%rax, %rsi	#, _3
	movq	-32(%rbp), %rax	# __p, tmp88
	movq	%r12, %rcx	# _1,
	movq	%rbx, %rdx	# _2,
	movq	%rax, %rdi	# tmp88,
	call	_ZSt12construct_atISt5tupleIJxxxEEJRxiiEEDTgsnwcvPvLi0E_T_pispcl7declvalIT0_EEEEPS4_DpOS5_	#
# /usr/include/c++/11/bits/alloc_traits.h:520: 	}
	.loc 20 520 2
	nop	
	addq	$48, %rsp	#,
	popq	%rbx	#
	popq	%r12	#
	popq	%rbp	#
	.cfi_def_cfa 7, 8
	ret	
	.cfi_endproc
.LFE13044:
	.size	_ZNSt16allocator_traitsISaISt5tupleIJxxxEEEE9constructIS1_JRxiiEEEvRS2_PT_DpOT0_, .-_ZNSt16allocator_traitsISaISt5tupleIJxxxEEEE9constructIS1_JRxiiEEEvRS2_PT_DpOT0_
	.section	.text._ZNSt6vectorISt5tupleIJxxxEESaIS1_EE3endEv,"axG",@progbits,_ZNSt6vectorISt5tupleIJxxxEESaIS1_EE3endEv,comdat
	.align 2
	.weak	_ZNSt6vectorISt5tupleIJxxxEESaIS1_EE3endEv
	.type	_ZNSt6vectorISt5tupleIJxxxEESaIS1_EE3endEv, @function
_ZNSt6vectorISt5tupleIJxxxEESaIS1_EE3endEv:
.LFB13046:
	.loc 8 829 7
	.cfi_startproc
	endbr64	
	pushq	%rbp	#
	.cfi_def_cfa_offset 16
	.cfi_offset 6, -16
	movq	%rsp, %rbp	#,
	.cfi_def_cfa_register 6
	subq	$32, %rsp	#,
	movq	%rdi, -24(%rbp)	# this, this
# /usr/include/c++/11/bits/stl_vector.h:829:       end() _GLIBCXX_NOEXCEPT
	.loc 8 829 7
	movq	%fs:40, %rax	# MEM[(<address-space-1> long unsigned int *)40B], tmp88
	movq	%rax, -8(%rbp)	# tmp88, D.296628
	xorl	%eax, %eax	# tmp88
# /usr/include/c++/11/bits/stl_vector.h:830:       { return iterator(this->_M_impl._M_finish); }
	.loc 8 830 39
	movq	-24(%rbp), %rax	# this, tmp85
	leaq	8(%rax), %rdx	#, _1
# /usr/include/c++/11/bits/stl_vector.h:830:       { return iterator(this->_M_impl._M_finish); }
	.loc 8 830 16
	leaq	-16(%rbp), %rax	#, tmp86
	movq	%rdx, %rsi	# _1,
	movq	%rax, %rdi	# tmp86,
	call	_ZN9__gnu_cxx17__normal_iteratorIPSt5tupleIJxxxEESt6vectorIS2_SaIS2_EEEC1ERKS3_	#
# /usr/include/c++/11/bits/stl_vector.h:830:       { return iterator(this->_M_impl._M_finish); }
	.loc 8 830 48
	movq	-16(%rbp), %rax	# D.284957, D.295937
# /usr/include/c++/11/bits/stl_vector.h:830:       { return iterator(this->_M_impl._M_finish); }
	.loc 8 830 51
	movq	-8(%rbp), %rdx	# D.296628, tmp89
	subq	%fs:40, %rdx	# MEM[(<address-space-1> long unsigned int *)40B], tmp89
	je	.L293	#,
	call	__stack_chk_fail@PLT	#
.L293:
	leave	
	.cfi_def_cfa 7, 8
	ret	
	.cfi_endproc
.LFE13046:
	.size	_ZNSt6vectorISt5tupleIJxxxEESaIS1_EE3endEv, .-_ZNSt6vectorISt5tupleIJxxxEESaIS1_EE3endEv
	.section	.text._ZNSt6vectorISt5tupleIJxxxEESaIS1_EE17_M_realloc_insertIJRxiiEEEvN9__gnu_cxx17__normal_iteratorIPS1_S3_EEDpOT_,"axG",@progbits,_ZNSt6vectorISt5tupleIJxxxEESaIS1_EE17_M_realloc_insertIJRxiiEEEvN9__gnu_cxx17__normal_iteratorIPS1_S3_EEDpOT_,comdat
	.align 2
	.weak	_ZNSt6vectorISt5tupleIJxxxEESaIS1_EE17_M_realloc_insertIJRxiiEEEvN9__gnu_cxx17__normal_iteratorIPS1_S3_EEDpOT_
	.type	_ZNSt6vectorISt5tupleIJxxxEESaIS1_EE17_M_realloc_insertIJRxiiEEEvN9__gnu_cxx17__normal_iteratorIPS1_S3_EEDpOT_, @function
_ZNSt6vectorISt5tupleIJxxxEESaIS1_EE17_M_realloc_insertIJRxiiEEEvN9__gnu_cxx17__normal_iteratorIPS1_S3_EEDpOT_:
.LFB13047:
	.loc 14 426 7
	.cfi_startproc
	endbr64	
	pushq	%rbp	#
	.cfi_def_cfa_offset 16
	.cfi_offset 6, -16
	movq	%rsp, %rbp	#,
	.cfi_def_cfa_register 6
	pushq	%r12	#
	pushq	%rbx	#
	subq	$112, %rsp	#,
	.cfi_offset 12, -24
	.cfi_offset 3, -32
	movq	%rdi, -88(%rbp)	# this, this
	movq	%rsi, -96(%rbp)	# __position, __position
	movq	%rdx, -104(%rbp)	# __args#0, __args#0
	movq	%rcx, -112(%rbp)	# __args#1, __args#1
	movq	%r8, -120(%rbp)	# __args#2, __args#2
# /usr/include/c++/11/bits/vector.tcc:426:       vector<_Tp, _Alloc>::
	.loc 14 426 7
	movq	%fs:40, %rax	# MEM[(<address-space-1> long unsigned int *)40B], tmp156
	movq	%rax, -24(%rbp)	# tmp156, D.296629
	xorl	%eax, %eax	# tmp156
# /usr/include/c++/11/bits/vector.tcc:436: 	_M_check_len(size_type(1), "vector::_M_realloc_insert");
	.loc 14 436 14
	movq	-88(%rbp), %rax	# this, tmp114
	leaq	.LC9(%rip), %rdx	#, tmp115
	movl	$1, %esi	#,
	movq	%rax, %rdi	# tmp114,
	call	_ZNKSt6vectorISt5tupleIJxxxEESaIS1_EE12_M_check_lenEmPKc	#
	movq	%rax, -72(%rbp)	# _34, __len
# /usr/include/c++/11/bits/vector.tcc:437:       pointer __old_start = this->_M_impl._M_start;
	.loc 14 437 15
	movq	-88(%rbp), %rax	# this, tmp116
	movq	(%rax), %rax	# this_32(D)->D.262364._M_impl.D.261709._M_start, tmp117
	movq	%rax, -64(%rbp)	# tmp117, __old_start
# /usr/include/c++/11/bits/vector.tcc:438:       pointer __old_finish = this->_M_impl._M_finish;
	.loc 14 438 15
	movq	-88(%rbp), %rax	# this, tmp118
	movq	8(%rax), %rax	# this_32(D)->D.262364._M_impl.D.261709._M_finish, tmp119
	movq	%rax, -56(%rbp)	# tmp119, __old_finish
# /usr/include/c++/11/bits/vector.tcc:439:       const size_type __elems_before = __position - begin();
	.loc 14 439 58
	movq	-88(%rbp), %rax	# this, tmp120
	movq	%rax, %rdi	# tmp120,
	call	_ZNSt6vectorISt5tupleIJxxxEESaIS1_EE5beginEv	#
	movq	%rax, -80(%rbp)	# tmp122, D.284967
# /usr/include/c++/11/bits/vector.tcc:439:       const size_type __elems_before = __position - begin();
	.loc 14 439 51
	leaq	-80(%rbp), %rdx	#, tmp123
	leaq	-96(%rbp), %rax	#, tmp124
	movq	%rdx, %rsi	# tmp123,
	movq	%rax, %rdi	# tmp124,
	call	_ZN9__gnu_cxxmiIPSt5tupleIJxxxEESt6vectorIS2_SaIS2_EEEENS_17__normal_iteratorIT_T0_E15difference_typeERKSA_SD_	#
# /usr/include/c++/11/bits/vector.tcc:439:       const size_type __elems_before = __position - begin();
	.loc 14 439 23
	movq	%rax, -48(%rbp)	# _1, __elems_before
# /usr/include/c++/11/bits/vector.tcc:440:       pointer __new_start(this->_M_allocate(__len));
	.loc 14 440 44
	movq	-88(%rbp), %rax	# this, _2
	movq	-72(%rbp), %rdx	# __len, tmp125
	movq	%rdx, %rsi	# tmp125,
	movq	%rax, %rdi	# _2,
	call	_ZNSt12_Vector_baseISt5tupleIJxxxEESaIS1_EE11_M_allocateEm	#
	movq	%rax, -40(%rbp)	# _43, __new_start
# /usr/include/c++/11/bits/vector.tcc:441:       pointer __new_finish(__new_start);
	.loc 14 441 15
	movq	-40(%rbp), %rax	# __new_start, tmp126
	movq	%rax, -32(%rbp)	# tmp126, __new_finish
# /usr/include/c++/11/bits/vector.tcc:449: 	  _Alloc_traits::construct(this->_M_impl,
	.loc 14 449 28
	movq	-120(%rbp), %rax	# __args#2, tmp127
	movq	%rax, %rdi	# tmp127,
	call	_ZSt7forwardIiEOT_RNSt16remove_referenceIS0_E4typeE	#
	movq	%rax, %r12	#, _3
	movq	-112(%rbp), %rax	# __args#1, tmp128
	movq	%rax, %rdi	# tmp128,
	call	_ZSt7forwardIiEOT_RNSt16remove_referenceIS0_E4typeE	#
	movq	%rax, %rbx	#, _4
	movq	-104(%rbp), %rax	# __args#0, tmp129
	movq	%rax, %rdi	# tmp129,
	call	_ZSt7forwardIRxEOT_RNSt16remove_referenceIS1_E4typeE	#
	movq	%rax, %rdi	#, _5
# /usr/include/c++/11/bits/vector.tcc:450: 				   __new_start + __elems_before,
	.loc 14 450 20
	movq	-48(%rbp), %rdx	# __elems_before, tmp130
	movq	%rdx, %rax	# tmp130, tmp131
	addq	%rax, %rax	# tmp131
	addq	%rdx, %rax	# tmp130, tmp131
	salq	$3, %rax	#, tmp132
	movq	%rax, %rdx	# tmp131, _6
# /usr/include/c++/11/bits/vector.tcc:449: 	  _Alloc_traits::construct(this->_M_impl,
	.loc 14 449 28
	movq	-40(%rbp), %rax	# __new_start, tmp133
	leaq	(%rdx,%rax), %rsi	#, _7
# /usr/include/c++/11/bits/vector.tcc:449: 	  _Alloc_traits::construct(this->_M_impl,
	.loc 14 449 35
	movq	-88(%rbp), %rax	# this, _8
# /usr/include/c++/11/bits/vector.tcc:449: 	  _Alloc_traits::construct(this->_M_impl,
	.loc 14 449 28
	movq	%r12, %r8	# _3,
	movq	%rbx, %rcx	# _4,
	movq	%rdi, %rdx	# _5,
	movq	%rax, %rdi	# _8,
	call	_ZNSt16allocator_traitsISaISt5tupleIJxxxEEEE9constructIS1_JRxiiEEEvRS2_PT_DpOT0_	#
# /usr/include/c++/11/bits/vector.tcc:456: 	  __new_finish = pointer();
	.loc 14 456 17
	movq	$0, -32(%rbp)	#, __new_finish
# /usr/include/c++/11/bits/vector.tcc:462: 					 __new_start, _M_get_Tp_allocator());
	.loc 14 462 39
